
C:\Users\Margarita\Desktop\OSAL\\project\\project2\project2.out:     file format elf32-littlearm


Disassembly of section .startcode:

80000000 <.startcode>:
80000000:	e59f010c 	ldr	r0, [pc, #268]	; 0x80000114
80000004:	e321f0db 	msr	CPSR_c, #219	; 0xdb
80000008:	e1a0d000 	mov	sp, r0
8000000c:	e2400008 	sub	r0, r0, #8
80000010:	e321f0d7 	msr	CPSR_c, #215	; 0xd7
80000014:	e1a0d000 	mov	sp, r0
80000018:	e2400008 	sub	r0, r0, #8
8000001c:	e321f0d1 	msr	CPSR_c, #209	; 0xd1
80000020:	e1a0d000 	mov	sp, r0
80000024:	e2400008 	sub	r0, r0, #8
80000028:	e321f0d2 	msr	CPSR_c, #210	; 0xd2
8000002c:	e1a0d000 	mov	sp, r0
80000030:	e2400a01 	sub	r0, r0, #4096	; 0x1000
80000034:	e321f0d3 	msr	CPSR_c, #211	; 0xd3
80000038:	e1a0d000 	mov	sp, r0
8000003c:	e2400008 	sub	r0, r0, #8
80000040:	e321f0df 	msr	CPSR_c, #223	; 0xdf
80000044:	e1a0d000 	mov	sp, r0
80000048:	e3a00000 	mov	r0, #0
8000004c:	ee070fd5 	mcr	15, 0, r0, cr7, cr5, {6}
80000050:	f57ff06f 	isb	sy
80000054:	ee110f10 	mrc	15, 0, r0, cr1, cr0, {0}
80000058:	e3800b02 	orr	r0, r0, #2048	; 0x800
8000005c:	ee010f10 	mcr	15, 0, r0, cr1, cr0, {0}
80000060:	ee111f50 	mrc	15, 0, r1, cr1, cr0, {2}
80000064:	e381160f 	orr	r1, r1, #15728640	; 0xf00000
80000068:	ee011f50 	mcr	15, 0, r1, cr1, cr0, {2}
8000006c:	e3a01000 	mov	r1, #0
80000070:	ee071f95 	mcr	15, 0, r1, cr7, cr5, {4}
80000074:	e3a00101 	mov	r0, #1073741824	; 0x40000000
80000078:	eee80a10 	vmsr	fpexc, r0
8000007c:	e59f0094 	ldr	r0, [pc, #148]	; 0x80000118
80000080:	e59f1094 	ldr	r1, [pc, #148]	; 0x8000011c
80000084:	e3a02000 	mov	r2, #0
80000088:	e4802004 	str	r2, [r0], #4
8000008c:	e1500001 	cmp	r0, r1
80000090:	dafffffc 	ble	0x80000088
80000094:	e59fa084 	ldr	sl, [pc, #132]	; 0x80000120
80000098:	e1a0e00f 	mov	lr, pc
8000009c:	e12fff1a 	bx	sl
800000a0:	e24ff008 	sub	pc, pc, #8
800000a4:	e92d4003 	push	{r0, r1, lr}
800000a8:	e24dd004 	sub	sp, sp, #4
800000ac:	e51e0004 	ldr	r0, [lr, #-4]
800000b0:	e3c00001 	bic	r0, r0, #1
800000b4:	e3500807 	cmp	r0, #458752	; 0x70000
800000b8:	014f1000 	mrseq	r1, SPSR
800000bc:	0381101f 	orreq	r1, r1, #31
800000c0:	0169f001 	msreq	SPSR_fc, r1
800000c4:	e28dd004 	add	sp, sp, #4
800000c8:	e8fd8003 	ldm	sp!, {r0, r1, pc}^
800000cc:	e24ee004 	sub	lr, lr, #4
800000d0:	e92d500f 	push	{r0, r1, r2, r3, ip, lr}
800000d4:	e14fc000 	mrs	ip, SPSR
800000d8:	eef11a10 	vmrs	r1, fpscr
800000dc:	eef82a10 	vmrs	r2, fpexc
800000e0:	e92d1006 	push	{r1, r2, ip}
800000e4:	ed2d0b10 	vpush	{d0-d7}
800000e8:	ed6d0b20 	vpush	{d16-d31}
800000ec:	eb0031ce 	bl	0x8000c82c
800000f0:	ecfd0b20 	vpop	{d16-d31}
800000f4:	ecbd0b10 	vpop	{d0-d7}
800000f8:	e8bd1006 	pop	{r1, r2, ip}
800000fc:	e169f00c 	msr	SPSR_fc, ip
80000100:	eee11a10 	vmsr	fpscr, r1
80000104:	eee82a10 	vmsr	fpexc, r2
80000108:	e8fd900f 	ldm	sp!, {r0, r1, r2, r3, ip, pc}^
8000010c:	e25ef004 	subs	pc, lr, #4
80000110:	eafffffe 	b	0x80000110
80000114:	80020230 	andhi	r0, r2, r0, lsr r2
80000118:	8000eb00 	andhi	lr, r0, r0, lsl #22
8000011c:	8000fa2c 	andhi	pc, r0, ip, lsr #20
80000120:	80000b70 	andhi	r0, r0, r0, ror fp

Disassembly of section .text:

80000124 <.text>:
80000124:	e52db004 	push	{fp}		; (str fp, [sp, #-4]!)
80000128:	e28db000 	add	fp, sp, #0
8000012c:	e24dd014 	sub	sp, sp, #20
80000130:	e1a03000 	mov	r3, r0
80000134:	e50b1014 	str	r1, [fp, #-20]	; 0xffffffec
80000138:	e54b300d 	strb	r3, [fp, #-13]
8000013c:	e3a03000 	mov	r3, #0
80000140:	e54b3005 	strb	r3, [fp, #-5]
80000144:	e51b3014 	ldr	r3, [fp, #-20]	; 0xffffffec
80000148:	e353000a 	cmp	r3, #10
8000014c:	0a000002 	beq	0x8000015c
80000150:	e51b3014 	ldr	r3, [fp, #-20]	; 0xffffffec
80000154:	e3530010 	cmp	r3, #16
80000158:	1a000026 	bne	0x800001f8
8000015c:	e55b300d 	ldrb	r3, [fp, #-13]
80000160:	e353002f 	cmp	r3, #47	; 0x2f
80000164:	9a000007 	bls	0x80000188
80000168:	e55b300d 	ldrb	r3, [fp, #-13]
8000016c:	e3530039 	cmp	r3, #57	; 0x39
80000170:	8a000004 	bhi	0x80000188
80000174:	e55b300d 	ldrb	r3, [fp, #-13]
80000178:	e2433030 	sub	r3, r3, #48	; 0x30
8000017c:	e54b3005 	strb	r3, [fp, #-5]
80000180:	e55b3005 	ldrb	r3, [fp, #-5]
80000184:	ea00001c 	b	0x800001fc
80000188:	e51b3014 	ldr	r3, [fp, #-20]	; 0xffffffec
8000018c:	e3530010 	cmp	r3, #16
80000190:	1a00000a 	bne	0x800001c0
80000194:	e55b300d 	ldrb	r3, [fp, #-13]
80000198:	e3530040 	cmp	r3, #64	; 0x40
8000019c:	9a000007 	bls	0x800001c0
800001a0:	e55b300d 	ldrb	r3, [fp, #-13]
800001a4:	e3530046 	cmp	r3, #70	; 0x46
800001a8:	8a000004 	bhi	0x800001c0
800001ac:	e55b300d 	ldrb	r3, [fp, #-13]
800001b0:	e2433037 	sub	r3, r3, #55	; 0x37
800001b4:	e54b3005 	strb	r3, [fp, #-5]
800001b8:	e55b3005 	ldrb	r3, [fp, #-5]
800001bc:	ea00000e 	b	0x800001fc
800001c0:	e51b3014 	ldr	r3, [fp, #-20]	; 0xffffffec
800001c4:	e3530010 	cmp	r3, #16
800001c8:	1a00000a 	bne	0x800001f8
800001cc:	e55b300d 	ldrb	r3, [fp, #-13]
800001d0:	e3530060 	cmp	r3, #96	; 0x60
800001d4:	9a000007 	bls	0x800001f8
800001d8:	e55b300d 	ldrb	r3, [fp, #-13]
800001dc:	e3530066 	cmp	r3, #102	; 0x66
800001e0:	8a000004 	bhi	0x800001f8
800001e4:	e55b300d 	ldrb	r3, [fp, #-13]
800001e8:	e2433057 	sub	r3, r3, #87	; 0x57
800001ec:	e54b3005 	strb	r3, [fp, #-5]
800001f0:	e55b3005 	ldrb	r3, [fp, #-5]
800001f4:	ea000000 	b	0x800001fc
800001f8:	e3a030ff 	mov	r3, #255	; 0xff
800001fc:	e1a00003 	mov	r0, r3
80000200:	e28bd000 	add	sp, fp, #0
80000204:	e49db004 	pop	{fp}		; (ldr fp, [sp], #4)
80000208:	e12fff1e 	bx	lr
8000020c:	e52db004 	push	{fp}		; (str fp, [sp, #-4]!)
80000210:	e28db000 	add	fp, sp, #0
80000214:	e24dd014 	sub	sp, sp, #20
80000218:	e1a03000 	mov	r3, r0
8000021c:	e50b1014 	str	r1, [fp, #-20]	; 0xffffffec
80000220:	e54b300d 	strb	r3, [fp, #-13]
80000224:	e3a03000 	mov	r3, #0
80000228:	e50b3008 	str	r3, [fp, #-8]
8000022c:	e55b300d 	ldrb	r3, [fp, #-13]
80000230:	e203300f 	and	r3, r3, #15
80000234:	e54b3009 	strb	r3, [fp, #-9]
80000238:	e51b3014 	ldr	r3, [fp, #-20]	; 0xffffffec
8000023c:	e353000a 	cmp	r3, #10
80000240:	0a000002 	beq	0x80000250
80000244:	e51b3014 	ldr	r3, [fp, #-20]	; 0xffffffec
80000248:	e3530010 	cmp	r3, #16
8000024c:	1a000017 	bne	0x800002b0
80000250:	e55b3009 	ldrb	r3, [fp, #-9]
80000254:	e3530009 	cmp	r3, #9
80000258:	8a000005 	bhi	0x80000274
8000025c:	e55b3009 	ldrb	r3, [fp, #-9]
80000260:	e2833030 	add	r3, r3, #48	; 0x30
80000264:	e50b3008 	str	r3, [fp, #-8]
80000268:	e51b3008 	ldr	r3, [fp, #-8]
8000026c:	e6ef3073 	uxtb	r3, r3
80000270:	ea00000f 	b	0x800002b4
80000274:	e51b3014 	ldr	r3, [fp, #-20]	; 0xffffffec
80000278:	e3530010 	cmp	r3, #16
8000027c:	1a00000b 	bne	0x800002b0
80000280:	e55b3009 	ldrb	r3, [fp, #-9]
80000284:	e3530009 	cmp	r3, #9
80000288:	9a000008 	bls	0x800002b0
8000028c:	e55b3009 	ldrb	r3, [fp, #-9]
80000290:	e353000f 	cmp	r3, #15
80000294:	8a000005 	bhi	0x800002b0
80000298:	e55b3009 	ldrb	r3, [fp, #-9]
8000029c:	e2833037 	add	r3, r3, #55	; 0x37
800002a0:	e50b3008 	str	r3, [fp, #-8]
800002a4:	e51b3008 	ldr	r3, [fp, #-8]
800002a8:	e6ef3073 	uxtb	r3, r3
800002ac:	ea000000 	b	0x800002b4
800002b0:	e3a030ff 	mov	r3, #255	; 0xff
800002b4:	e1a00003 	mov	r0, r3
800002b8:	e28bd000 	add	sp, fp, #0
800002bc:	e49db004 	pop	{fp}		; (ldr fp, [sp], #4)
800002c0:	e12fff1e 	bx	lr
800002c4:	e92d4800 	push	{fp, lr}
800002c8:	e28db004 	add	fp, sp, #4
800002cc:	e24dd010 	sub	sp, sp, #16
800002d0:	e50b0010 	str	r0, [fp, #-16]
800002d4:	e50b1014 	str	r1, [fp, #-20]	; 0xffffffec
800002d8:	e3a03000 	mov	r3, #0
800002dc:	e50b3008 	str	r3, [fp, #-8]
800002e0:	e3a03000 	mov	r3, #0
800002e4:	e54b3009 	strb	r3, [fp, #-9]
800002e8:	e3a03000 	mov	r3, #0
800002ec:	e54b300a 	strb	r3, [fp, #-10]
800002f0:	e3a03000 	mov	r3, #0
800002f4:	e50b3008 	str	r3, [fp, #-8]
800002f8:	ea000044 	b	0x80000410
800002fc:	e51b2008 	ldr	r2, [fp, #-8]
80000300:	e1a03002 	mov	r3, r2
80000304:	e1a03083 	lsl	r3, r3, #1
80000308:	e0833002 	add	r3, r3, r2
8000030c:	e2833001 	add	r3, r3, #1
80000310:	e51b2010 	ldr	r2, [fp, #-16]
80000314:	e0823003 	add	r3, r2, r3
80000318:	e5d33000 	ldrb	r3, [r3]
8000031c:	e3a01010 	mov	r1, #16
80000320:	e1a00003 	mov	r0, r3
80000324:	ebffff7e 	bl	0x80000124
80000328:	e1a03000 	mov	r3, r0
8000032c:	e54b3009 	strb	r3, [fp, #-9]
80000330:	e51b2008 	ldr	r2, [fp, #-8]
80000334:	e1a03002 	mov	r3, r2
80000338:	e1a03083 	lsl	r3, r3, #1
8000033c:	e0833002 	add	r3, r3, r2
80000340:	e51b2010 	ldr	r2, [fp, #-16]
80000344:	e0823003 	add	r3, r2, r3
80000348:	e5d33000 	ldrb	r3, [r3]
8000034c:	e3a01010 	mov	r1, #16
80000350:	e1a00003 	mov	r0, r3
80000354:	ebffff72 	bl	0x80000124
80000358:	e1a03000 	mov	r3, r0
8000035c:	e54b300a 	strb	r3, [fp, #-10]
80000360:	e51b3008 	ldr	r3, [fp, #-8]
80000364:	e3530005 	cmp	r3, #5
80000368:	0a00000e 	beq	0x800003a8
8000036c:	e51b2008 	ldr	r2, [fp, #-8]
80000370:	e1a03002 	mov	r3, r2
80000374:	e1a03083 	lsl	r3, r3, #1
80000378:	e0833002 	add	r3, r3, r2
8000037c:	e2833002 	add	r3, r3, #2
80000380:	e51b2010 	ldr	r2, [fp, #-16]
80000384:	e0823003 	add	r3, r2, r3
80000388:	e5d33000 	ldrb	r3, [r3]
8000038c:	e353002d 	cmp	r3, #45	; 0x2d
80000390:	0a000004 	beq	0x800003a8
80000394:	e51b2008 	ldr	r2, [fp, #-8]
80000398:	e1a03002 	mov	r3, r2
8000039c:	e1a03083 	lsl	r3, r3, #1
800003a0:	e0833002 	add	r3, r3, r2
800003a4:	ea000020 	b	0x8000042c
800003a8:	e55b3009 	ldrb	r3, [fp, #-9]
800003ac:	e35300ff 	cmp	r3, #255	; 0xff
800003b0:	0a000011 	beq	0x800003fc
800003b4:	e55b300a 	ldrb	r3, [fp, #-10]
800003b8:	e35300ff 	cmp	r3, #255	; 0xff
800003bc:	0a00000e 	beq	0x800003fc
800003c0:	e51b2014 	ldr	r2, [fp, #-20]	; 0xffffffec
800003c4:	e51b3008 	ldr	r3, [fp, #-8]
800003c8:	e0823003 	add	r3, r2, r3
800003cc:	e55b200a 	ldrb	r2, [fp, #-10]
800003d0:	e1a02202 	lsl	r2, r2, #4
800003d4:	e6af1072 	sxtb	r1, r2
800003d8:	e15b20d9 	ldrsb	r2, [fp, #-9]
800003dc:	e1812002 	orr	r2, r1, r2
800003e0:	e6af2072 	sxtb	r2, r2
800003e4:	e6ef2072 	uxtb	r2, r2
800003e8:	e5c32000 	strb	r2, [r3]
800003ec:	e51b3008 	ldr	r3, [fp, #-8]
800003f0:	e2833001 	add	r3, r3, #1
800003f4:	e50b3008 	str	r3, [fp, #-8]
800003f8:	ea000004 	b	0x80000410
800003fc:	e51b2008 	ldr	r2, [fp, #-8]
80000400:	e1a03002 	mov	r3, r2
80000404:	e1a03083 	lsl	r3, r3, #1
80000408:	e0833002 	add	r3, r3, r2
8000040c:	ea000006 	b	0x8000042c
80000410:	e51b3008 	ldr	r3, [fp, #-8]
80000414:	e3530005 	cmp	r3, #5
80000418:	9affffb7 	bls	0x800002fc
8000041c:	e51b2008 	ldr	r2, [fp, #-8]
80000420:	e1a03002 	mov	r3, r2
80000424:	e1a03083 	lsl	r3, r3, #1
80000428:	e0833002 	add	r3, r3, r2
8000042c:	e1a00003 	mov	r0, r3
80000430:	e24bd004 	sub	sp, fp, #4
80000434:	e8bd8800 	pop	{fp, pc}
80000438:	e92d4800 	push	{fp, lr}
8000043c:	e28db004 	add	fp, sp, #4
80000440:	e24dd010 	sub	sp, sp, #16
80000444:	e50b0010 	str	r0, [fp, #-16]
80000448:	e50b1014 	str	r1, [fp, #-20]	; 0xffffffec
8000044c:	e3a03000 	mov	r3, #0
80000450:	e50b3008 	str	r3, [fp, #-8]
80000454:	e3a03000 	mov	r3, #0
80000458:	e54b3009 	strb	r3, [fp, #-9]
8000045c:	e3a03000 	mov	r3, #0
80000460:	e54b300a 	strb	r3, [fp, #-10]
80000464:	e3a03000 	mov	r3, #0
80000468:	e50b3008 	str	r3, [fp, #-8]
8000046c:	ea000046 	b	0x8000058c
80000470:	e51b2010 	ldr	r2, [fp, #-16]
80000474:	e51b3008 	ldr	r3, [fp, #-8]
80000478:	e0823003 	add	r3, r2, r3
8000047c:	e5d33000 	ldrb	r3, [r3]
80000480:	e1a03223 	lsr	r3, r3, #4
80000484:	e6ef3073 	uxtb	r3, r3
80000488:	e3a01010 	mov	r1, #16
8000048c:	e1a00003 	mov	r0, r3
80000490:	ebffff5d 	bl	0x8000020c
80000494:	e1a03000 	mov	r3, r0
80000498:	e54b300a 	strb	r3, [fp, #-10]
8000049c:	e51b2010 	ldr	r2, [fp, #-16]
800004a0:	e51b3008 	ldr	r3, [fp, #-8]
800004a4:	e0823003 	add	r3, r2, r3
800004a8:	e5d33000 	ldrb	r3, [r3]
800004ac:	e3a01010 	mov	r1, #16
800004b0:	e1a00003 	mov	r0, r3
800004b4:	ebffff54 	bl	0x8000020c
800004b8:	e1a03000 	mov	r3, r0
800004bc:	e54b3009 	strb	r3, [fp, #-9]
800004c0:	e55b3009 	ldrb	r3, [fp, #-9]
800004c4:	e35300ff 	cmp	r3, #255	; 0xff
800004c8:	0a00002a 	beq	0x80000578
800004cc:	e55b300a 	ldrb	r3, [fp, #-10]
800004d0:	e35300ff 	cmp	r3, #255	; 0xff
800004d4:	0a000027 	beq	0x80000578
800004d8:	e51b2008 	ldr	r2, [fp, #-8]
800004dc:	e1a03002 	mov	r3, r2
800004e0:	e1a03083 	lsl	r3, r3, #1
800004e4:	e0833002 	add	r3, r3, r2
800004e8:	e2833001 	add	r3, r3, #1
800004ec:	e51b2014 	ldr	r2, [fp, #-20]	; 0xffffffec
800004f0:	e0823003 	add	r3, r2, r3
800004f4:	e55b2009 	ldrb	r2, [fp, #-9]
800004f8:	e5c32000 	strb	r2, [r3]
800004fc:	e51b2008 	ldr	r2, [fp, #-8]
80000500:	e1a03002 	mov	r3, r2
80000504:	e1a03083 	lsl	r3, r3, #1
80000508:	e0833002 	add	r3, r3, r2
8000050c:	e51b2014 	ldr	r2, [fp, #-20]	; 0xffffffec
80000510:	e0823003 	add	r3, r2, r3
80000514:	e55b200a 	ldrb	r2, [fp, #-10]
80000518:	e5c32000 	strb	r2, [r3]
8000051c:	e51b3008 	ldr	r3, [fp, #-8]
80000520:	e3530005 	cmp	r3, #5
80000524:	1a000009 	bne	0x80000550
80000528:	e51b2008 	ldr	r2, [fp, #-8]
8000052c:	e1a03002 	mov	r3, r2
80000530:	e1a03083 	lsl	r3, r3, #1
80000534:	e0833002 	add	r3, r3, r2
80000538:	e2833002 	add	r3, r3, #2
8000053c:	e51b2014 	ldr	r2, [fp, #-20]	; 0xffffffec
80000540:	e0823003 	add	r3, r2, r3
80000544:	e3a02000 	mov	r2, #0
80000548:	e5c32000 	strb	r2, [r3]
8000054c:	ea00000b 	b	0x80000580
80000550:	e51b2008 	ldr	r2, [fp, #-8]
80000554:	e1a03002 	mov	r3, r2
80000558:	e1a03083 	lsl	r3, r3, #1
8000055c:	e0833002 	add	r3, r3, r2
80000560:	e2833002 	add	r3, r3, #2
80000564:	e51b2014 	ldr	r2, [fp, #-20]	; 0xffffffec
80000568:	e0823003 	add	r3, r2, r3
8000056c:	e3a0202d 	mov	r2, #45	; 0x2d
80000570:	e5c32000 	strb	r2, [r3]
80000574:	ea000001 	b	0x80000580
80000578:	e51b3008 	ldr	r3, [fp, #-8]
8000057c:	ea000006 	b	0x8000059c
80000580:	e51b3008 	ldr	r3, [fp, #-8]
80000584:	e2833001 	add	r3, r3, #1
80000588:	e50b3008 	str	r3, [fp, #-8]
8000058c:	e51b3008 	ldr	r3, [fp, #-8]
80000590:	e3530005 	cmp	r3, #5
80000594:	9affffb5 	bls	0x80000470
80000598:	e51b3008 	ldr	r3, [fp, #-8]
8000059c:	e1a00003 	mov	r0, r3
800005a0:	e24bd004 	sub	sp, fp, #4
800005a4:	e8bd8800 	pop	{fp, pc}
800005a8:	e92d4800 	push	{fp, lr}
800005ac:	e28db004 	add	fp, sp, #4
800005b0:	e24dd010 	sub	sp, sp, #16
800005b4:	e50b0010 	str	r0, [fp, #-16]
800005b8:	e50b1014 	str	r1, [fp, #-20]	; 0xffffffec
800005bc:	e3a03000 	mov	r3, #0
800005c0:	e50b3008 	str	r3, [fp, #-8]
800005c4:	e3a03000 	mov	r3, #0
800005c8:	e54b3009 	strb	r3, [fp, #-9]
800005cc:	e3a03000 	mov	r3, #0
800005d0:	e54b300a 	strb	r3, [fp, #-10]
800005d4:	e3a03000 	mov	r3, #0
800005d8:	e50b3008 	str	r3, [fp, #-8]
800005dc:	ea000049 	b	0x80000708
800005e0:	e51b3008 	ldr	r3, [fp, #-8]
800005e4:	e1a03183 	lsl	r3, r3, #3
800005e8:	e283300c 	add	r3, r3, #12
800005ec:	e51b2010 	ldr	r2, [fp, #-16]
800005f0:	e1a03332 	lsr	r3, r2, r3
800005f4:	e6ef3073 	uxtb	r3, r3
800005f8:	e3a0100a 	mov	r1, #10
800005fc:	e1a00003 	mov	r0, r3
80000600:	ebffff01 	bl	0x8000020c
80000604:	e1a03000 	mov	r3, r0
80000608:	e54b300a 	strb	r3, [fp, #-10]
8000060c:	e51b3008 	ldr	r3, [fp, #-8]
80000610:	e2833001 	add	r3, r3, #1
80000614:	e1a03183 	lsl	r3, r3, #3
80000618:	e51b2010 	ldr	r2, [fp, #-16]
8000061c:	e1a03332 	lsr	r3, r2, r3
80000620:	e6ef3073 	uxtb	r3, r3
80000624:	e3a0100a 	mov	r1, #10
80000628:	e1a00003 	mov	r0, r3
8000062c:	ebfffef6 	bl	0x8000020c
80000630:	e1a03000 	mov	r3, r0
80000634:	e54b3009 	strb	r3, [fp, #-9]
80000638:	e55b3009 	ldrb	r3, [fp, #-9]
8000063c:	e35300ff 	cmp	r3, #255	; 0xff
80000640:	0a00002b 	beq	0x800006f4
80000644:	e55b300a 	ldrb	r3, [fp, #-10]
80000648:	e35300ff 	cmp	r3, #255	; 0xff
8000064c:	0a000028 	beq	0x800006f4
80000650:	e51b3008 	ldr	r3, [fp, #-8]
80000654:	e1a02003 	mov	r2, r3
80000658:	e1a03103 	lsl	r3, r3, #2
8000065c:	e0423003 	sub	r3, r2, r3
80000660:	e2833007 	add	r3, r3, #7
80000664:	e51b2014 	ldr	r2, [fp, #-20]	; 0xffffffec
80000668:	e0823003 	add	r3, r2, r3
8000066c:	e55b2009 	ldrb	r2, [fp, #-9]
80000670:	e5c32000 	strb	r2, [r3]
80000674:	e51b3008 	ldr	r3, [fp, #-8]
80000678:	e1a02003 	mov	r2, r3
8000067c:	e1a03103 	lsl	r3, r3, #2
80000680:	e0423003 	sub	r3, r2, r3
80000684:	e2833006 	add	r3, r3, #6
80000688:	e51b2014 	ldr	r2, [fp, #-20]	; 0xffffffec
8000068c:	e0823003 	add	r3, r2, r3
80000690:	e55b200a 	ldrb	r2, [fp, #-10]
80000694:	e5c32000 	strb	r2, [r3]
80000698:	e51b3008 	ldr	r3, [fp, #-8]
8000069c:	e3530000 	cmp	r3, #0
800006a0:	1a000009 	bne	0x800006cc
800006a4:	e51b3008 	ldr	r3, [fp, #-8]
800006a8:	e1a02003 	mov	r2, r3
800006ac:	e1a03103 	lsl	r3, r3, #2
800006b0:	e0423003 	sub	r3, r2, r3
800006b4:	e2833008 	add	r3, r3, #8
800006b8:	e51b2014 	ldr	r2, [fp, #-20]	; 0xffffffec
800006bc:	e0823003 	add	r3, r2, r3
800006c0:	e3a02000 	mov	r2, #0
800006c4:	e5c32000 	strb	r2, [r3]
800006c8:	ea00000b 	b	0x800006fc
800006cc:	e51b3008 	ldr	r3, [fp, #-8]
800006d0:	e1a02003 	mov	r2, r3
800006d4:	e1a03103 	lsl	r3, r3, #2
800006d8:	e0423003 	sub	r3, r2, r3
800006dc:	e2833008 	add	r3, r3, #8
800006e0:	e51b2014 	ldr	r2, [fp, #-20]	; 0xffffffec
800006e4:	e0823003 	add	r3, r2, r3
800006e8:	e3a0203a 	mov	r2, #58	; 0x3a
800006ec:	e5c32000 	strb	r2, [r3]
800006f0:	ea000001 	b	0x800006fc
800006f4:	e51b3008 	ldr	r3, [fp, #-8]
800006f8:	ea000006 	b	0x80000718
800006fc:	e51b3008 	ldr	r3, [fp, #-8]
80000700:	e2833001 	add	r3, r3, #1
80000704:	e50b3008 	str	r3, [fp, #-8]
80000708:	e51b3008 	ldr	r3, [fp, #-8]
8000070c:	e3530002 	cmp	r3, #2
80000710:	9affffb2 	bls	0x800005e0
80000714:	e51b3008 	ldr	r3, [fp, #-8]
80000718:	e1a00003 	mov	r0, r3
8000071c:	e24bd004 	sub	sp, fp, #4
80000720:	e8bd8800 	pop	{fp, pc}
80000724:	e92d4800 	push	{fp, lr}
80000728:	e28db004 	add	fp, sp, #4
8000072c:	e24dd010 	sub	sp, sp, #16
80000730:	e50b0010 	str	r0, [fp, #-16]
80000734:	e50b1014 	str	r1, [fp, #-20]	; 0xffffffec
80000738:	e3a03000 	mov	r3, #0
8000073c:	e50b3008 	str	r3, [fp, #-8]
80000740:	e3a03000 	mov	r3, #0
80000744:	e54b3009 	strb	r3, [fp, #-9]
80000748:	e3a03000 	mov	r3, #0
8000074c:	e54b300a 	strb	r3, [fp, #-10]
80000750:	e3a03000 	mov	r3, #0
80000754:	e50b3008 	str	r3, [fp, #-8]
80000758:	ea000049 	b	0x80000884
8000075c:	e51b3008 	ldr	r3, [fp, #-8]
80000760:	e1a03183 	lsl	r3, r3, #3
80000764:	e283300c 	add	r3, r3, #12
80000768:	e51b2010 	ldr	r2, [fp, #-16]
8000076c:	e1a03332 	lsr	r3, r2, r3
80000770:	e6ef3073 	uxtb	r3, r3
80000774:	e3a0100a 	mov	r1, #10
80000778:	e1a00003 	mov	r0, r3
8000077c:	ebfffea2 	bl	0x8000020c
80000780:	e1a03000 	mov	r3, r0
80000784:	e54b300a 	strb	r3, [fp, #-10]
80000788:	e51b3008 	ldr	r3, [fp, #-8]
8000078c:	e2833001 	add	r3, r3, #1
80000790:	e1a03183 	lsl	r3, r3, #3
80000794:	e51b2010 	ldr	r2, [fp, #-16]
80000798:	e1a03332 	lsr	r3, r2, r3
8000079c:	e6ef3073 	uxtb	r3, r3
800007a0:	e3a0100a 	mov	r1, #10
800007a4:	e1a00003 	mov	r0, r3
800007a8:	ebfffe97 	bl	0x8000020c
800007ac:	e1a03000 	mov	r3, r0
800007b0:	e54b3009 	strb	r3, [fp, #-9]
800007b4:	e55b3009 	ldrb	r3, [fp, #-9]
800007b8:	e35300ff 	cmp	r3, #255	; 0xff
800007bc:	0a00002b 	beq	0x80000870
800007c0:	e55b300a 	ldrb	r3, [fp, #-10]
800007c4:	e35300ff 	cmp	r3, #255	; 0xff
800007c8:	0a000028 	beq	0x80000870
800007cc:	e51b3008 	ldr	r3, [fp, #-8]
800007d0:	e1a02003 	mov	r2, r3
800007d4:	e1a03103 	lsl	r3, r3, #2
800007d8:	e0423003 	sub	r3, r2, r3
800007dc:	e2833007 	add	r3, r3, #7
800007e0:	e51b2014 	ldr	r2, [fp, #-20]	; 0xffffffec
800007e4:	e0823003 	add	r3, r2, r3
800007e8:	e55b2009 	ldrb	r2, [fp, #-9]
800007ec:	e5c32000 	strb	r2, [r3]
800007f0:	e51b3008 	ldr	r3, [fp, #-8]
800007f4:	e1a02003 	mov	r2, r3
800007f8:	e1a03103 	lsl	r3, r3, #2
800007fc:	e0423003 	sub	r3, r2, r3
80000800:	e2833006 	add	r3, r3, #6
80000804:	e51b2014 	ldr	r2, [fp, #-20]	; 0xffffffec
80000808:	e0823003 	add	r3, r2, r3
8000080c:	e55b200a 	ldrb	r2, [fp, #-10]
80000810:	e5c32000 	strb	r2, [r3]
80000814:	e51b3008 	ldr	r3, [fp, #-8]
80000818:	e3530000 	cmp	r3, #0
8000081c:	1a000009 	bne	0x80000848
80000820:	e51b3008 	ldr	r3, [fp, #-8]
80000824:	e1a02003 	mov	r2, r3
80000828:	e1a03103 	lsl	r3, r3, #2
8000082c:	e0423003 	sub	r3, r2, r3
80000830:	e2833008 	add	r3, r3, #8
80000834:	e51b2014 	ldr	r2, [fp, #-20]	; 0xffffffec
80000838:	e0823003 	add	r3, r2, r3
8000083c:	e3a02000 	mov	r2, #0
80000840:	e5c32000 	strb	r2, [r3]
80000844:	ea00000b 	b	0x80000878
80000848:	e51b3008 	ldr	r3, [fp, #-8]
8000084c:	e1a02003 	mov	r2, r3
80000850:	e1a03103 	lsl	r3, r3, #2
80000854:	e0423003 	sub	r3, r2, r3
80000858:	e2833008 	add	r3, r3, #8
8000085c:	e51b2014 	ldr	r2, [fp, #-20]	; 0xffffffec
80000860:	e0823003 	add	r3, r2, r3
80000864:	e3a0202f 	mov	r2, #47	; 0x2f
80000868:	e5c32000 	strb	r2, [r3]
8000086c:	ea000001 	b	0x80000878
80000870:	e51b3008 	ldr	r3, [fp, #-8]
80000874:	ea000006 	b	0x80000894
80000878:	e51b3008 	ldr	r3, [fp, #-8]
8000087c:	e2833001 	add	r3, r3, #1
80000880:	e50b3008 	str	r3, [fp, #-8]
80000884:	e51b3008 	ldr	r3, [fp, #-8]
80000888:	e3530002 	cmp	r3, #2
8000088c:	9affffb2 	bls	0x8000075c
80000890:	e51b3008 	ldr	r3, [fp, #-8]
80000894:	e1a00003 	mov	r0, r3
80000898:	e24bd004 	sub	sp, fp, #4
8000089c:	e8bd8800 	pop	{fp, pc}
800008a0:	e92d4800 	push	{fp, lr}
800008a4:	e28db004 	add	fp, sp, #4
800008a8:	eb002590 	bl	0x80009ef0
800008ac:	e320f000 	nop	{0}
800008b0:	e8bd8800 	pop	{fp, pc}
800008b4:	e92d4800 	push	{fp, lr}
800008b8:	e28db004 	add	fp, sp, #4
800008bc:	e24dd008 	sub	sp, sp, #8
800008c0:	e1a03000 	mov	r3, r0
800008c4:	e54b3005 	strb	r3, [fp, #-5]
800008c8:	e55b3005 	ldrb	r3, [fp, #-5]
800008cc:	e3530001 	cmp	r3, #1
800008d0:	8a000004 	bhi	0x800008e8
800008d4:	e30e3b00 	movw	r3, #60160	; 0xeb00
800008d8:	e3483000 	movt	r3, #32768	; 0x8000
800008dc:	e55b2005 	ldrb	r2, [fp, #-5]
800008e0:	e5c32000 	strb	r2, [r3]
800008e4:	ea000003 	b	0x800008f8
800008e8:	e3e01000 	mvn	r1, #0
800008ec:	e30e05cc 	movw	r0, #58828	; 0xe5cc
800008f0:	e3480000 	movt	r0, #32768	; 0x8000
800008f4:	eb0025b2 	bl	0x80009fc4
800008f8:	e320f000 	nop	{0}
800008fc:	e24bd004 	sub	sp, fp, #4
80000900:	e8bd8800 	pop	{fp, pc}
80000904:	e92d000f 	push	{r0, r1, r2, r3}
80000908:	e92d4800 	push	{fp, lr}
8000090c:	e28db004 	add	fp, sp, #4
80000910:	e24dd008 	sub	sp, sp, #8
80000914:	e28b3008 	add	r3, fp, #8
80000918:	e50b3008 	str	r3, [fp, #-8]
8000091c:	e30e3b00 	movw	r3, #60160	; 0xeb00
80000920:	e3483000 	movt	r3, #32768	; 0x8000
80000924:	e5d33000 	ldrb	r3, [r3]
80000928:	e3530001 	cmp	r3, #1
8000092c:	1a000004 	bne	0x80000944
80000930:	e3e01000 	mvn	r1, #0
80000934:	e30e05f0 	movw	r0, #58864	; 0xe5f0
80000938:	e3480000 	movt	r0, #32768	; 0x8000
8000093c:	eb0025a0 	bl	0x80009fc4
80000940:	ea000002 	b	0x80000950
80000944:	e51b1008 	ldr	r1, [fp, #-8]
80000948:	e59b0004 	ldr	r0, [fp, #4]
8000094c:	eb002b5f 	bl	0x8000b6d0
80000950:	e320f000 	nop	{0}
80000954:	e24bd004 	sub	sp, fp, #4
80000958:	e8bd4800 	pop	{fp, lr}
8000095c:	e28dd010 	add	sp, sp, #16
80000960:	e12fff1e 	bx	lr
80000964:	e92d000f 	push	{r0, r1, r2, r3}
80000968:	e92d4800 	push	{fp, lr}
8000096c:	e28db004 	add	fp, sp, #4
80000970:	e24dd008 	sub	sp, sp, #8
80000974:	e3e03000 	mvn	r3, #0
80000978:	e50b3008 	str	r3, [fp, #-8]
8000097c:	e28b3008 	add	r3, fp, #8
80000980:	e50b300c 	str	r3, [fp, #-12]
80000984:	e30e3b00 	movw	r3, #60160	; 0xeb00
80000988:	e3483000 	movt	r3, #32768	; 0x8000
8000098c:	e5d33000 	ldrb	r3, [r3]
80000990:	e3530001 	cmp	r3, #1
80000994:	1a000004 	bne	0x800009ac
80000998:	e3e01000 	mvn	r1, #0
8000099c:	e30e05f0 	movw	r0, #58864	; 0xe5f0
800009a0:	e3480000 	movt	r0, #32768	; 0x8000
800009a4:	eb002586 	bl	0x80009fc4
800009a8:	ea000003 	b	0x800009bc
800009ac:	e51b100c 	ldr	r1, [fp, #-12]
800009b0:	e59b0004 	ldr	r0, [fp, #4]
800009b4:	eb00291d 	bl	0x8000ae30
800009b8:	e50b0008 	str	r0, [fp, #-8]
800009bc:	e51b3008 	ldr	r3, [fp, #-8]
800009c0:	e1a00003 	mov	r0, r3
800009c4:	e24bd004 	sub	sp, fp, #4
800009c8:	e8bd4800 	pop	{fp, lr}
800009cc:	e28dd010 	add	sp, sp, #16
800009d0:	e12fff1e 	bx	lr
800009d4:	e92d4800 	push	{fp, lr}
800009d8:	e28db004 	add	fp, sp, #4
800009dc:	e24dd010 	sub	sp, sp, #16
800009e0:	e50b0010 	str	r0, [fp, #-16]
800009e4:	e50b1014 	str	r1, [fp, #-20]	; 0xffffffec
800009e8:	e3a03000 	mov	r3, #0
800009ec:	e50b3008 	str	r3, [fp, #-8]
800009f0:	e30e3b00 	movw	r3, #60160	; 0xeb00
800009f4:	e3483000 	movt	r3, #32768	; 0x8000
800009f8:	e5d33000 	ldrb	r3, [r3]
800009fc:	e3530001 	cmp	r3, #1
80000a00:	1a000004 	bne	0x80000a18
80000a04:	e3e01000 	mvn	r1, #0
80000a08:	e30e05f0 	movw	r0, #58864	; 0xe5f0
80000a0c:	e3480000 	movt	r0, #32768	; 0x8000
80000a10:	eb00256b 	bl	0x80009fc4
80000a14:	ea000003 	b	0x80000a28
80000a18:	e51b1014 	ldr	r1, [fp, #-20]	; 0xffffffec
80000a1c:	e51b0010 	ldr	r0, [fp, #-16]
80000a20:	eb00259a 	bl	0x8000a090
80000a24:	e50b0008 	str	r0, [fp, #-8]
80000a28:	e51b3008 	ldr	r3, [fp, #-8]
80000a2c:	e1a00003 	mov	r0, r3
80000a30:	e24bd004 	sub	sp, fp, #4
80000a34:	e8bd8800 	pop	{fp, pc}
80000a38:	e92d4800 	push	{fp, lr}
80000a3c:	e28db004 	add	fp, sp, #4
80000a40:	e24dd008 	sub	sp, sp, #8
80000a44:	e50b0008 	str	r0, [fp, #-8]
80000a48:	e50b100c 	str	r1, [fp, #-12]
80000a4c:	e30e3b00 	movw	r3, #60160	; 0xeb00
80000a50:	e3483000 	movt	r3, #32768	; 0x8000
80000a54:	e5d33000 	ldrb	r3, [r3]
80000a58:	e3530001 	cmp	r3, #1
80000a5c:	1a000004 	bne	0x80000a74
80000a60:	e3e01000 	mvn	r1, #0
80000a64:	e30e05f0 	movw	r0, #58864	; 0xe5f0
80000a68:	e3480000 	movt	r0, #32768	; 0x8000
80000a6c:	eb002554 	bl	0x80009fc4
80000a70:	ea000002 	b	0x80000a80
80000a74:	e51b100c 	ldr	r1, [fp, #-12]
80000a78:	e51b0008 	ldr	r0, [fp, #-8]
80000a7c:	eb002550 	bl	0x80009fc4
80000a80:	e320f000 	nop	{0}
80000a84:	e24bd004 	sub	sp, fp, #4
80000a88:	e8bd8800 	pop	{fp, pc}
80000a8c:	e92d4800 	push	{fp, lr}
80000a90:	e28db004 	add	fp, sp, #4
80000a94:	e24dd008 	sub	sp, sp, #8
80000a98:	e3a03000 	mov	r3, #0
80000a9c:	e54b3005 	strb	r3, [fp, #-5]
80000aa0:	e3a03000 	mov	r3, #0
80000aa4:	e54b3006 	strb	r3, [fp, #-6]
80000aa8:	e30e3b00 	movw	r3, #60160	; 0xeb00
80000aac:	e3483000 	movt	r3, #32768	; 0x8000
80000ab0:	e5d33000 	ldrb	r3, [r3]
80000ab4:	e3530001 	cmp	r3, #1
80000ab8:	1a000004 	bne	0x80000ad0
80000abc:	e3e01000 	mvn	r1, #0
80000ac0:	e30e05f0 	movw	r0, #58864	; 0xe5f0
80000ac4:	e3480000 	movt	r0, #32768	; 0x8000
80000ac8:	eb00253d 	bl	0x80009fc4
80000acc:	ea00000e 	b	0x80000b0c
80000ad0:	eb00272e 	bl	0x8000a790
80000ad4:	e1a03000 	mov	r3, r0
80000ad8:	e54b3005 	strb	r3, [fp, #-5]
80000adc:	e55b3005 	ldrb	r3, [fp, #-5]
80000ae0:	e54b3006 	strb	r3, [fp, #-6]
80000ae4:	ea000002 	b	0x80000af4
80000ae8:	eb002728 	bl	0x8000a790
80000aec:	e1a03000 	mov	r3, r0
80000af0:	e54b3006 	strb	r3, [fp, #-6]
80000af4:	e55b3006 	ldrb	r3, [fp, #-6]
80000af8:	e353000a 	cmp	r3, #10
80000afc:	0a000002 	beq	0x80000b0c
80000b00:	e55b3006 	ldrb	r3, [fp, #-6]
80000b04:	e353000d 	cmp	r3, #13
80000b08:	1afffff6 	bne	0x80000ae8
80000b0c:	e55b3005 	ldrb	r3, [fp, #-5]
80000b10:	e1a00003 	mov	r0, r3
80000b14:	e24bd004 	sub	sp, fp, #4
80000b18:	e8bd8800 	pop	{fp, pc}
80000b1c:	e92d4800 	push	{fp, lr}
80000b20:	e28db004 	add	fp, sp, #4
80000b24:	e24dd008 	sub	sp, sp, #8
80000b28:	e1a03000 	mov	r3, r0
80000b2c:	e54b3005 	strb	r3, [fp, #-5]
80000b30:	e30e3b00 	movw	r3, #60160	; 0xeb00
80000b34:	e3483000 	movt	r3, #32768	; 0x8000
80000b38:	e5d33000 	ldrb	r3, [r3]
80000b3c:	e3530001 	cmp	r3, #1
80000b40:	1a000004 	bne	0x80000b58
80000b44:	e3e01000 	mvn	r1, #0
80000b48:	e30e05f0 	movw	r0, #58864	; 0xe5f0
80000b4c:	e3480000 	movt	r0, #32768	; 0x8000
80000b50:	eb00251b 	bl	0x80009fc4
80000b54:	ea000002 	b	0x80000b64
80000b58:	e55b3005 	ldrb	r3, [fp, #-5]
80000b5c:	e1a00003 	mov	r0, r3
80000b60:	eb0026ff 	bl	0x8000a764
80000b64:	e320f000 	nop	{0}
80000b68:	e24bd004 	sub	sp, fp, #4
80000b6c:	e8bd8800 	pop	{fp, pc}
80000b70:	e92d4800 	push	{fp, lr}
80000b74:	e28db004 	add	fp, sp, #4
80000b78:	e30e061c 	movw	r0, #58908	; 0xe61c
80000b7c:	e3480000 	movt	r0, #32768	; 0x8000
80000b80:	eb002ad2 	bl	0x8000b6d0
80000b84:	e3a03000 	mov	r3, #0
80000b88:	e1a00003 	mov	r0, r3
80000b8c:	e8bd8800 	pop	{fp, pc}
80000b90:	e92d4800 	push	{fp, lr}
80000b94:	e28db004 	add	fp, sp, #4
80000b98:	e24dd008 	sub	sp, sp, #8
80000b9c:	e50b0008 	str	r0, [fp, #-8]
80000ba0:	e51b3008 	ldr	r3, [fp, #-8]
80000ba4:	e3530000 	cmp	r3, #0
80000ba8:	03a03001 	moveq	r3, #1
80000bac:	13a03000 	movne	r3, #0
80000bb0:	e6ef3073 	uxtb	r3, r3
80000bb4:	e3a0203b 	mov	r2, #59	; 0x3b
80000bb8:	e30e162c 	movw	r1, #58924	; 0xe62c
80000bbc:	e3481000 	movt	r1, #32768	; 0x8000
80000bc0:	e1a00003 	mov	r0, r3
80000bc4:	eb00312f 	bl	0x8000d088
80000bc8:	e51b3008 	ldr	r3, [fp, #-8]
80000bcc:	e5933000 	ldr	r3, [r3]
80000bd0:	e5933000 	ldr	r3, [r3]
80000bd4:	e51b0008 	ldr	r0, [fp, #-8]
80000bd8:	e12fff33 	blx	r3
80000bdc:	e1a03000 	mov	r3, r0
80000be0:	e1a00003 	mov	r0, r3
80000be4:	e24bd004 	sub	sp, fp, #4
80000be8:	e8bd8800 	pop	{fp, pc}
80000bec:	e92d4800 	push	{fp, lr}
80000bf0:	e28db004 	add	fp, sp, #4
80000bf4:	e24dd010 	sub	sp, sp, #16
80000bf8:	e50b0008 	str	r0, [fp, #-8]
80000bfc:	e50b100c 	str	r1, [fp, #-12]
80000c00:	e50b2010 	str	r2, [fp, #-16]
80000c04:	e51b3008 	ldr	r3, [fp, #-8]
80000c08:	e3530000 	cmp	r3, #0
80000c0c:	03a03001 	moveq	r3, #1
80000c10:	13a03000 	movne	r3, #0
80000c14:	e6ef3073 	uxtb	r3, r3
80000c18:	e3a02046 	mov	r2, #70	; 0x46
80000c1c:	e30e162c 	movw	r1, #58924	; 0xe62c
80000c20:	e3481000 	movt	r1, #32768	; 0x8000
80000c24:	e1a00003 	mov	r0, r3
80000c28:	eb003116 	bl	0x8000d088
80000c2c:	e51b3008 	ldr	r3, [fp, #-8]
80000c30:	e5933000 	ldr	r3, [r3]
80000c34:	e5933004 	ldr	r3, [r3, #4]
80000c38:	e51b2010 	ldr	r2, [fp, #-16]
80000c3c:	e51b100c 	ldr	r1, [fp, #-12]
80000c40:	e51b0008 	ldr	r0, [fp, #-8]
80000c44:	e12fff33 	blx	r3
80000c48:	e1a03000 	mov	r3, r0
80000c4c:	e1a00003 	mov	r0, r3
80000c50:	e24bd004 	sub	sp, fp, #4
80000c54:	e8bd8800 	pop	{fp, pc}
80000c58:	e92d4800 	push	{fp, lr}
80000c5c:	e28db004 	add	fp, sp, #4
80000c60:	e30e3860 	movw	r3, #59488	; 0xe860
80000c64:	e3483000 	movt	r3, #32768	; 0x8000
80000c68:	e5933000 	ldr	r3, [r3]
80000c6c:	e3730001 	cmn	r3, #1
80000c70:	1a00002a 	bne	0x80000d20
80000c74:	e30e3860 	movw	r3, #59488	; 0xe860
80000c78:	e3483000 	movt	r3, #32768	; 0x8000
80000c7c:	e3a02000 	mov	r2, #0
80000c80:	e5832000 	str	r2, [r3]
80000c84:	ea00001a 	b	0x80000cf4
80000c88:	e30e3860 	movw	r3, #59488	; 0xe860
80000c8c:	e3483000 	movt	r3, #32768	; 0x8000
80000c90:	e5932000 	ldr	r2, [r3]
80000c94:	e30e3670 	movw	r3, #58992	; 0xe670
80000c98:	e3483000 	movt	r3, #32768	; 0x8000
80000c9c:	e3a0100c 	mov	r1, #12
80000ca0:	e0020291 	mul	r2, r1, r2
80000ca4:	e0833002 	add	r3, r3, r2
80000ca8:	e5933000 	ldr	r3, [r3]
80000cac:	e5932008 	ldr	r2, [r3, #8]
80000cb0:	e30e3860 	movw	r3, #59488	; 0xe860
80000cb4:	e3483000 	movt	r3, #32768	; 0x8000
80000cb8:	e5933000 	ldr	r3, [r3]
80000cbc:	e3a0100c 	mov	r1, #12
80000cc0:	e0010391 	mul	r1, r1, r3
80000cc4:	e30e3670 	movw	r3, #58992	; 0xe670
80000cc8:	e3483000 	movt	r3, #32768	; 0x8000
80000ccc:	e0813003 	add	r3, r1, r3
80000cd0:	e1a00003 	mov	r0, r3
80000cd4:	e12fff32 	blx	r2
80000cd8:	e30e3860 	movw	r3, #59488	; 0xe860
80000cdc:	e3483000 	movt	r3, #32768	; 0x8000
80000ce0:	e5933000 	ldr	r3, [r3]
80000ce4:	e2832001 	add	r2, r3, #1
80000ce8:	e30e3860 	movw	r3, #59488	; 0xe860
80000cec:	e3483000 	movt	r3, #32768	; 0x8000
80000cf0:	e5832000 	str	r2, [r3]
80000cf4:	e30e3860 	movw	r3, #59488	; 0xe860
80000cf8:	e3483000 	movt	r3, #32768	; 0x8000
80000cfc:	e5932000 	ldr	r2, [r3]
80000d00:	e30e3670 	movw	r3, #58992	; 0xe670
80000d04:	e3483000 	movt	r3, #32768	; 0x8000
80000d08:	e3a0100c 	mov	r1, #12
80000d0c:	e0020291 	mul	r2, r1, r2
80000d10:	e0833002 	add	r3, r3, r2
80000d14:	e5933000 	ldr	r3, [r3]
80000d18:	e3530000 	cmp	r3, #0
80000d1c:	1affffd9 	bne	0x80000c88
80000d20:	e3a03000 	mov	r3, #0
80000d24:	e1a00003 	mov	r0, r3
80000d28:	e8bd8800 	pop	{fp, pc}
80000d2c:	e92d4800 	push	{fp, lr}
80000d30:	e28db004 	add	fp, sp, #4
80000d34:	e24dd018 	sub	sp, sp, #24
80000d38:	e50b0010 	str	r0, [fp, #-16]
80000d3c:	e50b1014 	str	r1, [fp, #-20]	; 0xffffffec
80000d40:	e50b2018 	str	r2, [fp, #-24]	; 0xffffffe8
80000d44:	e3a03000 	mov	r3, #0
80000d48:	e50b3008 	str	r3, [fp, #-8]
80000d4c:	e3a02062 	mov	r2, #98	; 0x62
80000d50:	e30e162c 	movw	r1, #58924	; 0xe62c
80000d54:	e3481000 	movt	r1, #32768	; 0x8000
80000d58:	e3a00000 	mov	r0, #0
80000d5c:	eb0030c9 	bl	0x8000d088
80000d60:	e51b3010 	ldr	r3, [fp, #-16]
80000d64:	e3a0200c 	mov	r2, #12
80000d68:	e0020392 	mul	r2, r2, r3
80000d6c:	e30e3670 	movw	r3, #58992	; 0xe670
80000d70:	e3483000 	movt	r3, #32768	; 0x8000
80000d74:	e0823003 	add	r3, r2, r3
80000d78:	e5933000 	ldr	r3, [r3]
80000d7c:	e593200c 	ldr	r2, [r3, #12]
80000d80:	e51b3010 	ldr	r3, [fp, #-16]
80000d84:	e3a0100c 	mov	r1, #12
80000d88:	e0010391 	mul	r1, r1, r3
80000d8c:	e30e3670 	movw	r3, #58992	; 0xe670
80000d90:	e3483000 	movt	r3, #32768	; 0x8000
80000d94:	e0813003 	add	r3, r1, r3
80000d98:	e51b1014 	ldr	r1, [fp, #-20]	; 0xffffffec
80000d9c:	e1a00003 	mov	r0, r3
80000da0:	e12fff32 	blx	r2
80000da4:	e50b0008 	str	r0, [fp, #-8]
80000da8:	e51b3008 	ldr	r3, [fp, #-8]
80000dac:	e3530000 	cmp	r3, #0
80000db0:	1a000007 	bne	0x80000dd4
80000db4:	e51b3010 	ldr	r3, [fp, #-16]
80000db8:	e3a0200c 	mov	r2, #12
80000dbc:	e0020392 	mul	r2, r2, r3
80000dc0:	e30e3670 	movw	r3, #58992	; 0xe670
80000dc4:	e3483000 	movt	r3, #32768	; 0x8000
80000dc8:	e0822003 	add	r2, r2, r3
80000dcc:	e51b3018 	ldr	r3, [fp, #-24]	; 0xffffffe8
80000dd0:	e5832000 	str	r2, [r3]
80000dd4:	e51b3008 	ldr	r3, [fp, #-8]
80000dd8:	e1a00003 	mov	r0, r3
80000ddc:	e24bd004 	sub	sp, fp, #4
80000de0:	e8bd8800 	pop	{fp, pc}
80000de4:	e92d4800 	push	{fp, lr}
80000de8:	e28db004 	add	fp, sp, #4
80000dec:	e24dd008 	sub	sp, sp, #8
80000df0:	e50b0008 	str	r0, [fp, #-8]
80000df4:	e51b3008 	ldr	r3, [fp, #-8]
80000df8:	e3530000 	cmp	r3, #0
80000dfc:	03a03001 	moveq	r3, #1
80000e00:	13a03000 	movne	r3, #0
80000e04:	e6ef3073 	uxtb	r3, r3
80000e08:	e3a02075 	mov	r2, #117	; 0x75
80000e0c:	e30e162c 	movw	r1, #58924	; 0xe62c
80000e10:	e3481000 	movt	r1, #32768	; 0x8000
80000e14:	e1a00003 	mov	r0, r3
80000e18:	eb00309a 	bl	0x8000d088
80000e1c:	e3a02000 	mov	r2, #0
80000e20:	e51b3008 	ldr	r3, [fp, #-8]
80000e24:	e5832000 	str	r2, [r3]
80000e28:	e3a02000 	mov	r2, #0
80000e2c:	e51b3008 	ldr	r3, [fp, #-8]
80000e30:	e5832004 	str	r2, [r3, #4]
80000e34:	e3a03000 	mov	r3, #0
80000e38:	e1a00003 	mov	r0, r3
80000e3c:	e24bd004 	sub	sp, fp, #4
80000e40:	e8bd8800 	pop	{fp, pc}
80000e44:	e92d4810 	push	{r4, fp, lr}
80000e48:	e28db008 	add	fp, sp, #8
80000e4c:	e24dd014 	sub	sp, sp, #20
80000e50:	e50b0010 	str	r0, [fp, #-16]
80000e54:	e50b1014 	str	r1, [fp, #-20]	; 0xffffffec
80000e58:	e50b2018 	str	r2, [fp, #-24]	; 0xffffffe8
80000e5c:	e50b301c 	str	r3, [fp, #-28]	; 0xffffffe4
80000e60:	e51b3010 	ldr	r3, [fp, #-16]
80000e64:	e3530000 	cmp	r3, #0
80000e68:	0a000002 	beq	0x80000e78
80000e6c:	e51b3014 	ldr	r3, [fp, #-20]	; 0xffffffec
80000e70:	e3530000 	cmp	r3, #0
80000e74:	1a000001 	bne	0x80000e80
80000e78:	e3a03001 	mov	r3, #1
80000e7c:	ea000000 	b	0x80000e84
80000e80:	e3a03000 	mov	r3, #0
80000e84:	e3a02086 	mov	r2, #134	; 0x86
80000e88:	e30e162c 	movw	r1, #58924	; 0xe62c
80000e8c:	e3481000 	movt	r1, #32768	; 0x8000
80000e90:	e1a00003 	mov	r0, r3
80000e94:	eb00307b 	bl	0x8000d088
80000e98:	e51b3010 	ldr	r3, [fp, #-16]
80000e9c:	e5933000 	ldr	r3, [r3]
80000ea0:	e5934010 	ldr	r4, [r3, #16]
80000ea4:	e51b301c 	ldr	r3, [fp, #-28]	; 0xffffffe4
80000ea8:	e51b2018 	ldr	r2, [fp, #-24]	; 0xffffffe8
80000eac:	e51b1014 	ldr	r1, [fp, #-20]	; 0xffffffec
80000eb0:	e51b0010 	ldr	r0, [fp, #-16]
80000eb4:	e12fff34 	blx	r4
80000eb8:	e1a03000 	mov	r3, r0
80000ebc:	e1a00003 	mov	r0, r3
80000ec0:	e24bd008 	sub	sp, fp, #8
80000ec4:	e8bd8810 	pop	{r4, fp, pc}
80000ec8:	e92d4810 	push	{r4, fp, lr}
80000ecc:	e28db008 	add	fp, sp, #8
80000ed0:	e24dd014 	sub	sp, sp, #20
80000ed4:	e50b0010 	str	r0, [fp, #-16]
80000ed8:	e50b1014 	str	r1, [fp, #-20]	; 0xffffffec
80000edc:	e50b2018 	str	r2, [fp, #-24]	; 0xffffffe8
80000ee0:	e50b301c 	str	r3, [fp, #-28]	; 0xffffffe4
80000ee4:	e51b3010 	ldr	r3, [fp, #-16]
80000ee8:	e3530000 	cmp	r3, #0
80000eec:	0a000002 	beq	0x80000efc
80000ef0:	e51b3014 	ldr	r3, [fp, #-20]	; 0xffffffec
80000ef4:	e3530000 	cmp	r3, #0
80000ef8:	1a000001 	bne	0x80000f04
80000efc:	e3a03001 	mov	r3, #1
80000f00:	ea000000 	b	0x80000f08
80000f04:	e3a03000 	mov	r3, #0
80000f08:	e3a02094 	mov	r2, #148	; 0x94
80000f0c:	e30e162c 	movw	r1, #58924	; 0xe62c
80000f10:	e3481000 	movt	r1, #32768	; 0x8000
80000f14:	e1a00003 	mov	r0, r3
80000f18:	eb00305a 	bl	0x8000d088
80000f1c:	e51b3010 	ldr	r3, [fp, #-16]
80000f20:	e5933000 	ldr	r3, [r3]
80000f24:	e5934014 	ldr	r4, [r3, #20]
80000f28:	e51b301c 	ldr	r3, [fp, #-28]	; 0xffffffe4
80000f2c:	e51b2018 	ldr	r2, [fp, #-24]	; 0xffffffe8
80000f30:	e51b1014 	ldr	r1, [fp, #-20]	; 0xffffffec
80000f34:	e51b0010 	ldr	r0, [fp, #-16]
80000f38:	e12fff34 	blx	r4
80000f3c:	e1a03000 	mov	r3, r0
80000f40:	e1a00003 	mov	r0, r3
80000f44:	e24bd008 	sub	sp, fp, #8
80000f48:	e8bd8810 	pop	{r4, fp, pc}
80000f4c:	e52db004 	push	{fp}		; (str fp, [sp, #-4]!)
80000f50:	e28db000 	add	fp, sp, #0
80000f54:	e24dd00c 	sub	sp, sp, #12
80000f58:	e50b0008 	str	r0, [fp, #-8]
80000f5c:	e51b3008 	ldr	r3, [fp, #-8]
80000f60:	e1a00003 	mov	r0, r3
80000f64:	e28bd000 	add	sp, fp, #0
80000f68:	e49db004 	pop	{fp}		; (ldr fp, [sp], #4)
80000f6c:	e12fff1e 	bx	lr
80000f70:	e52db004 	push	{fp}		; (str fp, [sp, #-4]!)
80000f74:	e28db000 	add	fp, sp, #0
80000f78:	e24dd00c 	sub	sp, sp, #12
80000f7c:	e50b0008 	str	r0, [fp, #-8]
80000f80:	e50b100c 	str	r1, [fp, #-12]
80000f84:	e51b3008 	ldr	r3, [fp, #-8]
80000f88:	e51b200c 	ldr	r2, [fp, #-12]
80000f8c:	e5832000 	str	r2, [r3]
80000f90:	e320f000 	nop	{0}
80000f94:	e28bd000 	add	sp, fp, #0
80000f98:	e49db004 	pop	{fp}		; (ldr fp, [sp], #4)
80000f9c:	e12fff1e 	bx	lr
80000fa0:	e52db004 	push	{fp}		; (str fp, [sp, #-4]!)
80000fa4:	e28db000 	add	fp, sp, #0
80000fa8:	e24dd01c 	sub	sp, sp, #28
80000fac:	e50b0010 	str	r0, [fp, #-16]
80000fb0:	e50b1014 	str	r1, [fp, #-20]	; 0xffffffec
80000fb4:	e50b2018 	str	r2, [fp, #-24]	; 0xffffffe8
80000fb8:	e50b301c 	str	r3, [fp, #-28]	; 0xffffffe4
80000fbc:	e51b3010 	ldr	r3, [fp, #-16]
80000fc0:	e5933000 	ldr	r3, [r3]
80000fc4:	e50b3008 	str	r3, [fp, #-8]
80000fc8:	e51b3014 	ldr	r3, [fp, #-20]	; 0xffffffec
80000fcc:	e1e03003 	mvn	r3, r3
80000fd0:	e51b2008 	ldr	r2, [fp, #-8]
80000fd4:	e0033002 	and	r3, r3, r2
80000fd8:	e50b3008 	str	r3, [fp, #-8]
80000fdc:	e51b201c 	ldr	r2, [fp, #-28]	; 0xffffffe4
80000fe0:	e51b3018 	ldr	r3, [fp, #-24]	; 0xffffffe8
80000fe4:	e1a02312 	lsl	r2, r2, r3
80000fe8:	e51b3014 	ldr	r3, [fp, #-20]	; 0xffffffec
80000fec:	e0033002 	and	r3, r3, r2
80000ff0:	e51b2008 	ldr	r2, [fp, #-8]
80000ff4:	e1823003 	orr	r3, r2, r3
80000ff8:	e50b3008 	str	r3, [fp, #-8]
80000ffc:	e51b3010 	ldr	r3, [fp, #-16]
80001000:	e51b2008 	ldr	r2, [fp, #-8]
80001004:	e5832000 	str	r2, [r3]
80001008:	e320f000 	nop	{0}
8000100c:	e28bd000 	add	sp, fp, #0
80001010:	e49db004 	pop	{fp}		; (ldr fp, [sp], #4)
80001014:	e12fff1e 	bx	lr
80001018:	e92d4800 	push	{fp, lr}
8000101c:	e28db004 	add	fp, sp, #4
80001020:	e24dd040 	sub	sp, sp, #64	; 0x40
80001024:	e50b0040 	str	r0, [fp, #-64]	; 0xffffffc0
80001028:	e3e03000 	mvn	r3, #0
8000102c:	e50b3008 	str	r3, [fp, #-8]
80001030:	e3a03000 	mov	r3, #0
80001034:	e50b300c 	str	r3, [fp, #-12]
80001038:	e3a03000 	mov	r3, #0
8000103c:	e50b3010 	str	r3, [fp, #-16]
80001040:	e3a03000 	mov	r3, #0
80001044:	e50b3014 	str	r3, [fp, #-20]	; 0xffffffec
80001048:	e51b3040 	ldr	r3, [fp, #-64]	; 0xffffffc0
8000104c:	e3530000 	cmp	r3, #0
80001050:	03a03001 	moveq	r3, #1
80001054:	13a03000 	movne	r3, #0
80001058:	e6ef3073 	uxtb	r3, r3
8000105c:	e30021d5 	movw	r2, #469	; 0x1d5
80001060:	e30e1704 	movw	r1, #59140	; 0xe704
80001064:	e3481000 	movt	r1, #32768	; 0x8000
80001068:	e1a00003 	mov	r0, r3
8000106c:	eb003005 	bl	0x8000d088
80001070:	e51b3040 	ldr	r3, [fp, #-64]	; 0xffffffc0
80001074:	e5933004 	ldr	r3, [r3, #4]
80001078:	e50b3014 	str	r3, [fp, #-20]	; 0xffffffec
8000107c:	e3a03000 	mov	r3, #0
80001080:	e50b300c 	str	r3, [fp, #-12]
80001084:	e24b303c 	sub	r3, fp, #60	; 0x3c
80001088:	e3a02028 	mov	r2, #40	; 0x28
8000108c:	e3a01000 	mov	r1, #0
80001090:	e1a00003 	mov	r0, r3
80001094:	eb002bdf 	bl	0x8000c018
80001098:	e3a0300d 	mov	r3, #13
8000109c:	e50b303c 	str	r3, [fp, #-60]	; 0xffffffc4
800010a0:	e3a03c02 	mov	r3, #512	; 0x200
800010a4:	e50b3038 	str	r3, [fp, #-56]	; 0xffffffc8
800010a8:	e51b3014 	ldr	r3, [fp, #-20]	; 0xffffffec
800010ac:	e5933024 	ldr	r3, [r3, #36]	; 0x24
800010b0:	e1a03803 	lsl	r3, r3, #16
800010b4:	e50b3034 	str	r3, [fp, #-52]	; 0xffffffcc
800010b8:	e24b303c 	sub	r3, fp, #60	; 0x3c
800010bc:	e1a01003 	mov	r1, r3
800010c0:	e51b0040 	ldr	r0, [fp, #-64]	; 0xffffffc0
800010c4:	eb000b3d 	bl	0x80003dc0
800010c8:	e50b0008 	str	r0, [fp, #-8]
800010cc:	e51b300c 	ldr	r3, [fp, #-12]
800010d0:	e2833001 	add	r3, r3, #1
800010d4:	e50b300c 	str	r3, [fp, #-12]
800010d8:	e51b3024 	ldr	r3, [fp, #-36]	; 0xffffffdc
800010dc:	e1a034a3 	lsr	r3, r3, #9
800010e0:	e203300f 	and	r3, r3, #15
800010e4:	e50b3010 	str	r3, [fp, #-16]
800010e8:	e51b3010 	ldr	r3, [fp, #-16]
800010ec:	e3530004 	cmp	r3, #4
800010f0:	1a000002 	bne	0x80001100
800010f4:	e3a03000 	mov	r3, #0
800010f8:	e50b3008 	str	r3, [fp, #-8]
800010fc:	ea000003 	b	0x80001110
80001100:	e51b300c 	ldr	r3, [fp, #-12]
80001104:	e302270f 	movw	r2, #9999	; 0x270f
80001108:	e1530002 	cmp	r3, r2
8000110c:	9affffdc 	bls	0x80001084
80001110:	e51b3008 	ldr	r3, [fp, #-8]
80001114:	e1a00003 	mov	r0, r3
80001118:	e24bd004 	sub	sp, fp, #4
8000111c:	e8bd8800 	pop	{fp, pc}
80001120:	e92d4800 	push	{fp, lr}
80001124:	e28db004 	add	fp, sp, #4
80001128:	e24dd048 	sub	sp, sp, #72	; 0x48
8000112c:	e50b0040 	str	r0, [fp, #-64]	; 0xffffffc0
80001130:	e50b1044 	str	r1, [fp, #-68]	; 0xffffffbc
80001134:	e50b2048 	str	r2, [fp, #-72]	; 0xffffffb8
80001138:	e50b304c 	str	r3, [fp, #-76]	; 0xffffffb4
8000113c:	e3e03000 	mvn	r3, #0
80001140:	e50b3008 	str	r3, [fp, #-8]
80001144:	e3a03000 	mov	r3, #0
80001148:	e50b300c 	str	r3, [fp, #-12]
8000114c:	e3a03000 	mov	r3, #0
80001150:	e50b3010 	str	r3, [fp, #-16]
80001154:	e51b3040 	ldr	r3, [fp, #-64]	; 0xffffffc0
80001158:	e3530000 	cmp	r3, #0
8000115c:	0a000002 	beq	0x8000116c
80001160:	e51b3044 	ldr	r3, [fp, #-68]	; 0xffffffbc
80001164:	e3530000 	cmp	r3, #0
80001168:	1a000001 	bne	0x80001174
8000116c:	e3a03001 	mov	r3, #1
80001170:	ea000000 	b	0x80001178
80001174:	e3a03000 	mov	r3, #0
80001178:	e3002201 	movw	r2, #513	; 0x201
8000117c:	e30e1704 	movw	r1, #59140	; 0xe704
80001180:	e3481000 	movt	r1, #32768	; 0x8000
80001184:	e1a00003 	mov	r0, r3
80001188:	eb002fbe 	bl	0x8000d088
8000118c:	e51b3040 	ldr	r3, [fp, #-64]	; 0xffffffc0
80001190:	e5933004 	ldr	r3, [r3, #4]
80001194:	e50b3010 	str	r3, [fp, #-16]
80001198:	e51b3010 	ldr	r3, [fp, #-16]
8000119c:	e51b2044 	ldr	r2, [fp, #-68]	; 0xffffffbc
800011a0:	e5832298 	str	r2, [r3, #664]	; 0x298
800011a4:	e51b3010 	ldr	r3, [fp, #-16]
800011a8:	e51b204c 	ldr	r2, [fp, #-76]	; 0xffffffb4
800011ac:	e583229c 	str	r2, [r3, #668]	; 0x29c
800011b0:	eb002bf5 	bl	0x8000c18c
800011b4:	e50b0014 	str	r0, [fp, #-20]	; 0xffffffec
800011b8:	e51b3040 	ldr	r3, [fp, #-64]	; 0xffffffc0
800011bc:	e5933004 	ldr	r3, [r3, #4]
800011c0:	e59332a8 	ldr	r3, [r3, #680]	; 0x2a8
800011c4:	e3530000 	cmp	r3, #0
800011c8:	0a000001 	beq	0x800011d4
800011cc:	e3a03000 	mov	r3, #0
800011d0:	e50b3008 	str	r3, [fp, #-8]
800011d4:	e51b0014 	ldr	r0, [fp, #-20]	; 0xffffffec
800011d8:	eb002c25 	bl	0x8000c274
800011dc:	e51b3008 	ldr	r3, [fp, #-8]
800011e0:	e3530000 	cmp	r3, #0
800011e4:	1a000002 	bne	0x800011f4
800011e8:	e51b0040 	ldr	r0, [fp, #-64]	; 0xffffffc0
800011ec:	ebffff89 	bl	0x80001018
800011f0:	e50b0008 	str	r0, [fp, #-8]
800011f4:	e51b3008 	ldr	r3, [fp, #-8]
800011f8:	e3530000 	cmp	r3, #0
800011fc:	1a000026 	bne	0x8000129c
80001200:	e51b3010 	ldr	r3, [fp, #-16]
80001204:	e5d33257 	ldrb	r3, [r3, #599]	; 0x257
80001208:	e3530000 	cmp	r3, #0
8000120c:	0a000002 	beq	0x8000121c
80001210:	e51b3048 	ldr	r3, [fp, #-72]	; 0xffffffb8
80001214:	e50b300c 	str	r3, [fp, #-12]
80001218:	ea000004 	b	0x80001230
8000121c:	e51b3010 	ldr	r3, [fp, #-16]
80001220:	e593325c 	ldr	r3, [r3, #604]	; 0x25c
80001224:	e51b2048 	ldr	r2, [fp, #-72]	; 0xffffffb8
80001228:	e0030392 	mul	r3, r2, r3
8000122c:	e50b300c 	str	r3, [fp, #-12]
80001230:	e3a03d05 	mov	r3, #320	; 0x140
80001234:	e50b3038 	str	r3, [fp, #-56]	; 0xffffffc8
80001238:	e51b300c 	ldr	r3, [fp, #-12]
8000123c:	e50b3034 	str	r3, [fp, #-52]	; 0xffffffcc
80001240:	e51b304c 	ldr	r3, [fp, #-76]	; 0xffffffb4
80001244:	e50b3028 	str	r3, [fp, #-40]	; 0xffffffd8
80001248:	e51b3010 	ldr	r3, [fp, #-16]
8000124c:	e593325c 	ldr	r3, [r3, #604]	; 0x25c
80001250:	e50b302c 	str	r3, [fp, #-44]	; 0xffffffd4
80001254:	e51b3044 	ldr	r3, [fp, #-68]	; 0xffffffbc
80001258:	e50b3030 	str	r3, [fp, #-48]	; 0xffffffd0
8000125c:	e51b304c 	ldr	r3, [fp, #-76]	; 0xffffffb4
80001260:	e3530001 	cmp	r3, #1
80001264:	9a000005 	bls	0x80001280
80001268:	e3a03019 	mov	r3, #25
8000126c:	e50b303c 	str	r3, [fp, #-60]	; 0xffffffc4
80001270:	e51b3038 	ldr	r3, [fp, #-56]	; 0xffffffc8
80001274:	e3833008 	orr	r3, r3, #8
80001278:	e50b3038 	str	r3, [fp, #-56]	; 0xffffffc8
8000127c:	ea000001 	b	0x80001288
80001280:	e3a03018 	mov	r3, #24
80001284:	e50b303c 	str	r3, [fp, #-60]	; 0xffffffc4
80001288:	e24b303c 	sub	r3, fp, #60	; 0x3c
8000128c:	e1a01003 	mov	r1, r3
80001290:	e51b0040 	ldr	r0, [fp, #-64]	; 0xffffffc0
80001294:	eb000ac9 	bl	0x80003dc0
80001298:	e50b0008 	str	r0, [fp, #-8]
8000129c:	e51b3008 	ldr	r3, [fp, #-8]
800012a0:	e3530000 	cmp	r3, #0
800012a4:	1a000012 	bne	0x800012f4
800012a8:	e51b3028 	ldr	r3, [fp, #-40]	; 0xffffffd8
800012ac:	e3530001 	cmp	r3, #1
800012b0:	9a00000f 	bls	0x800012f4
800012b4:	e24b303c 	sub	r3, fp, #60	; 0x3c
800012b8:	e3a02028 	mov	r2, #40	; 0x28
800012bc:	e3a01000 	mov	r1, #0
800012c0:	e1a00003 	mov	r0, r3
800012c4:	eb002b53 	bl	0x8000c018
800012c8:	e3a0300c 	mov	r3, #12
800012cc:	e50b303c 	str	r3, [fp, #-60]	; 0xffffffc4
800012d0:	e3a03010 	mov	r3, #16
800012d4:	e50b3038 	str	r3, [fp, #-56]	; 0xffffffc8
800012d8:	e3a03000 	mov	r3, #0
800012dc:	e50b3034 	str	r3, [fp, #-52]	; 0xffffffcc
800012e0:	e24b303c 	sub	r3, fp, #60	; 0x3c
800012e4:	e1a01003 	mov	r1, r3
800012e8:	e51b0040 	ldr	r0, [fp, #-64]	; 0xffffffc0
800012ec:	eb000ab3 	bl	0x80003dc0
800012f0:	e50b0008 	str	r0, [fp, #-8]
800012f4:	e51b3008 	ldr	r3, [fp, #-8]
800012f8:	e1a00003 	mov	r0, r3
800012fc:	e24bd004 	sub	sp, fp, #4
80001300:	e8bd8800 	pop	{fp, pc}
80001304:	e92d4800 	push	{fp, lr}
80001308:	e28db004 	add	fp, sp, #4
8000130c:	e24dd048 	sub	sp, sp, #72	; 0x48
80001310:	e50b0040 	str	r0, [fp, #-64]	; 0xffffffc0
80001314:	e50b1044 	str	r1, [fp, #-68]	; 0xffffffbc
80001318:	e50b2048 	str	r2, [fp, #-72]	; 0xffffffb8
8000131c:	e50b304c 	str	r3, [fp, #-76]	; 0xffffffb4
80001320:	e3e03000 	mvn	r3, #0
80001324:	e50b3008 	str	r3, [fp, #-8]
80001328:	e3a03000 	mov	r3, #0
8000132c:	e50b300c 	str	r3, [fp, #-12]
80001330:	e3a03000 	mov	r3, #0
80001334:	e50b3010 	str	r3, [fp, #-16]
80001338:	e51b3040 	ldr	r3, [fp, #-64]	; 0xffffffc0
8000133c:	e3530000 	cmp	r3, #0
80001340:	0a000002 	beq	0x80001350
80001344:	e51b3044 	ldr	r3, [fp, #-68]	; 0xffffffbc
80001348:	e3530000 	cmp	r3, #0
8000134c:	1a000001 	bne	0x80001358
80001350:	e3a03001 	mov	r3, #1
80001354:	ea000000 	b	0x8000135c
80001358:	e3a03000 	mov	r3, #0
8000135c:	e300225b 	movw	r2, #603	; 0x25b
80001360:	e30e1704 	movw	r1, #59140	; 0xe704
80001364:	e3481000 	movt	r1, #32768	; 0x8000
80001368:	e1a00003 	mov	r0, r3
8000136c:	eb002f45 	bl	0x8000d088
80001370:	e51b3040 	ldr	r3, [fp, #-64]	; 0xffffffc0
80001374:	e5933004 	ldr	r3, [r3, #4]
80001378:	e50b3010 	str	r3, [fp, #-16]
8000137c:	e51b3010 	ldr	r3, [fp, #-16]
80001380:	e51b2044 	ldr	r2, [fp, #-68]	; 0xffffffbc
80001384:	e58322a0 	str	r2, [r3, #672]	; 0x2a0
80001388:	e51b3010 	ldr	r3, [fp, #-16]
8000138c:	e51b204c 	ldr	r2, [fp, #-76]	; 0xffffffb4
80001390:	e58322a4 	str	r2, [r3, #676]	; 0x2a4
80001394:	eb002b7c 	bl	0x8000c18c
80001398:	e50b0014 	str	r0, [fp, #-20]	; 0xffffffec
8000139c:	e51b3040 	ldr	r3, [fp, #-64]	; 0xffffffc0
800013a0:	e5933004 	ldr	r3, [r3, #4]
800013a4:	e59332a8 	ldr	r3, [r3, #680]	; 0x2a8
800013a8:	e3530000 	cmp	r3, #0
800013ac:	0a000001 	beq	0x800013b8
800013b0:	e3a03000 	mov	r3, #0
800013b4:	e50b3008 	str	r3, [fp, #-8]
800013b8:	e51b0014 	ldr	r0, [fp, #-20]	; 0xffffffec
800013bc:	eb002bac 	bl	0x8000c274
800013c0:	e51b3008 	ldr	r3, [fp, #-8]
800013c4:	e3530000 	cmp	r3, #0
800013c8:	1a000002 	bne	0x800013d8
800013cc:	e51b0040 	ldr	r0, [fp, #-64]	; 0xffffffc0
800013d0:	ebffff10 	bl	0x80001018
800013d4:	e50b0008 	str	r0, [fp, #-8]
800013d8:	e51b3008 	ldr	r3, [fp, #-8]
800013dc:	e3530000 	cmp	r3, #0
800013e0:	1a000026 	bne	0x80001480
800013e4:	e51b3010 	ldr	r3, [fp, #-16]
800013e8:	e5d33257 	ldrb	r3, [r3, #599]	; 0x257
800013ec:	e3530000 	cmp	r3, #0
800013f0:	0a000002 	beq	0x80001400
800013f4:	e51b3048 	ldr	r3, [fp, #-72]	; 0xffffffb8
800013f8:	e50b300c 	str	r3, [fp, #-12]
800013fc:	ea000004 	b	0x80001414
80001400:	e51b3010 	ldr	r3, [fp, #-16]
80001404:	e593325c 	ldr	r3, [r3, #604]	; 0x25c
80001408:	e51b2048 	ldr	r2, [fp, #-72]	; 0xffffffb8
8000140c:	e0030392 	mul	r3, r2, r3
80001410:	e50b300c 	str	r3, [fp, #-12]
80001414:	e3a030c0 	mov	r3, #192	; 0xc0
80001418:	e50b3038 	str	r3, [fp, #-56]	; 0xffffffc8
8000141c:	e51b300c 	ldr	r3, [fp, #-12]
80001420:	e50b3034 	str	r3, [fp, #-52]	; 0xffffffcc
80001424:	e51b304c 	ldr	r3, [fp, #-76]	; 0xffffffb4
80001428:	e50b3028 	str	r3, [fp, #-40]	; 0xffffffd8
8000142c:	e51b3010 	ldr	r3, [fp, #-16]
80001430:	e593325c 	ldr	r3, [r3, #604]	; 0x25c
80001434:	e50b302c 	str	r3, [fp, #-44]	; 0xffffffd4
80001438:	e51b3044 	ldr	r3, [fp, #-68]	; 0xffffffbc
8000143c:	e50b3030 	str	r3, [fp, #-48]	; 0xffffffd0
80001440:	e51b304c 	ldr	r3, [fp, #-76]	; 0xffffffb4
80001444:	e3530001 	cmp	r3, #1
80001448:	9a000005 	bls	0x80001464
8000144c:	e3a03012 	mov	r3, #18
80001450:	e50b303c 	str	r3, [fp, #-60]	; 0xffffffc4
80001454:	e51b3038 	ldr	r3, [fp, #-56]	; 0xffffffc8
80001458:	e3833008 	orr	r3, r3, #8
8000145c:	e50b3038 	str	r3, [fp, #-56]	; 0xffffffc8
80001460:	ea000001 	b	0x8000146c
80001464:	e3a03011 	mov	r3, #17
80001468:	e50b303c 	str	r3, [fp, #-60]	; 0xffffffc4
8000146c:	e24b303c 	sub	r3, fp, #60	; 0x3c
80001470:	e1a01003 	mov	r1, r3
80001474:	e51b0040 	ldr	r0, [fp, #-64]	; 0xffffffc0
80001478:	eb000a50 	bl	0x80003dc0
8000147c:	e50b0008 	str	r0, [fp, #-8]
80001480:	e51b3008 	ldr	r3, [fp, #-8]
80001484:	e3530000 	cmp	r3, #0
80001488:	1a000012 	bne	0x800014d8
8000148c:	e51b3028 	ldr	r3, [fp, #-40]	; 0xffffffd8
80001490:	e3530001 	cmp	r3, #1
80001494:	9a00000f 	bls	0x800014d8
80001498:	e24b303c 	sub	r3, fp, #60	; 0x3c
8000149c:	e3a02028 	mov	r2, #40	; 0x28
800014a0:	e3a01000 	mov	r1, #0
800014a4:	e1a00003 	mov	r0, r3
800014a8:	eb002ada 	bl	0x8000c018
800014ac:	e3a0300c 	mov	r3, #12
800014b0:	e50b303c 	str	r3, [fp, #-60]	; 0xffffffc4
800014b4:	e3a03010 	mov	r3, #16
800014b8:	e50b3038 	str	r3, [fp, #-56]	; 0xffffffc8
800014bc:	e3a03000 	mov	r3, #0
800014c0:	e50b3034 	str	r3, [fp, #-52]	; 0xffffffcc
800014c4:	e24b303c 	sub	r3, fp, #60	; 0x3c
800014c8:	e1a01003 	mov	r1, r3
800014cc:	e51b0040 	ldr	r0, [fp, #-64]	; 0xffffffc0
800014d0:	eb000a3a 	bl	0x80003dc0
800014d4:	e50b0008 	str	r0, [fp, #-8]
800014d8:	e51b3008 	ldr	r3, [fp, #-8]
800014dc:	e1a00003 	mov	r0, r3
800014e0:	e24bd004 	sub	sp, fp, #4
800014e4:	e8bd8800 	pop	{fp, pc}
800014e8:	e92d4800 	push	{fp, lr}
800014ec:	e28db004 	add	fp, sp, #4
800014f0:	e24dd018 	sub	sp, sp, #24
800014f4:	e50b0018 	str	r0, [fp, #-24]	; 0xffffffe8
800014f8:	e3a03000 	mov	r3, #0
800014fc:	e50b300c 	str	r3, [fp, #-12]
80001500:	e3a03000 	mov	r3, #0
80001504:	e50b3010 	str	r3, [fp, #-16]
80001508:	e3a03000 	mov	r3, #0
8000150c:	e50b3008 	str	r3, [fp, #-8]
80001510:	e51b3018 	ldr	r3, [fp, #-24]	; 0xffffffe8
80001514:	e3530000 	cmp	r3, #0
80001518:	03a03001 	moveq	r3, #1
8000151c:	13a03000 	movne	r3, #0
80001520:	e6ef3073 	uxtb	r3, r3
80001524:	e30022ad 	movw	r2, #685	; 0x2ad
80001528:	e30e1704 	movw	r1, #59140	; 0xe704
8000152c:	e3481000 	movt	r1, #32768	; 0x8000
80001530:	e1a00003 	mov	r0, r3
80001534:	eb002ed3 	bl	0x8000d088
80001538:	e51b3018 	ldr	r3, [fp, #-24]	; 0xffffffe8
8000153c:	e5933004 	ldr	r3, [r3, #4]
80001540:	e50b300c 	str	r3, [fp, #-12]
80001544:	e51b3018 	ldr	r3, [fp, #-24]	; 0xffffffe8
80001548:	e5933008 	ldr	r3, [r3, #8]
8000154c:	e50b3010 	str	r3, [fp, #-16]
80001550:	e51b3010 	ldr	r3, [fp, #-16]
80001554:	e5933028 	ldr	r3, [r3, #40]	; 0x28
80001558:	e3530000 	cmp	r3, #0
8000155c:	0a000006 	beq	0x8000157c
80001560:	e51b300c 	ldr	r3, [fp, #-12]
80001564:	e5932014 	ldr	r2, [r3, #20]
80001568:	e51b3010 	ldr	r3, [fp, #-16]
8000156c:	e593300c 	ldr	r3, [r3, #12]
80001570:	e1a01003 	mov	r1, r3
80001574:	e1a00002 	mov	r0, r2
80001578:	eb002d52 	bl	0x8000cac8
8000157c:	e51b300c 	ldr	r3, [fp, #-12]
80001580:	e5d33259 	ldrb	r3, [r3, #601]	; 0x259
80001584:	e3530000 	cmp	r3, #0
80001588:	0a00000b 	beq	0x800015bc
8000158c:	e51b3010 	ldr	r3, [fp, #-16]
80001590:	e5933030 	ldr	r3, [r3, #48]	; 0x30
80001594:	e3530000 	cmp	r3, #0
80001598:	0a000007 	beq	0x800015bc
8000159c:	e51b3010 	ldr	r3, [fp, #-16]
800015a0:	e5933030 	ldr	r3, [r3, #48]	; 0x30
800015a4:	e51b2010 	ldr	r2, [fp, #-16]
800015a8:	e5922000 	ldr	r2, [r2]
800015ac:	e3a01002 	mov	r1, #2
800015b0:	e1a00002 	mov	r0, r2
800015b4:	e12fff33 	blx	r3
800015b8:	e50b0008 	str	r0, [fp, #-8]
800015bc:	e51b300c 	ldr	r3, [fp, #-12]
800015c0:	e5933000 	ldr	r3, [r3]
800015c4:	e1a00003 	mov	r0, r3
800015c8:	eb002df3 	bl	0x8000cd9c
800015cc:	e51b300c 	ldr	r3, [fp, #-12]
800015d0:	e5933004 	ldr	r3, [r3, #4]
800015d4:	e1a00003 	mov	r0, r3
800015d8:	eb002def 	bl	0x8000cd9c
800015dc:	e51b300c 	ldr	r3, [fp, #-12]
800015e0:	e5933008 	ldr	r3, [r3, #8]
800015e4:	e1a00003 	mov	r0, r3
800015e8:	eb002deb 	bl	0x8000cd9c
800015ec:	e51b300c 	ldr	r3, [fp, #-12]
800015f0:	e593300c 	ldr	r3, [r3, #12]
800015f4:	e1a00003 	mov	r0, r3
800015f8:	eb002de7 	bl	0x8000cd9c
800015fc:	e51b300c 	ldr	r3, [fp, #-12]
80001600:	e5933010 	ldr	r3, [r3, #16]
80001604:	e1a00003 	mov	r0, r3
80001608:	eb002de3 	bl	0x8000cd9c
8000160c:	e3a02fae 	mov	r2, #696	; 0x2b8
80001610:	e3a01000 	mov	r1, #0
80001614:	e51b000c 	ldr	r0, [fp, #-12]
80001618:	eb002a7e 	bl	0x8000c018
8000161c:	e51b3008 	ldr	r3, [fp, #-8]
80001620:	e1a00003 	mov	r0, r3
80001624:	e24bd004 	sub	sp, fp, #4
80001628:	e8bd8800 	pop	{fp, pc}
8000162c:	e92d4800 	push	{fp, lr}
80001630:	e28db004 	add	fp, sp, #4
80001634:	e24dd008 	sub	sp, sp, #8
80001638:	e50b0008 	str	r0, [fp, #-8]
8000163c:	e51b3008 	ldr	r3, [fp, #-8]
80001640:	e3530000 	cmp	r3, #0
80001644:	03a03001 	moveq	r3, #1
80001648:	13a03000 	movne	r3, #0
8000164c:	e6ef3073 	uxtb	r3, r3
80001650:	e30022e2 	movw	r2, #738	; 0x2e2
80001654:	e30e1704 	movw	r1, #59140	; 0xe704
80001658:	e3481000 	movt	r1, #32768	; 0x8000
8000165c:	e1a00003 	mov	r0, r3
80001660:	eb002e88 	bl	0x8000d088
80001664:	e51b3008 	ldr	r3, [fp, #-8]
80001668:	e5933004 	ldr	r3, [r3, #4]
8000166c:	e3a02000 	mov	r2, #0
80001670:	e58322a8 	str	r2, [r3, #680]	; 0x2a8
80001674:	e3a03000 	mov	r3, #0
80001678:	e1a00003 	mov	r0, r3
8000167c:	e24bd004 	sub	sp, fp, #4
80001680:	e8bd8800 	pop	{fp, pc}
80001684:	e92d4800 	push	{fp, lr}
80001688:	e28db004 	add	fp, sp, #4
8000168c:	e24dd070 	sub	sp, sp, #112	; 0x70
80001690:	e50b0070 	str	r0, [fp, #-112]	; 0xffffff90
80001694:	e50b1074 	str	r1, [fp, #-116]	; 0xffffff8c
80001698:	e3a03000 	mov	r3, #0
8000169c:	e50b3008 	str	r3, [fp, #-8]
800016a0:	e3a03000 	mov	r3, #0
800016a4:	e50b300c 	str	r3, [fp, #-12]
800016a8:	e3a03000 	mov	r3, #0
800016ac:	e50b3010 	str	r3, [fp, #-16]
800016b0:	e51b3070 	ldr	r3, [fp, #-112]	; 0xffffff90
800016b4:	e3530000 	cmp	r3, #0
800016b8:	03a03001 	moveq	r3, #1
800016bc:	13a03000 	movne	r3, #0
800016c0:	e6ef3073 	uxtb	r3, r3
800016c4:	e3a02c03 	mov	r2, #768	; 0x300
800016c8:	e30e1704 	movw	r1, #59140	; 0xe704
800016cc:	e3481000 	movt	r1, #32768	; 0x8000
800016d0:	e1a00003 	mov	r0, r3
800016d4:	eb002e6b 	bl	0x8000d088
800016d8:	e51b3070 	ldr	r3, [fp, #-112]	; 0xffffff90
800016dc:	e5933004 	ldr	r3, [r3, #4]
800016e0:	e50b300c 	str	r3, [fp, #-12]
800016e4:	e51b3070 	ldr	r3, [fp, #-112]	; 0xffffff90
800016e8:	e5933008 	ldr	r3, [r3, #8]
800016ec:	e50b3010 	str	r3, [fp, #-16]
800016f0:	eb002aa5 	bl	0x8000c18c
800016f4:	e50b0014 	str	r0, [fp, #-20]	; 0xffffffec
800016f8:	e51b3070 	ldr	r3, [fp, #-112]	; 0xffffff90
800016fc:	e5933004 	ldr	r3, [r3, #4]
80001700:	e59332a8 	ldr	r3, [r3, #680]	; 0x2a8
80001704:	e3530000 	cmp	r3, #0
80001708:	0a000001 	beq	0x80001714
8000170c:	e3e03000 	mvn	r3, #0
80001710:	e50b3008 	str	r3, [fp, #-8]
80001714:	e51b0014 	ldr	r0, [fp, #-20]	; 0xffffffec
80001718:	eb002ad5 	bl	0x8000c274
8000171c:	e51b3008 	ldr	r3, [fp, #-8]
80001720:	e3530000 	cmp	r3, #0
80001724:	1a00000b 	bne	0x80001758
80001728:	e51b3074 	ldr	r3, [fp, #-116]	; 0xffffff8c
8000172c:	e3530000 	cmp	r3, #0
80001730:	1a000004 	bne	0x80001748
80001734:	e51b300c 	ldr	r3, [fp, #-12]
80001738:	e2833e27 	add	r3, r3, #624	; 0x270
8000173c:	e1a00003 	mov	r0, r3
80001740:	ebfffda7 	bl	0x80000de4
80001744:	ea000003 	b	0x80001758
80001748:	e51b3074 	ldr	r3, [fp, #-116]	; 0xffffff8c
8000174c:	e5932000 	ldr	r2, [r3]
80001750:	e51b300c 	ldr	r3, [fp, #-12]
80001754:	e5832270 	str	r2, [r3, #624]	; 0x270
80001758:	e51b3008 	ldr	r3, [fp, #-8]
8000175c:	e3530000 	cmp	r3, #0
80001760:	1a000068 	bne	0x80001908
80001764:	e51b3010 	ldr	r3, [fp, #-16]
80001768:	e5933028 	ldr	r3, [r3, #40]	; 0x28
8000176c:	e3530000 	cmp	r3, #0
80001770:	0a00003c 	beq	0x80001868
80001774:	e24b304c 	sub	r3, fp, #76	; 0x4c
80001778:	e1a00003 	mov	r0, r3
8000177c:	eb002c73 	bl	0x8000c950
80001780:	e51b3010 	ldr	r3, [fp, #-16]
80001784:	e593305c 	ldr	r3, [r3, #92]	; 0x5c
80001788:	e3730001 	cmn	r3, #1
8000178c:	0a000017 	beq	0x800017f0
80001790:	e51b3070 	ldr	r3, [fp, #-112]	; 0xffffff90
80001794:	e50b3060 	str	r3, [fp, #-96]	; 0xffffffa0
80001798:	e51b3010 	ldr	r3, [fp, #-16]
8000179c:	e593305c 	ldr	r3, [r3, #92]	; 0x5c
800017a0:	e50b305c 	str	r3, [fp, #-92]	; 0xffffffa4
800017a4:	e51b3010 	ldr	r3, [fp, #-16]
800017a8:	e5933060 	ldr	r3, [r3, #96]	; 0x60
800017ac:	e50b3058 	str	r3, [fp, #-88]	; 0xffffffa8
800017b0:	e51b3010 	ldr	r3, [fp, #-16]
800017b4:	e5933064 	ldr	r3, [r3, #100]	; 0x64
800017b8:	e50b3054 	str	r3, [fp, #-84]	; 0xffffffac
800017bc:	e3043c48 	movw	r3, #19528	; 0x4c48
800017c0:	e3483000 	movt	r3, #32768	; 0x8000
800017c4:	e50b3050 	str	r3, [fp, #-80]	; 0xffffffb0
800017c8:	e24b206c 	sub	r2, fp, #108	; 0x6c
800017cc:	e24b3060 	sub	r3, fp, #96	; 0x60
800017d0:	e1a01002 	mov	r1, r2
800017d4:	e1a00003 	mov	r0, r3
800017d8:	eb002aae 	bl	0x8000c298
800017dc:	e51b3064 	ldr	r3, [fp, #-100]	; 0xffffff9c
800017e0:	e50b3040 	str	r3, [fp, #-64]	; 0xffffffc0
800017e4:	e51b306c 	ldr	r3, [fp, #-108]	; 0xffffff94
800017e8:	e50b303c 	str	r3, [fp, #-60]	; 0xffffffc4
800017ec:	ea000004 	b	0x80001804
800017f0:	e3043c48 	movw	r3, #19528	; 0x4c48
800017f4:	e3483000 	movt	r3, #32768	; 0x8000
800017f8:	e50b3040 	str	r3, [fp, #-64]	; 0xffffffc0
800017fc:	e51b3070 	ldr	r3, [fp, #-112]	; 0xffffff90
80001800:	e50b303c 	str	r3, [fp, #-60]	; 0xffffffc4
80001804:	e3a03000 	mov	r3, #0
80001808:	e50b304c 	str	r3, [fp, #-76]	; 0xffffffb4
8000180c:	e3a03020 	mov	r3, #32
80001810:	e50b3038 	str	r3, [fp, #-56]	; 0xffffffc8
80001814:	e3a03003 	mov	r3, #3
80001818:	e50b3034 	str	r3, [fp, #-52]	; 0xffffffcc
8000181c:	e51b3010 	ldr	r3, [fp, #-16]
80001820:	e593300c 	ldr	r3, [r3, #12]
80001824:	e50b3048 	str	r3, [fp, #-72]	; 0xffffffb8
80001828:	e51b3010 	ldr	r3, [fp, #-16]
8000182c:	e5933008 	ldr	r3, [r3, #8]
80001830:	e50b3044 	str	r3, [fp, #-68]	; 0xffffffbc
80001834:	e51b300c 	ldr	r3, [fp, #-12]
80001838:	e2832014 	add	r2, r3, #20
8000183c:	e24b304c 	sub	r3, fp, #76	; 0x4c
80001840:	e1a01002 	mov	r1, r2
80001844:	e1a00003 	mov	r0, r3
80001848:	eb002c67 	bl	0x8000c9ec
8000184c:	e1a03000 	mov	r3, r0
80001850:	e54b3015 	strb	r3, [fp, #-21]	; 0xffffffeb
80001854:	e15b31d5 	ldrsb	r3, [fp, #-21]	; 0xffffffeb
80001858:	e3530000 	cmp	r3, #0
8000185c:	0a000001 	beq	0x80001868
80001860:	e3e03000 	mvn	r3, #0
80001864:	e50b3008 	str	r3, [fp, #-8]
80001868:	e24b3028 	sub	r3, fp, #40	; 0x28
8000186c:	e1a00003 	mov	r0, r3
80001870:	eb002d70 	bl	0x8000ce38
80001874:	e3a03001 	mov	r3, #1
80001878:	e54b3024 	strb	r3, [fp, #-36]	; 0xffffffdc
8000187c:	e24b3028 	sub	r3, fp, #40	; 0x28
80001880:	e1a01003 	mov	r1, r3
80001884:	e3a00001 	mov	r0, #1
80001888:	eb002ccb 	bl	0x8000cbbc
8000188c:	e1a02000 	mov	r2, r0
80001890:	e51b300c 	ldr	r3, [fp, #-12]
80001894:	e5832000 	str	r2, [r3]
80001898:	e24b3028 	sub	r3, fp, #40	; 0x28
8000189c:	e1a01003 	mov	r1, r3
800018a0:	e3a00001 	mov	r0, #1
800018a4:	eb002cc4 	bl	0x8000cbbc
800018a8:	e1a02000 	mov	r2, r0
800018ac:	e51b300c 	ldr	r3, [fp, #-12]
800018b0:	e5832004 	str	r2, [r3, #4]
800018b4:	e24b3028 	sub	r3, fp, #40	; 0x28
800018b8:	e1a01003 	mov	r1, r3
800018bc:	e3a00000 	mov	r0, #0
800018c0:	eb002cbd 	bl	0x8000cbbc
800018c4:	e1a02000 	mov	r2, r0
800018c8:	e51b300c 	ldr	r3, [fp, #-12]
800018cc:	e5832008 	str	r2, [r3, #8]
800018d0:	e24b3028 	sub	r3, fp, #40	; 0x28
800018d4:	e1a01003 	mov	r1, r3
800018d8:	e3a00000 	mov	r0, #0
800018dc:	eb002cb6 	bl	0x8000cbbc
800018e0:	e1a02000 	mov	r2, r0
800018e4:	e51b300c 	ldr	r3, [fp, #-12]
800018e8:	e583200c 	str	r2, [r3, #12]
800018ec:	e24b3028 	sub	r3, fp, #40	; 0x28
800018f0:	e1a01003 	mov	r1, r3
800018f4:	e3a00000 	mov	r0, #0
800018f8:	eb002caf 	bl	0x8000cbbc
800018fc:	e1a02000 	mov	r2, r0
80001900:	e51b300c 	ldr	r3, [fp, #-12]
80001904:	e5832010 	str	r2, [r3, #16]
80001908:	e51b3010 	ldr	r3, [fp, #-16]
8000190c:	e5933034 	ldr	r3, [r3, #52]	; 0x34
80001910:	e3530000 	cmp	r3, #0
80001914:	0a000015 	beq	0x80001970
80001918:	e51b3010 	ldr	r3, [fp, #-16]
8000191c:	e5933034 	ldr	r3, [r3, #52]	; 0x34
80001920:	e51b2010 	ldr	r2, [fp, #-16]
80001924:	e5920000 	ldr	r0, [r2]
80001928:	e3a02000 	mov	r2, #0
8000192c:	e3a01000 	mov	r1, #0
80001930:	e12fff33 	blx	r3
80001934:	e50b001c 	str	r0, [fp, #-28]	; 0xffffffe4
80001938:	e51b301c 	ldr	r3, [fp, #-28]	; 0xffffffe4
8000193c:	e3530000 	cmp	r3, #0
80001940:	0a000008 	beq	0x80001968
80001944:	e51b3010 	ldr	r3, [fp, #-16]
80001948:	e5932010 	ldr	r2, [r3, #16]
8000194c:	e51b301c 	ldr	r3, [fp, #-28]	; 0xffffffe4
80001950:	e1520003 	cmp	r2, r3
80001954:	0a000005 	beq	0x80001970
80001958:	e51b3010 	ldr	r3, [fp, #-16]
8000195c:	e51b201c 	ldr	r2, [fp, #-28]	; 0xffffffe4
80001960:	e5832010 	str	r2, [r3, #16]
80001964:	ea000001 	b	0x80001970
80001968:	e3e03000 	mvn	r3, #0
8000196c:	e50b3008 	str	r3, [fp, #-8]
80001970:	e51b3008 	ldr	r3, [fp, #-8]
80001974:	e3530000 	cmp	r3, #0
80001978:	1a000015 	bne	0x800019d4
8000197c:	e51b3010 	ldr	r3, [fp, #-16]
80001980:	e5932018 	ldr	r2, [r3, #24]
80001984:	e51b300c 	ldr	r3, [fp, #-12]
80001988:	e5832020 	str	r2, [r3, #32]
8000198c:	e51b300c 	ldr	r3, [fp, #-12]
80001990:	e5933020 	ldr	r3, [r3, #32]
80001994:	e3530000 	cmp	r3, #0
80001998:	1a000003 	bne	0x800019ac
8000199c:	e51b0070 	ldr	r0, [fp, #-112]	; 0xffffff90
800019a0:	eb000016 	bl	0x80001a00
800019a4:	e50b0008 	str	r0, [fp, #-8]
800019a8:	ea000009 	b	0x800019d4
800019ac:	e51b300c 	ldr	r3, [fp, #-12]
800019b0:	e5933020 	ldr	r3, [r3, #32]
800019b4:	e3530002 	cmp	r3, #2
800019b8:	1a000003 	bne	0x800019cc
800019bc:	e51b0070 	ldr	r0, [fp, #-112]	; 0xffffff90
800019c0:	eb000704 	bl	0x800035d8
800019c4:	e50b0008 	str	r0, [fp, #-8]
800019c8:	ea000001 	b	0x800019d4
800019cc:	e3e03000 	mvn	r3, #0
800019d0:	e50b3008 	str	r3, [fp, #-8]
800019d4:	e51b3008 	ldr	r3, [fp, #-8]
800019d8:	e3530000 	cmp	r3, #0
800019dc:	1a000003 	bne	0x800019f0
800019e0:	e51b3070 	ldr	r3, [fp, #-112]	; 0xffffff90
800019e4:	e5933004 	ldr	r3, [r3, #4]
800019e8:	e3a02001 	mov	r2, #1
800019ec:	e58322a8 	str	r2, [r3, #680]	; 0x2a8
800019f0:	e51b3008 	ldr	r3, [fp, #-8]
800019f4:	e1a00003 	mov	r0, r3
800019f8:	e24bd004 	sub	sp, fp, #4
800019fc:	e8bd8800 	pop	{fp, pc}
80001a00:	e92d4830 	push	{r4, r5, fp, lr}
80001a04:	e28db00c 	add	fp, sp, #12
80001a08:	e24dd0a0 	sub	sp, sp, #160	; 0xa0
80001a0c:	e50b00a8 	str	r0, [fp, #-168]	; 0xffffff58
80001a10:	e3a03000 	mov	r3, #0
80001a14:	e50b3010 	str	r3, [fp, #-16]
80001a18:	e30f3fff 	movw	r3, #65535	; 0xffff
80001a1c:	e50b3014 	str	r3, [fp, #-20]	; 0xffffffec
80001a20:	e3a03000 	mov	r3, #0
80001a24:	e50b302c 	str	r3, [fp, #-44]	; 0xffffffd4
80001a28:	e3a03000 	mov	r3, #0
80001a2c:	e50b3030 	str	r3, [fp, #-48]	; 0xffffffd0
80001a30:	e3e03000 	mvn	r3, #0
80001a34:	e50b3068 	str	r3, [fp, #-104]	; 0xffffff98
80001a38:	e3a03000 	mov	r3, #0
80001a3c:	e50b307c 	str	r3, [fp, #-124]	; 0xffffff84
80001a40:	e3a03000 	mov	r3, #0
80001a44:	e50b3078 	str	r3, [fp, #-120]	; 0xffffff88
80001a48:	e3a03000 	mov	r3, #0
80001a4c:	e50b3074 	str	r3, [fp, #-116]	; 0xffffff8c
80001a50:	e3a03000 	mov	r3, #0
80001a54:	e50b3070 	str	r3, [fp, #-112]	; 0xffffff90
80001a58:	e3a03001 	mov	r3, #1
80001a5c:	e50b306c 	str	r3, [fp, #-108]	; 0xffffff94
80001a60:	e3a03000 	mov	r3, #0
80001a64:	e54b3031 	strb	r3, [fp, #-49]	; 0xffffffcf
80001a68:	e3a03001 	mov	r3, #1
80001a6c:	e54b3015 	strb	r3, [fp, #-21]	; 0xffffffeb
80001a70:	e3a03000 	mov	r3, #0
80001a74:	e50b308c 	str	r3, [fp, #-140]	; 0xffffff74
80001a78:	e3a03032 	mov	r3, #50	; 0x32
80001a7c:	e50b3088 	str	r3, [fp, #-136]	; 0xffffff78
80001a80:	e3a03000 	mov	r3, #0
80001a84:	e50b3084 	str	r3, [fp, #-132]	; 0xffffff7c
80001a88:	e3a03000 	mov	r3, #0
80001a8c:	e50b3080 	str	r3, [fp, #-128]	; 0xffffff80
80001a90:	e51b30a8 	ldr	r3, [fp, #-168]	; 0xffffff58
80001a94:	e3530000 	cmp	r3, #0
80001a98:	03a03001 	moveq	r3, #1
80001a9c:	13a03000 	movne	r3, #0
80001aa0:	e6ef3073 	uxtb	r3, r3
80001aa4:	e30023ef 	movw	r2, #1007	; 0x3ef
80001aa8:	e30e1704 	movw	r1, #59140	; 0xe704
80001aac:	e3481000 	movt	r1, #32768	; 0x8000
80001ab0:	e1a00003 	mov	r0, r3
80001ab4:	eb002d73 	bl	0x8000d088
80001ab8:	e51b30a8 	ldr	r3, [fp, #-168]	; 0xffffff58
80001abc:	e5933004 	ldr	r3, [r3, #4]
80001ac0:	e50b302c 	str	r3, [fp, #-44]	; 0xffffffd4
80001ac4:	e51b30a8 	ldr	r3, [fp, #-168]	; 0xffffff58
80001ac8:	e5933008 	ldr	r3, [r3, #8]
80001acc:	e50b3030 	str	r3, [fp, #-48]	; 0xffffffd0
80001ad0:	e51b3030 	ldr	r3, [fp, #-48]	; 0xffffffd0
80001ad4:	e5933020 	ldr	r3, [r3, #32]
80001ad8:	e2033001 	and	r3, r3, #1
80001adc:	e3530000 	cmp	r3, #0
80001ae0:	13a03001 	movne	r3, #1
80001ae4:	03a03000 	moveq	r3, #0
80001ae8:	e54b3031 	strb	r3, [fp, #-49]	; 0xffffffcf
80001aec:	e3a02040 	mov	r2, #64	; 0x40
80001af0:	e3a01000 	mov	r1, #0
80001af4:	e30e0c00 	movw	r0, #60416	; 0xec00
80001af8:	e3480000 	movt	r0, #32768	; 0x8000
80001afc:	eb002945 	bl	0x8000c018
80001b00:	e51b3010 	ldr	r3, [fp, #-16]
80001b04:	e3530000 	cmp	r3, #0
80001b08:	1a00000d 	bne	0x80001b44
80001b0c:	e51b3030 	ldr	r3, [fp, #-48]	; 0xffffffd0
80001b10:	e5933004 	ldr	r3, [r3, #4]
80001b14:	e1a00003 	mov	r0, r3
80001b18:	eb00101e 	bl	0x80005b98
80001b1c:	e1a03000 	mov	r3, r0
80001b20:	e50b3068 	str	r3, [fp, #-104]	; 0xffffff98
80001b24:	e51b3068 	ldr	r3, [fp, #-104]	; 0xffffff98
80001b28:	e3530001 	cmp	r3, #1
80001b2c:	0a000002 	beq	0x80001b3c
80001b30:	e3e03000 	mvn	r3, #0
80001b34:	e50b3010 	str	r3, [fp, #-16]
80001b38:	ea000001 	b	0x80001b44
80001b3c:	e3a03000 	mov	r3, #0
80001b40:	e50b3010 	str	r3, [fp, #-16]
80001b44:	e51b3010 	ldr	r3, [fp, #-16]
80001b48:	e3530000 	cmp	r3, #0
80001b4c:	1a000038 	bne	0x80001c34
80001b50:	e51b3030 	ldr	r3, [fp, #-48]	; 0xffffffd0
80001b54:	e5933004 	ldr	r3, [r3, #4]
80001b58:	e3a01401 	mov	r1, #16777216	; 0x1000000
80001b5c:	e1a00003 	mov	r0, r3
80001b60:	eb001026 	bl	0x80005c00
80001b64:	e51b3030 	ldr	r3, [fp, #-48]	; 0xffffffd0
80001b68:	e5933004 	ldr	r3, [r3, #4]
80001b6c:	e3a01406 	mov	r1, #100663296	; 0x6000000
80001b70:	e1a00003 	mov	r0, r3
80001b74:	eb00122e 	bl	0x80006434
80001b78:	e51b3030 	ldr	r3, [fp, #-48]	; 0xffffffd0
80001b7c:	e5933004 	ldr	r3, [r3, #4]
80001b80:	e24b207c 	sub	r2, fp, #124	; 0x7c
80001b84:	e1a01002 	mov	r1, r2
80001b88:	e1a00003 	mov	r0, r3
80001b8c:	eb00103e 	bl	0x80005c8c
80001b90:	e51b3030 	ldr	r3, [fp, #-48]	; 0xffffffd0
80001b94:	e5933004 	ldr	r3, [r3, #4]
80001b98:	e3a01001 	mov	r1, #1
80001b9c:	e1a00003 	mov	r0, r3
80001ba0:	eb001086 	bl	0x80005dc0
80001ba4:	e51b3030 	ldr	r3, [fp, #-48]	; 0xffffffd0
80001ba8:	e5933020 	ldr	r3, [r3, #32]
80001bac:	e2033002 	and	r3, r3, #2
80001bb0:	e3530000 	cmp	r3, #0
80001bb4:	0a000005 	beq	0x80001bd0
80001bb8:	e51b3030 	ldr	r3, [fp, #-48]	; 0xffffffd0
80001bbc:	e5933004 	ldr	r3, [r3, #4]
80001bc0:	e3a01006 	mov	r1, #6
80001bc4:	e1a00003 	mov	r0, r3
80001bc8:	eb00119a 	bl	0x80006238
80001bcc:	ea000009 	b	0x80001bf8
80001bd0:	e51b3030 	ldr	r3, [fp, #-48]	; 0xffffffd0
80001bd4:	e5933020 	ldr	r3, [r3, #32]
80001bd8:	e2033001 	and	r3, r3, #1
80001bdc:	e3530000 	cmp	r3, #0
80001be0:	0a000004 	beq	0x80001bf8
80001be4:	e51b3030 	ldr	r3, [fp, #-48]	; 0xffffffd0
80001be8:	e5933004 	ldr	r3, [r3, #4]
80001bec:	e3a01005 	mov	r1, #5
80001bf0:	e1a00003 	mov	r0, r3
80001bf4:	eb00118f 	bl	0x80006238
80001bf8:	e51b3030 	ldr	r3, [fp, #-48]	; 0xffffffd0
80001bfc:	e5933004 	ldr	r3, [r3, #4]
80001c00:	e3a01001 	mov	r1, #1
80001c04:	e1a00003 	mov	r0, r3
80001c08:	eb0011a6 	bl	0x800062a8
80001c0c:	e1a03000 	mov	r3, r0
80001c10:	e50b3068 	str	r3, [fp, #-104]	; 0xffffff98
80001c14:	e51b302c 	ldr	r3, [fp, #-44]	; 0xffffffd4
80001c18:	e3a02000 	mov	r2, #0
80001c1c:	e5c32259 	strb	r2, [r3, #601]	; 0x259
80001c20:	e51b3068 	ldr	r3, [fp, #-104]	; 0xffffff98
80001c24:	e3530001 	cmp	r3, #1
80001c28:	0a000001 	beq	0x80001c34
80001c2c:	e3e03000 	mvn	r3, #0
80001c30:	e50b3010 	str	r3, [fp, #-16]
80001c34:	e51b3010 	ldr	r3, [fp, #-16]
80001c38:	e3530000 	cmp	r3, #0
80001c3c:	1a000022 	bne	0x80001ccc
80001c40:	e51b3030 	ldr	r3, [fp, #-48]	; 0xffffffd0
80001c44:	e5930004 	ldr	r0, [r3, #4]
80001c48:	e51b3030 	ldr	r3, [fp, #-48]	; 0xffffffd0
80001c4c:	e5931010 	ldr	r1, [r3, #16]
80001c50:	e51b3030 	ldr	r3, [fp, #-48]	; 0xffffffd0
80001c54:	e5932014 	ldr	r2, [r3, #20]
80001c58:	e3a03000 	mov	r3, #0
80001c5c:	eb001257 	bl	0x800065c0
80001c60:	e1a03000 	mov	r3, r0
80001c64:	e50b3068 	str	r3, [fp, #-104]	; 0xffffff98
80001c68:	e51b3030 	ldr	r3, [fp, #-48]	; 0xffffffd0
80001c6c:	e593302c 	ldr	r3, [r3, #44]	; 0x2c
80001c70:	e3530000 	cmp	r3, #0
80001c74:	0a000008 	beq	0x80001c9c
80001c78:	e3a03032 	mov	r3, #50	; 0x32
80001c7c:	e50b3088 	str	r3, [fp, #-136]	; 0xffffff78
80001c80:	e51b3030 	ldr	r3, [fp, #-48]	; 0xffffffd0
80001c84:	e593302c 	ldr	r3, [r3, #44]	; 0x2c
80001c88:	e51b2030 	ldr	r2, [fp, #-48]	; 0xffffffd0
80001c8c:	e5922000 	ldr	r2, [r2]
80001c90:	e24b108c 	sub	r1, fp, #140	; 0x8c
80001c94:	e1a00002 	mov	r0, r2
80001c98:	e12fff33 	blx	r3
80001c9c:	e51b3068 	ldr	r3, [fp, #-104]	; 0xffffff98
80001ca0:	e3530001 	cmp	r3, #1
80001ca4:	0a000001 	beq	0x80001cb0
80001ca8:	e3e03000 	mvn	r3, #0
80001cac:	e50b3010 	str	r3, [fp, #-16]
80001cb0:	e51b3010 	ldr	r3, [fp, #-16]
80001cb4:	e3530000 	cmp	r3, #0
80001cb8:	1a000003 	bne	0x80001ccc
80001cbc:	e51b3030 	ldr	r3, [fp, #-48]	; 0xffffffd0
80001cc0:	e5933004 	ldr	r3, [r3, #4]
80001cc4:	e1a00003 	mov	r0, r3
80001cc8:	eb001295 	bl	0x80006724
80001ccc:	e51b3010 	ldr	r3, [fp, #-16]
80001cd0:	e3530000 	cmp	r3, #0
80001cd4:	1a00000a 	bne	0x80001d04
80001cd8:	e3a03000 	mov	r3, #0
80001cdc:	e50b3064 	str	r3, [fp, #-100]	; 0xffffff9c
80001ce0:	e3a03001 	mov	r3, #1
80001ce4:	e50b3060 	str	r3, [fp, #-96]	; 0xffffffa0
80001ce8:	e3a03000 	mov	r3, #0
80001cec:	e50b305c 	str	r3, [fp, #-92]	; 0xffffffa4
80001cf0:	e24b3064 	sub	r3, fp, #100	; 0x64
80001cf4:	e1a01003 	mov	r1, r3
80001cf8:	e51b00a8 	ldr	r0, [fp, #-168]	; 0xffffff58
80001cfc:	eb00082f 	bl	0x80003dc0
80001d00:	e50b0010 	str	r0, [fp, #-16]
80001d04:	e51b3010 	ldr	r3, [fp, #-16]
80001d08:	e3530000 	cmp	r3, #0
80001d0c:	1a00000c 	bne	0x80001d44
80001d10:	e3a03037 	mov	r3, #55	; 0x37
80001d14:	e50b3064 	str	r3, [fp, #-100]	; 0xffffff9c
80001d18:	e3a03000 	mov	r3, #0
80001d1c:	e50b3060 	str	r3, [fp, #-96]	; 0xffffffa0
80001d20:	e51b302c 	ldr	r3, [fp, #-44]	; 0xffffffd4
80001d24:	e5933024 	ldr	r3, [r3, #36]	; 0x24
80001d28:	e1a03803 	lsl	r3, r3, #16
80001d2c:	e50b305c 	str	r3, [fp, #-92]	; 0xffffffa4
80001d30:	e24b3064 	sub	r3, fp, #100	; 0x64
80001d34:	e1a01003 	mov	r1, r3
80001d38:	e51b00a8 	ldr	r0, [fp, #-168]	; 0xffffff58
80001d3c:	eb00081f 	bl	0x80003dc0
80001d40:	e50b0010 	str	r0, [fp, #-16]
80001d44:	e51b3010 	ldr	r3, [fp, #-16]
80001d48:	e3530000 	cmp	r3, #0
80001d4c:	1a00000a 	bne	0x80001d7c
80001d50:	e3a03037 	mov	r3, #55	; 0x37
80001d54:	e50b3064 	str	r3, [fp, #-100]	; 0xffffff9c
80001d58:	e3a03000 	mov	r3, #0
80001d5c:	e50b3060 	str	r3, [fp, #-96]	; 0xffffffa0
80001d60:	e3a03000 	mov	r3, #0
80001d64:	e50b305c 	str	r3, [fp, #-92]	; 0xffffffa4
80001d68:	e24b3064 	sub	r3, fp, #100	; 0x64
80001d6c:	e1a01003 	mov	r1, r3
80001d70:	e51b00a8 	ldr	r0, [fp, #-168]	; 0xffffff58
80001d74:	eb000811 	bl	0x80003dc0
80001d78:	e50b0010 	str	r0, [fp, #-16]
80001d7c:	e51b3010 	ldr	r3, [fp, #-16]
80001d80:	e3530000 	cmp	r3, #0
80001d84:	1a00015a 	bne	0x800022f4
80001d88:	e51b302c 	ldr	r3, [fp, #-44]	; 0xffffffd4
80001d8c:	e3a02000 	mov	r2, #0
80001d90:	e5832020 	str	r2, [r3, #32]
80001d94:	e51b3010 	ldr	r3, [fp, #-16]
80001d98:	e3530000 	cmp	r3, #0
80001d9c:	1a00000a 	bne	0x80001dcc
80001da0:	e3a03000 	mov	r3, #0
80001da4:	e50b3064 	str	r3, [fp, #-100]	; 0xffffff9c
80001da8:	e3a03001 	mov	r3, #1
80001dac:	e50b3060 	str	r3, [fp, #-96]	; 0xffffffa0
80001db0:	e3a03000 	mov	r3, #0
80001db4:	e50b305c 	str	r3, [fp, #-92]	; 0xffffffa4
80001db8:	e24b3064 	sub	r3, fp, #100	; 0x64
80001dbc:	e1a01003 	mov	r1, r3
80001dc0:	e51b00a8 	ldr	r0, [fp, #-168]	; 0xffffff58
80001dc4:	eb0007fd 	bl	0x80003dc0
80001dc8:	e50b0010 	str	r0, [fp, #-16]
80001dcc:	e51b3010 	ldr	r3, [fp, #-16]
80001dd0:	e3530000 	cmp	r3, #0
80001dd4:	1a000019 	bne	0x80001e40
80001dd8:	e3a03008 	mov	r3, #8
80001ddc:	e50b3064 	str	r3, [fp, #-100]	; 0xffffff9c
80001de0:	e3a03000 	mov	r3, #0
80001de4:	e50b3060 	str	r3, [fp, #-96]	; 0xffffffa0
80001de8:	e3a030aa 	mov	r3, #170	; 0xaa
80001dec:	e50b305c 	str	r3, [fp, #-92]	; 0xffffffa4
80001df0:	e51b3030 	ldr	r3, [fp, #-48]	; 0xffffffd0
80001df4:	e5933004 	ldr	r3, [r3, #4]
80001df8:	e1a00003 	mov	r0, r3
80001dfc:	eb00111b 	bl	0x80006270
80001e00:	e50b0038 	str	r0, [fp, #-56]	; 0xffffffc8
80001e04:	e51b3038 	ldr	r3, [fp, #-56]	; 0xffffffc8
80001e08:	e3530005 	cmp	r3, #5
80001e0c:	1a000003 	bne	0x80001e20
80001e10:	e51b305c 	ldr	r3, [fp, #-92]	; 0xffffffa4
80001e14:	e3833c02 	orr	r3, r3, #512	; 0x200
80001e18:	e50b305c 	str	r3, [fp, #-92]	; 0xffffffa4
80001e1c:	ea000002 	b	0x80001e2c
80001e20:	e51b305c 	ldr	r3, [fp, #-92]	; 0xffffffa4
80001e24:	e3833c01 	orr	r3, r3, #256	; 0x100
80001e28:	e50b305c 	str	r3, [fp, #-92]	; 0xffffffa4
80001e2c:	e24b3064 	sub	r3, fp, #100	; 0x64
80001e30:	e1a01003 	mov	r1, r3
80001e34:	e51b00a8 	ldr	r0, [fp, #-168]	; 0xffffff58
80001e38:	eb0007e0 	bl	0x80003dc0
80001e3c:	e50b0010 	str	r0, [fp, #-16]
80001e40:	e51b3010 	ldr	r3, [fp, #-16]
80001e44:	e3530000 	cmp	r3, #0
80001e48:	1a00000c 	bne	0x80001e80
80001e4c:	e3a03037 	mov	r3, #55	; 0x37
80001e50:	e50b3064 	str	r3, [fp, #-100]	; 0xffffff9c
80001e54:	e3a03000 	mov	r3, #0
80001e58:	e50b3060 	str	r3, [fp, #-96]	; 0xffffffa0
80001e5c:	e51b302c 	ldr	r3, [fp, #-44]	; 0xffffffd4
80001e60:	e5933024 	ldr	r3, [r3, #36]	; 0x24
80001e64:	e1a03803 	lsl	r3, r3, #16
80001e68:	e50b305c 	str	r3, [fp, #-92]	; 0xffffffa4
80001e6c:	e24b3064 	sub	r3, fp, #100	; 0x64
80001e70:	e1a01003 	mov	r1, r3
80001e74:	e51b00a8 	ldr	r0, [fp, #-168]	; 0xffffff58
80001e78:	eb0007d0 	bl	0x80003dc0
80001e7c:	e50b0010 	str	r0, [fp, #-16]
80001e80:	e51b3010 	ldr	r3, [fp, #-16]
80001e84:	e3530000 	cmp	r3, #0
80001e88:	1a000011 	bne	0x80001ed4
80001e8c:	e3a03029 	mov	r3, #41	; 0x29
80001e90:	e50b3064 	str	r3, [fp, #-100]	; 0xffffff9c
80001e94:	e3a03000 	mov	r3, #0
80001e98:	e50b3060 	str	r3, [fp, #-96]	; 0xffffffa0
80001e9c:	e3a03902 	mov	r3, #32768	; 0x8000
80001ea0:	e34430ff 	movt	r3, #16639	; 0x40ff
80001ea4:	e50b305c 	str	r3, [fp, #-92]	; 0xffffffa4
80001ea8:	e55b3031 	ldrb	r3, [fp, #-49]	; 0xffffffcf
80001eac:	e3530000 	cmp	r3, #0
80001eb0:	0a000002 	beq	0x80001ec0
80001eb4:	e51b305c 	ldr	r3, [fp, #-92]	; 0xffffffa4
80001eb8:	e3833401 	orr	r3, r3, #16777216	; 0x1000000
80001ebc:	e50b305c 	str	r3, [fp, #-92]	; 0xffffffa4
80001ec0:	e24b3064 	sub	r3, fp, #100	; 0x64
80001ec4:	e1a01003 	mov	r1, r3
80001ec8:	e51b00a8 	ldr	r0, [fp, #-168]	; 0xffffff58
80001ecc:	eb0007bb 	bl	0x80003dc0
80001ed0:	e50b0010 	str	r0, [fp, #-16]
80001ed4:	e51b3010 	ldr	r3, [fp, #-16]
80001ed8:	e3530000 	cmp	r3, #0
80001edc:	1a000032 	bne	0x80001fac
80001ee0:	e3a03037 	mov	r3, #55	; 0x37
80001ee4:	e50b3064 	str	r3, [fp, #-100]	; 0xffffff9c
80001ee8:	e3a03000 	mov	r3, #0
80001eec:	e50b3060 	str	r3, [fp, #-96]	; 0xffffffa0
80001ef0:	e51b302c 	ldr	r3, [fp, #-44]	; 0xffffffd4
80001ef4:	e5933024 	ldr	r3, [r3, #36]	; 0x24
80001ef8:	e1a03803 	lsl	r3, r3, #16
80001efc:	e50b305c 	str	r3, [fp, #-92]	; 0xffffffa4
80001f00:	e24b3064 	sub	r3, fp, #100	; 0x64
80001f04:	e1a01003 	mov	r1, r3
80001f08:	e51b00a8 	ldr	r0, [fp, #-168]	; 0xffffff58
80001f0c:	eb0007ab 	bl	0x80003dc0
80001f10:	e50b0010 	str	r0, [fp, #-16]
80001f14:	e51b3010 	ldr	r3, [fp, #-16]
80001f18:	e3530000 	cmp	r3, #0
80001f1c:	1a000017 	bne	0x80001f80
80001f20:	e3a03029 	mov	r3, #41	; 0x29
80001f24:	e50b3064 	str	r3, [fp, #-100]	; 0xffffff9c
80001f28:	e3a03000 	mov	r3, #0
80001f2c:	e50b3060 	str	r3, [fp, #-96]	; 0xffffffa0
80001f30:	e3a03902 	mov	r3, #32768	; 0x8000
80001f34:	e34430ff 	movt	r3, #16639	; 0x40ff
80001f38:	e50b305c 	str	r3, [fp, #-92]	; 0xffffffa4
80001f3c:	e55b3031 	ldrb	r3, [fp, #-49]	; 0xffffffcf
80001f40:	e3530000 	cmp	r3, #0
80001f44:	0a000002 	beq	0x80001f54
80001f48:	e51b305c 	ldr	r3, [fp, #-92]	; 0xffffffa4
80001f4c:	e3833401 	orr	r3, r3, #16777216	; 0x1000000
80001f50:	e50b305c 	str	r3, [fp, #-92]	; 0xffffffa4
80001f54:	e24b3064 	sub	r3, fp, #100	; 0x64
80001f58:	e1a01003 	mov	r1, r3
80001f5c:	e51b00a8 	ldr	r0, [fp, #-168]	; 0xffffff58
80001f60:	eb000796 	bl	0x80003dc0
80001f64:	e51b3014 	ldr	r3, [fp, #-20]	; 0xffffffec
80001f68:	e2433001 	sub	r3, r3, #1
80001f6c:	e50b3014 	str	r3, [fp, #-20]	; 0xffffffec
80001f70:	e51b304c 	ldr	r3, [fp, #-76]	; 0xffffffb4
80001f74:	e3530000 	cmp	r3, #0
80001f78:	ba000006 	blt	0x80001f98
80001f7c:	ea000002 	b	0x80001f8c
80001f80:	e3e03000 	mvn	r3, #0
80001f84:	e50b3010 	str	r3, [fp, #-16]
80001f88:	ea000002 	b	0x80001f98
80001f8c:	e51b3014 	ldr	r3, [fp, #-20]	; 0xffffffec
80001f90:	e3530000 	cmp	r3, #0
80001f94:	1affffd1 	bne	0x80001ee0
80001f98:	e51b3014 	ldr	r3, [fp, #-20]	; 0xffffffec
80001f9c:	e3530000 	cmp	r3, #0
80001fa0:	1a000001 	bne	0x80001fac
80001fa4:	e3e03000 	mvn	r3, #0
80001fa8:	e50b3010 	str	r3, [fp, #-16]
80001fac:	e51b3010 	ldr	r3, [fp, #-16]
80001fb0:	e3530000 	cmp	r3, #0
80001fb4:	1a0000ce 	bne	0x800022f4
80001fb8:	e51b204c 	ldr	r2, [fp, #-76]	; 0xffffffb4
80001fbc:	e51b302c 	ldr	r3, [fp, #-44]	; 0xffffffd4
80001fc0:	e5832250 	str	r2, [r3, #592]	; 0x250
80001fc4:	e51b302c 	ldr	r3, [fp, #-44]	; 0xffffffd4
80001fc8:	e5933250 	ldr	r3, [r3, #592]	; 0x250
80001fcc:	e2033101 	and	r3, r3, #1073741824	; 0x40000000
80001fd0:	e3530000 	cmp	r3, #0
80001fd4:	0a000001 	beq	0x80001fe0
80001fd8:	e3a02001 	mov	r2, #1
80001fdc:	ea000000 	b	0x80001fe4
80001fe0:	e3a02000 	mov	r2, #0
80001fe4:	e51b302c 	ldr	r3, [fp, #-44]	; 0xffffffd4
80001fe8:	e5c32257 	strb	r2, [r3, #599]	; 0x257
80001fec:	e51b304c 	ldr	r3, [fp, #-76]	; 0xffffffb4
80001ff0:	e2033401 	and	r3, r3, #16777216	; 0x1000000
80001ff4:	e3530000 	cmp	r3, #0
80001ff8:	0a000001 	beq	0x80002004
80001ffc:	e3a02001 	mov	r2, #1
80002000:	ea000000 	b	0x80002008
80002004:	e3a02000 	mov	r2, #0
80002008:	e51b302c 	ldr	r3, [fp, #-44]	; 0xffffffd4
8000200c:	e5c32258 	strb	r2, [r3, #600]	; 0x258
80002010:	e51b3030 	ldr	r3, [fp, #-48]	; 0xffffffd0
80002014:	e5933004 	ldr	r3, [r3, #4]
80002018:	e1a00003 	mov	r0, r3
8000201c:	eb001093 	bl	0x80006270
80002020:	e1a03000 	mov	r3, r0
80002024:	e3530005 	cmp	r3, #5
80002028:	1a000004 	bne	0x80002040
8000202c:	e3a03000 	mov	r3, #0
80002030:	e54b3015 	strb	r3, [fp, #-21]	; 0xffffffeb
80002034:	e51b302c 	ldr	r3, [fp, #-44]	; 0xffffffd4
80002038:	e3a02001 	mov	r2, #1
8000203c:	e5c32259 	strb	r2, [r3, #601]	; 0x259
80002040:	e51b302c 	ldr	r3, [fp, #-44]	; 0xffffffd4
80002044:	e5d33258 	ldrb	r3, [r3, #600]	; 0x258
80002048:	e3530000 	cmp	r3, #0
8000204c:	0a0000a8 	beq	0x800022f4
80002050:	e55b3031 	ldrb	r3, [fp, #-49]	; 0xffffffcf
80002054:	e3530000 	cmp	r3, #0
80002058:	0a0000a5 	beq	0x800022f4
8000205c:	e55b3015 	ldrb	r3, [fp, #-21]	; 0xffffffeb
80002060:	e3530000 	cmp	r3, #0
80002064:	0a0000a2 	beq	0x800022f4
80002068:	e51b3030 	ldr	r3, [fp, #-48]	; 0xffffffd0
8000206c:	e5933030 	ldr	r3, [r3, #48]	; 0x30
80002070:	e3530000 	cmp	r3, #0
80002074:	0a00009e 	beq	0x800022f4
80002078:	e3a03001 	mov	r3, #1
8000207c:	e54b3039 	strb	r3, [fp, #-57]	; 0xffffffc7
80002080:	e3a03000 	mov	r3, #0
80002084:	e50b301c 	str	r3, [fp, #-28]	; 0xffffffe4
80002088:	e3a03000 	mov	r3, #0
8000208c:	e54b3039 	strb	r3, [fp, #-57]	; 0xffffffc7
80002090:	e51b3030 	ldr	r3, [fp, #-48]	; 0xffffffd0
80002094:	e5933004 	ldr	r3, [r3, #4]
80002098:	e3a01000 	mov	r1, #0
8000209c:	e1a00003 	mov	r0, r3
800020a0:	eb00102e 	bl	0x80006160
800020a4:	e51b3030 	ldr	r3, [fp, #-48]	; 0xffffffd0
800020a8:	e5933004 	ldr	r3, [r3, #4]
800020ac:	e3a01001 	mov	r1, #1
800020b0:	e1a00003 	mov	r0, r3
800020b4:	eb000f72 	bl	0x80005e84
800020b8:	e3a0300b 	mov	r3, #11
800020bc:	e50b3064 	str	r3, [fp, #-100]	; 0xffffff9c
800020c0:	e3a03c02 	mov	r3, #512	; 0x200
800020c4:	e50b3060 	str	r3, [fp, #-96]	; 0xffffffa0
800020c8:	e3a03000 	mov	r3, #0
800020cc:	e50b305c 	str	r3, [fp, #-92]	; 0xffffffa4
800020d0:	e24b3064 	sub	r3, fp, #100	; 0x64
800020d4:	e1a01003 	mov	r1, r3
800020d8:	e51b00a8 	ldr	r0, [fp, #-168]	; 0xffffff58
800020dc:	eb000737 	bl	0x80003dc0
800020e0:	e50b0010 	str	r0, [fp, #-16]
800020e4:	e51b3010 	ldr	r3, [fp, #-16]
800020e8:	e3530000 	cmp	r3, #0
800020ec:	1a00006f 	bne	0x800022b0
800020f0:	e3a0300a 	mov	r3, #10
800020f4:	e50b301c 	str	r3, [fp, #-28]	; 0xffffffe4
800020f8:	e3a0000a 	mov	r0, #10
800020fc:	eb000e49 	bl	0x80005a28
80002100:	e51b301c 	ldr	r3, [fp, #-28]	; 0xffffffe4
80002104:	e2433001 	sub	r3, r3, #1
80002108:	e50b301c 	str	r3, [fp, #-28]	; 0xffffffe4
8000210c:	e51b301c 	ldr	r3, [fp, #-28]	; 0xffffffe4
80002110:	e3530000 	cmp	r3, #0
80002114:	da00000d 	ble	0x80002150
80002118:	e51b3030 	ldr	r3, [fp, #-48]	; 0xffffffd0
8000211c:	e5933004 	ldr	r3, [r3, #4]
80002120:	e1a00003 	mov	r0, r3
80002124:	eb001346 	bl	0x80006e44
80002128:	e1a03000 	mov	r3, r0
8000212c:	e3530000 	cmp	r3, #0
80002130:	1afffff0 	bne	0x800020f8
80002134:	e51b3030 	ldr	r3, [fp, #-48]	; 0xffffffd0
80002138:	e5933004 	ldr	r3, [r3, #4]
8000213c:	e1a00003 	mov	r0, r3
80002140:	eb00133f 	bl	0x80006e44
80002144:	e1a03000 	mov	r3, r0
80002148:	e3530000 	cmp	r3, #0
8000214c:	1affffe9 	bne	0x800020f8
80002150:	e51b301c 	ldr	r3, [fp, #-28]	; 0xffffffe4
80002154:	e3530000 	cmp	r3, #0
80002158:	1a000001 	bne	0x80002164
8000215c:	e3e03004 	mvn	r3, #4
80002160:	e50b3010 	str	r3, [fp, #-16]
80002164:	e51b3030 	ldr	r3, [fp, #-48]	; 0xffffffd0
80002168:	e5933004 	ldr	r3, [r3, #4]
8000216c:	e3a01005 	mov	r1, #5
80002170:	e1a00003 	mov	r0, r3
80002174:	eb00102f 	bl	0x80006238
80002178:	e51b3030 	ldr	r3, [fp, #-48]	; 0xffffffd0
8000217c:	e5933004 	ldr	r3, [r3, #4]
80002180:	e3a01001 	mov	r1, #1
80002184:	e1a00003 	mov	r0, r3
80002188:	eb001046 	bl	0x800062a8
8000218c:	e51b3030 	ldr	r3, [fp, #-48]	; 0xffffffd0
80002190:	e5933004 	ldr	r3, [r3, #4]
80002194:	e3a01001 	mov	r1, #1
80002198:	e1a00003 	mov	r0, r3
8000219c:	eb001017 	bl	0x80006200
800021a0:	e51b3030 	ldr	r3, [fp, #-48]	; 0xffffffd0
800021a4:	e5933030 	ldr	r3, [r3, #48]	; 0x30
800021a8:	e3530000 	cmp	r3, #0
800021ac:	0a000007 	beq	0x800021d0
800021b0:	e51b3030 	ldr	r3, [fp, #-48]	; 0xffffffd0
800021b4:	e5933030 	ldr	r3, [r3, #48]	; 0x30
800021b8:	e51b2030 	ldr	r2, [fp, #-48]	; 0xffffffd0
800021bc:	e5922000 	ldr	r2, [r2]
800021c0:	e3a01001 	mov	r1, #1
800021c4:	e1a00002 	mov	r0, r2
800021c8:	e12fff33 	blx	r3
800021cc:	e50b0010 	str	r0, [fp, #-16]
800021d0:	e51b3010 	ldr	r3, [fp, #-16]
800021d4:	e3530000 	cmp	r3, #0
800021d8:	0a000002 	beq	0x800021e8
800021dc:	e3e03003 	mvn	r3, #3
800021e0:	e50b3010 	str	r3, [fp, #-16]
800021e4:	ea000034 	b	0x800022bc
800021e8:	e3a00064 	mov	r0, #100	; 0x64
800021ec:	eb000e0d 	bl	0x80005a28
800021f0:	e51b3030 	ldr	r3, [fp, #-48]	; 0xffffffd0
800021f4:	e5933004 	ldr	r3, [r3, #4]
800021f8:	e3a01001 	mov	r1, #1
800021fc:	e1a00003 	mov	r0, r3
80002200:	eb000fd6 	bl	0x80006160
80002204:	e3a00f7d 	mov	r0, #500	; 0x1f4
80002208:	eb000e06 	bl	0x80005a28
8000220c:	e3a0000a 	mov	r0, #10
80002210:	eb000e04 	bl	0x80005a28
80002214:	e51b301c 	ldr	r3, [fp, #-28]	; 0xffffffe4
80002218:	e2433001 	sub	r3, r3, #1
8000221c:	e50b301c 	str	r3, [fp, #-28]	; 0xffffffe4
80002220:	e51b301c 	ldr	r3, [fp, #-28]	; 0xffffffe4
80002224:	e3530000 	cmp	r3, #0
80002228:	da00000d 	ble	0x80002264
8000222c:	e51b3030 	ldr	r3, [fp, #-48]	; 0xffffffd0
80002230:	e5933004 	ldr	r3, [r3, #4]
80002234:	e1a00003 	mov	r0, r3
80002238:	eb001301 	bl	0x80006e44
8000223c:	e1a03000 	mov	r3, r0
80002240:	e3530000 	cmp	r3, #0
80002244:	0afffff0 	beq	0x8000220c
80002248:	e51b3030 	ldr	r3, [fp, #-48]	; 0xffffffd0
8000224c:	e5933004 	ldr	r3, [r3, #4]
80002250:	e1a00003 	mov	r0, r3
80002254:	eb0012fa 	bl	0x80006e44
80002258:	e1a03000 	mov	r3, r0
8000225c:	e3530000 	cmp	r3, #0
80002260:	0affffe9 	beq	0x8000220c
80002264:	e51b301c 	ldr	r3, [fp, #-28]	; 0xffffffe4
80002268:	e3530000 	cmp	r3, #0
8000226c:	1a000002 	bne	0x8000227c
80002270:	e3e03002 	mvn	r3, #2
80002274:	e50b3010 	str	r3, [fp, #-16]
80002278:	ea00000f 	b	0x800022bc
8000227c:	e51b3030 	ldr	r3, [fp, #-48]	; 0xffffffd0
80002280:	e5933004 	ldr	r3, [r3, #4]
80002284:	e3a01000 	mov	r1, #0
80002288:	e1a00003 	mov	r0, r3
8000228c:	eb000efc 	bl	0x80005e84
80002290:	e51b3030 	ldr	r3, [fp, #-48]	; 0xffffffd0
80002294:	e5933004 	ldr	r3, [r3, #4]
80002298:	e3a01000 	mov	r1, #0
8000229c:	e1a00003 	mov	r0, r3
800022a0:	eb000fae 	bl	0x80006160
800022a4:	e51b302c 	ldr	r3, [fp, #-44]	; 0xffffffd4
800022a8:	e3a02001 	mov	r2, #1
800022ac:	e5c32259 	strb	r2, [r3, #601]	; 0x259
800022b0:	e55b3039 	ldrb	r3, [fp, #-57]	; 0xffffffc7
800022b4:	e3530000 	cmp	r3, #0
800022b8:	1affff70 	bne	0x80002080
800022bc:	e51b3010 	ldr	r3, [fp, #-16]
800022c0:	e3530000 	cmp	r3, #0
800022c4:	0a00000a 	beq	0x800022f4
800022c8:	e51b3030 	ldr	r3, [fp, #-48]	; 0xffffffd0
800022cc:	e5933030 	ldr	r3, [r3, #48]	; 0x30
800022d0:	e3530000 	cmp	r3, #0
800022d4:	0a000006 	beq	0x800022f4
800022d8:	e51b3030 	ldr	r3, [fp, #-48]	; 0xffffffd0
800022dc:	e5933030 	ldr	r3, [r3, #48]	; 0x30
800022e0:	e51b2030 	ldr	r2, [fp, #-48]	; 0xffffffd0
800022e4:	e5922000 	ldr	r2, [r2]
800022e8:	e3a01002 	mov	r1, #2
800022ec:	e1a00002 	mov	r0, r2
800022f0:	e12fff33 	blx	r3
800022f4:	e51b3010 	ldr	r3, [fp, #-16]
800022f8:	e3530000 	cmp	r3, #0
800022fc:	1a000011 	bne	0x80002348
80002300:	e3a03002 	mov	r3, #2
80002304:	e50b3064 	str	r3, [fp, #-100]	; 0xffffff9c
80002308:	e3a03020 	mov	r3, #32
8000230c:	e50b3060 	str	r3, [fp, #-96]	; 0xffffffa0
80002310:	e3a03000 	mov	r3, #0
80002314:	e50b305c 	str	r3, [fp, #-92]	; 0xffffffa4
80002318:	e24b3064 	sub	r3, fp, #100	; 0x64
8000231c:	e1a01003 	mov	r1, r3
80002320:	e51b00a8 	ldr	r0, [fp, #-168]	; 0xffffff58
80002324:	eb0006a5 	bl	0x80003dc0
80002328:	e50b0010 	str	r0, [fp, #-16]
8000232c:	e51b302c 	ldr	r3, [fp, #-44]	; 0xffffffd4
80002330:	e2830d09 	add	r0, r3, #576	; 0x240
80002334:	e24b3064 	sub	r3, fp, #100	; 0x64
80002338:	e2833018 	add	r3, r3, #24
8000233c:	e3a02010 	mov	r2, #16
80002340:	e1a01003 	mov	r1, r3
80002344:	eb00272b 	bl	0x8000bff8
80002348:	e51b3010 	ldr	r3, [fp, #-16]
8000234c:	e3530000 	cmp	r3, #0
80002350:	1a00000e 	bne	0x80002390
80002354:	e3a03003 	mov	r3, #3
80002358:	e50b3064 	str	r3, [fp, #-100]	; 0xffffff9c
8000235c:	e3a03000 	mov	r3, #0
80002360:	e50b3060 	str	r3, [fp, #-96]	; 0xffffffa0
80002364:	e3a03000 	mov	r3, #0
80002368:	e50b305c 	str	r3, [fp, #-92]	; 0xffffffa4
8000236c:	e24b3064 	sub	r3, fp, #100	; 0x64
80002370:	e1a01003 	mov	r1, r3
80002374:	e51b00a8 	ldr	r0, [fp, #-168]	; 0xffffff58
80002378:	eb000690 	bl	0x80003dc0
8000237c:	e50b0010 	str	r0, [fp, #-16]
80002380:	e51b304c 	ldr	r3, [fp, #-76]	; 0xffffffb4
80002384:	e1a02823 	lsr	r2, r3, #16
80002388:	e51b302c 	ldr	r3, [fp, #-44]	; 0xffffffd4
8000238c:	e5832024 	str	r2, [r3, #36]	; 0x24
80002390:	e3a03000 	mov	r3, #0
80002394:	e54b301d 	strb	r3, [fp, #-29]	; 0xffffffe3
80002398:	e51b3010 	ldr	r3, [fp, #-16]
8000239c:	e3530000 	cmp	r3, #0
800023a0:	1a00005b 	bne	0x80002514
800023a4:	e3a03010 	mov	r3, #16
800023a8:	e50b3064 	str	r3, [fp, #-100]	; 0xffffff9c
800023ac:	e3a03001 	mov	r3, #1
800023b0:	e50b3060 	str	r3, [fp, #-96]	; 0xffffffa0
800023b4:	e3a03b01 	mov	r3, #1024	; 0x400
800023b8:	e50b305c 	str	r3, [fp, #-92]	; 0xffffffa4
800023bc:	e24b3064 	sub	r3, fp, #100	; 0x64
800023c0:	e1a01003 	mov	r1, r3
800023c4:	e51b00a8 	ldr	r0, [fp, #-168]	; 0xffffff58
800023c8:	eb00067c 	bl	0x80003dc0
800023cc:	e50b0010 	str	r0, [fp, #-16]
800023d0:	e51b3010 	ldr	r3, [fp, #-16]
800023d4:	e3530000 	cmp	r3, #0
800023d8:	1a000011 	bne	0x80002424
800023dc:	e51b302c 	ldr	r3, [fp, #-44]	; 0xffffffd4
800023e0:	e3a02b01 	mov	r2, #1024	; 0x400
800023e4:	e583225c 	str	r2, [r3, #604]	; 0x25c
800023e8:	e51b302c 	ldr	r3, [fp, #-44]	; 0xffffffd4
800023ec:	e2833e27 	add	r3, r3, #624	; 0x270
800023f0:	e14300d8 	ldrd	r0, [r3, #-8]
800023f4:	e51b302c 	ldr	r3, [fp, #-44]	; 0xffffffd4
800023f8:	e593325c 	ldr	r3, [r3, #604]	; 0x25c
800023fc:	e1a02003 	mov	r2, r3
80002400:	e3a03000 	mov	r3, #0
80002404:	eb002675 	bl	0x8000bde0
80002408:	e1a02000 	mov	r2, r0
8000240c:	e1a03001 	mov	r3, r1
80002410:	e51b102c 	ldr	r1, [fp, #-44]	; 0xffffffd4
80002414:	e2811e26 	add	r1, r1, #608	; 0x260
80002418:	e1c120f0 	strd	r2, [r1]
8000241c:	e3a03001 	mov	r3, #1
80002420:	e54b301d 	strb	r3, [fp, #-29]	; 0xffffffe3
80002424:	e55b301d 	ldrb	r3, [fp, #-29]	; 0xffffffe3
80002428:	e3530000 	cmp	r3, #0
8000242c:	1a000036 	bne	0x8000250c
80002430:	e3a03010 	mov	r3, #16
80002434:	e50b3064 	str	r3, [fp, #-100]	; 0xffffff9c
80002438:	e3a03001 	mov	r3, #1
8000243c:	e50b3060 	str	r3, [fp, #-96]	; 0xffffffa0
80002440:	e3a03c02 	mov	r3, #512	; 0x200
80002444:	e50b305c 	str	r3, [fp, #-92]	; 0xffffffa4
80002448:	e24b3064 	sub	r3, fp, #100	; 0x64
8000244c:	e1a01003 	mov	r1, r3
80002450:	e51b00a8 	ldr	r0, [fp, #-168]	; 0xffffff58
80002454:	eb000659 	bl	0x80003dc0
80002458:	e50b0010 	str	r0, [fp, #-16]
8000245c:	e51b3010 	ldr	r3, [fp, #-16]
80002460:	e3530000 	cmp	r3, #0
80002464:	1a000028 	bne	0x8000250c
80002468:	e51b302c 	ldr	r3, [fp, #-44]	; 0xffffffd4
8000246c:	e3a02b01 	mov	r2, #1024	; 0x400
80002470:	e583225c 	str	r2, [r3, #604]	; 0x25c
80002474:	e51b302c 	ldr	r3, [fp, #-44]	; 0xffffffd4
80002478:	e593325c 	ldr	r3, [r3, #604]	; 0x25c
8000247c:	e1a02003 	mov	r2, r3
80002480:	e3a03000 	mov	r3, #0
80002484:	e51b102c 	ldr	r1, [fp, #-44]	; 0xffffffd4
80002488:	e2811e27 	add	r1, r1, #624	; 0x270
8000248c:	e14120f8 	strd	r2, [r1, #-8]
80002490:	e51b302c 	ldr	r3, [fp, #-44]	; 0xffffffd4
80002494:	e2833e27 	add	r3, r3, #624	; 0x270
80002498:	e14300d8 	ldrd	r0, [r3, #-8]
8000249c:	e51b302c 	ldr	r3, [fp, #-44]	; 0xffffffd4
800024a0:	e593325c 	ldr	r3, [r3, #604]	; 0x25c
800024a4:	e1a02003 	mov	r2, r3
800024a8:	e3a03000 	mov	r3, #0
800024ac:	eb00264b 	bl	0x8000bde0
800024b0:	e1a02000 	mov	r2, r0
800024b4:	e1a03001 	mov	r3, r1
800024b8:	e51b102c 	ldr	r1, [fp, #-44]	; 0xffffffd4
800024bc:	e2811e26 	add	r1, r1, #608	; 0x260
800024c0:	e1c120f0 	strd	r2, [r1]
800024c4:	e51b302c 	ldr	r3, [fp, #-44]	; 0xffffffd4
800024c8:	e3a02c02 	mov	r2, #512	; 0x200
800024cc:	e583225c 	str	r2, [r3, #604]	; 0x25c
800024d0:	e51b302c 	ldr	r3, [fp, #-44]	; 0xffffffd4
800024d4:	e2833e27 	add	r3, r3, #624	; 0x270
800024d8:	e14300d8 	ldrd	r0, [r3, #-8]
800024dc:	e51b302c 	ldr	r3, [fp, #-44]	; 0xffffffd4
800024e0:	e593325c 	ldr	r3, [r3, #604]	; 0x25c
800024e4:	e1a02003 	mov	r2, r3
800024e8:	e3a03000 	mov	r3, #0
800024ec:	eb00263b 	bl	0x8000bde0
800024f0:	e1a02000 	mov	r2, r0
800024f4:	e1a03001 	mov	r3, r1
800024f8:	e51b102c 	ldr	r1, [fp, #-44]	; 0xffffffd4
800024fc:	e2811e26 	add	r1, r1, #608	; 0x260
80002500:	e1c120f0 	strd	r2, [r1]
80002504:	e3a03001 	mov	r3, #1
80002508:	e54b301d 	strb	r3, [fp, #-29]	; 0xffffffe3
8000250c:	e55b301d 	ldrb	r3, [fp, #-29]	; 0xffffffe3
80002510:	e3530001 	cmp	r3, #1
80002514:	e51b3010 	ldr	r3, [fp, #-16]
80002518:	e3530000 	cmp	r3, #0
8000251c:	1a000013 	bne	0x80002570
80002520:	e3a03009 	mov	r3, #9
80002524:	e50b3064 	str	r3, [fp, #-100]	; 0xffffff9c
80002528:	e3a03020 	mov	r3, #32
8000252c:	e50b3060 	str	r3, [fp, #-96]	; 0xffffffa0
80002530:	e51b302c 	ldr	r3, [fp, #-44]	; 0xffffffd4
80002534:	e5933024 	ldr	r3, [r3, #36]	; 0x24
80002538:	e1a03803 	lsl	r3, r3, #16
8000253c:	e50b305c 	str	r3, [fp, #-92]	; 0xffffffa4
80002540:	e24b3064 	sub	r3, fp, #100	; 0x64
80002544:	e1a01003 	mov	r1, r3
80002548:	e51b00a8 	ldr	r0, [fp, #-168]	; 0xffffff58
8000254c:	eb00061b 	bl	0x80003dc0
80002550:	e50b0010 	str	r0, [fp, #-16]
80002554:	e51b302c 	ldr	r3, [fp, #-44]	; 0xffffffd4
80002558:	e2830030 	add	r0, r3, #48	; 0x30
8000255c:	e24b3064 	sub	r3, fp, #100	; 0x64
80002560:	e2833018 	add	r3, r3, #24
80002564:	e3a02010 	mov	r2, #16
80002568:	e1a01003 	mov	r1, r3
8000256c:	eb0026a1 	bl	0x8000bff8
80002570:	e51b3010 	ldr	r3, [fp, #-16]
80002574:	e3530000 	cmp	r3, #0
80002578:	1a00009f 	bne	0x800027fc
8000257c:	e51b302c 	ldr	r3, [fp, #-44]	; 0xffffffd4
80002580:	e593303c 	ldr	r3, [r3, #60]	; 0x3c
80002584:	e1a03f23 	lsr	r3, r3, #30
80002588:	e3530000 	cmp	r3, #0
8000258c:	0a00002c 	beq	0x80002644
80002590:	e51b302c 	ldr	r3, [fp, #-44]	; 0xffffffd4
80002594:	e593303c 	ldr	r3, [r3, #60]	; 0x3c
80002598:	e6ef2073 	uxtb	r2, r3
8000259c:	e51b302c 	ldr	r3, [fp, #-44]	; 0xffffffd4
800025a0:	e5c32256 	strb	r2, [r3, #598]	; 0x256
800025a4:	e51b302c 	ldr	r3, [fp, #-44]	; 0xffffffd4
800025a8:	e5933038 	ldr	r3, [r3, #56]	; 0x38
800025ac:	e1a03823 	lsr	r3, r3, #16
800025b0:	e203300f 	and	r3, r3, #15
800025b4:	e3a02001 	mov	r2, #1
800025b8:	e1a02312 	lsl	r2, r2, r3
800025bc:	e51b302c 	ldr	r3, [fp, #-44]	; 0xffffffd4
800025c0:	e583225c 	str	r2, [r3, #604]	; 0x25c
800025c4:	e51b302c 	ldr	r3, [fp, #-44]	; 0xffffffd4
800025c8:	e5933038 	ldr	r3, [r3, #56]	; 0x38
800025cc:	e1a03803 	lsl	r3, r3, #16
800025d0:	e203283f 	and	r2, r3, #4128768	; 0x3f0000
800025d4:	e51b302c 	ldr	r3, [fp, #-44]	; 0xffffffd4
800025d8:	e5933034 	ldr	r3, [r3, #52]	; 0x34
800025dc:	e1a03823 	lsr	r3, r3, #16
800025e0:	e1823003 	orr	r3, r2, r3
800025e4:	e1a02003 	mov	r2, r3
800025e8:	e3a03000 	mov	r3, #0
800025ec:	e2922001 	adds	r2, r2, #1
800025f0:	e2a33000 	adc	r3, r3, #0
800025f4:	e1a05983 	lsl	r5, r3, #19
800025f8:	e18556a2 	orr	r5, r5, r2, lsr #13
800025fc:	e1a04982 	lsl	r4, r2, #19
80002600:	e51b302c 	ldr	r3, [fp, #-44]	; 0xffffffd4
80002604:	e2833e27 	add	r3, r3, #624	; 0x270
80002608:	e14340f8 	strd	r4, [r3, #-8]
8000260c:	e51b302c 	ldr	r3, [fp, #-44]	; 0xffffffd4
80002610:	e2833e27 	add	r3, r3, #624	; 0x270
80002614:	e14300d8 	ldrd	r0, [r3, #-8]
80002618:	e51b302c 	ldr	r3, [fp, #-44]	; 0xffffffd4
8000261c:	e593325c 	ldr	r3, [r3, #604]	; 0x25c
80002620:	e1a02003 	mov	r2, r3
80002624:	e3a03000 	mov	r3, #0
80002628:	eb0025ec 	bl	0x8000bde0
8000262c:	e1a02000 	mov	r2, r0
80002630:	e1a03001 	mov	r3, r1
80002634:	e51b102c 	ldr	r1, [fp, #-44]	; 0xffffffd4
80002638:	e2811e26 	add	r1, r1, #608	; 0x260
8000263c:	e1c120f0 	strd	r2, [r1]
80002640:	ea000058 	b	0x800027a8
80002644:	e51b302c 	ldr	r3, [fp, #-44]	; 0xffffffd4
80002648:	e593303c 	ldr	r3, [r3, #60]	; 0x3c
8000264c:	e6ef2073 	uxtb	r2, r3
80002650:	e51b302c 	ldr	r3, [fp, #-44]	; 0xffffffd4
80002654:	e5c32256 	strb	r2, [r3, #598]	; 0x256
80002658:	e51b302c 	ldr	r3, [fp, #-44]	; 0xffffffd4
8000265c:	e5933038 	ldr	r3, [r3, #56]	; 0x38
80002660:	e1a03823 	lsr	r3, r3, #16
80002664:	e203300f 	and	r3, r3, #15
80002668:	e3a02001 	mov	r2, #1
8000266c:	e1a02312 	lsl	r2, r2, r3
80002670:	e51b302c 	ldr	r3, [fp, #-44]	; 0xffffffd4
80002674:	e583225c 	str	r2, [r3, #604]	; 0x25c
80002678:	e51b302c 	ldr	r3, [fp, #-44]	; 0xffffffd4
8000267c:	e5933038 	ldr	r3, [r3, #56]	; 0x38
80002680:	e1a02103 	lsl	r2, r3, #2
80002684:	e3003ffc 	movw	r3, #4092	; 0xffc
80002688:	e0033002 	and	r3, r3, r2
8000268c:	e51b202c 	ldr	r2, [fp, #-44]	; 0xffffffd4
80002690:	e5922034 	ldr	r2, [r2, #52]	; 0x34
80002694:	e1a02f22 	lsr	r2, r2, #30
80002698:	e1833002 	orr	r3, r3, r2
8000269c:	e1a02003 	mov	r2, r3
800026a0:	e3a03000 	mov	r3, #0
800026a4:	e2920001 	adds	r0, r2, #1
800026a8:	e2a31000 	adc	r1, r3, #0
800026ac:	e51b302c 	ldr	r3, [fp, #-44]	; 0xffffffd4
800026b0:	e5933034 	ldr	r3, [r3, #52]	; 0x34
800026b4:	e1a037a3 	lsr	r3, r3, #15
800026b8:	e2033007 	and	r3, r3, #7
800026bc:	e2833002 	add	r3, r3, #2
800026c0:	e3a02001 	mov	r2, #1
800026c4:	e1a03312 	lsl	r3, r2, r3
800026c8:	e1a02003 	mov	r2, r3
800026cc:	e3a03000 	mov	r3, #0
800026d0:	e00e0192 	mul	lr, r2, r1
800026d4:	e00c0390 	mul	ip, r0, r3
800026d8:	e08ec00c 	add	ip, lr, ip
800026dc:	e0832290 	umull	r2, r3, r0, r2
800026e0:	e08c1003 	add	r1, ip, r3
800026e4:	e1a03001 	mov	r3, r1
800026e8:	e51b102c 	ldr	r1, [fp, #-44]	; 0xffffffd4
800026ec:	e5911038 	ldr	r1, [r1, #56]	; 0x38
800026f0:	e1a01821 	lsr	r1, r1, #16
800026f4:	e201100f 	and	r1, r1, #15
800026f8:	e3a00001 	mov	r0, #1
800026fc:	e1a01110 	lsl	r1, r0, r1
80002700:	e1a00001 	mov	r0, r1
80002704:	e3a01000 	mov	r1, #0
80002708:	e00e0390 	mul	lr, r0, r3
8000270c:	e00c0192 	mul	ip, r2, r1
80002710:	e08ec00c 	add	ip, lr, ip
80002714:	e0832092 	umull	r2, r3, r2, r0
80002718:	e08c1003 	add	r1, ip, r3
8000271c:	e1a03001 	mov	r3, r1
80002720:	e51b102c 	ldr	r1, [fp, #-44]	; 0xffffffd4
80002724:	e2811e27 	add	r1, r1, #624	; 0x270
80002728:	e14120f8 	strd	r2, [r1, #-8]
8000272c:	e51b302c 	ldr	r3, [fp, #-44]	; 0xffffffd4
80002730:	e5933038 	ldr	r3, [r3, #56]	; 0x38
80002734:	e1a02103 	lsl	r2, r3, #2
80002738:	e3003ffc 	movw	r3, #4092	; 0xffc
8000273c:	e0033002 	and	r3, r3, r2
80002740:	e51b202c 	ldr	r2, [fp, #-44]	; 0xffffffd4
80002744:	e5922034 	ldr	r2, [r2, #52]	; 0x34
80002748:	e1a02f22 	lsr	r2, r2, #30
8000274c:	e1833002 	orr	r3, r3, r2
80002750:	e1a02003 	mov	r2, r3
80002754:	e3a03000 	mov	r3, #0
80002758:	e2920001 	adds	r0, r2, #1
8000275c:	e2a31000 	adc	r1, r3, #0
80002760:	e51b302c 	ldr	r3, [fp, #-44]	; 0xffffffd4
80002764:	e5933034 	ldr	r3, [r3, #52]	; 0x34
80002768:	e1a037a3 	lsr	r3, r3, #15
8000276c:	e2033007 	and	r3, r3, #7
80002770:	e2833002 	add	r3, r3, #2
80002774:	e3a02001 	mov	r2, #1
80002778:	e1a03312 	lsl	r3, r2, r3
8000277c:	e1a02003 	mov	r2, r3
80002780:	e3a03000 	mov	r3, #0
80002784:	e00e0192 	mul	lr, r2, r1
80002788:	e00c0390 	mul	ip, r0, r3
8000278c:	e08ec00c 	add	ip, lr, ip
80002790:	e0832290 	umull	r2, r3, r0, r2
80002794:	e08c1003 	add	r1, ip, r3
80002798:	e1a03001 	mov	r3, r1
8000279c:	e51b102c 	ldr	r1, [fp, #-44]	; 0xffffffd4
800027a0:	e2811e26 	add	r1, r1, #608	; 0x260
800027a4:	e1c120f0 	strd	r2, [r1]
800027a8:	e51b302c 	ldr	r3, [fp, #-44]	; 0xffffffd4
800027ac:	e5d33257 	ldrb	r3, [r3, #599]	; 0x257
800027b0:	e3530000 	cmp	r3, #0
800027b4:	1a000010 	bne	0x800027fc
800027b8:	e3a03010 	mov	r3, #16
800027bc:	e50b3064 	str	r3, [fp, #-100]	; 0xffffff9c
800027c0:	e3a03001 	mov	r3, #1
800027c4:	e50b3060 	str	r3, [fp, #-96]	; 0xffffffa0
800027c8:	e3a03c02 	mov	r3, #512	; 0x200
800027cc:	e50b305c 	str	r3, [fp, #-92]	; 0xffffffa4
800027d0:	e24b3064 	sub	r3, fp, #100	; 0x64
800027d4:	e1a01003 	mov	r1, r3
800027d8:	e51b00a8 	ldr	r0, [fp, #-168]	; 0xffffff58
800027dc:	eb000577 	bl	0x80003dc0
800027e0:	e50b0010 	str	r0, [fp, #-16]
800027e4:	e51b3010 	ldr	r3, [fp, #-16]
800027e8:	e3530000 	cmp	r3, #0
800027ec:	1a000002 	bne	0x800027fc
800027f0:	e51b302c 	ldr	r3, [fp, #-44]	; 0xffffffd4
800027f4:	e3a02c02 	mov	r2, #512	; 0x200
800027f8:	e583225c 	str	r2, [r3, #604]	; 0x25c
800027fc:	e51b3010 	ldr	r3, [fp, #-16]
80002800:	e3530000 	cmp	r3, #0
80002804:	1a00000c 	bne	0x8000283c
80002808:	e3a03007 	mov	r3, #7
8000280c:	e50b3064 	str	r3, [fp, #-100]	; 0xffffff9c
80002810:	e3a03010 	mov	r3, #16
80002814:	e50b3060 	str	r3, [fp, #-96]	; 0xffffffa0
80002818:	e51b302c 	ldr	r3, [fp, #-44]	; 0xffffffd4
8000281c:	e5933024 	ldr	r3, [r3, #36]	; 0x24
80002820:	e1a03803 	lsl	r3, r3, #16
80002824:	e50b305c 	str	r3, [fp, #-92]	; 0xffffffa4
80002828:	e24b3064 	sub	r3, fp, #100	; 0x64
8000282c:	e1a01003 	mov	r1, r3
80002830:	e51b00a8 	ldr	r0, [fp, #-168]	; 0xffffff58
80002834:	eb000561 	bl	0x80003dc0
80002838:	e50b0010 	str	r0, [fp, #-16]
8000283c:	e51b3010 	ldr	r3, [fp, #-16]
80002840:	e3530000 	cmp	r3, #0
80002844:	1a00000c 	bne	0x8000287c
80002848:	e3a03037 	mov	r3, #55	; 0x37
8000284c:	e50b3064 	str	r3, [fp, #-100]	; 0xffffff9c
80002850:	e3a03000 	mov	r3, #0
80002854:	e50b3060 	str	r3, [fp, #-96]	; 0xffffffa0
80002858:	e51b302c 	ldr	r3, [fp, #-44]	; 0xffffffd4
8000285c:	e5933024 	ldr	r3, [r3, #36]	; 0x24
80002860:	e1a03803 	lsl	r3, r3, #16
80002864:	e50b305c 	str	r3, [fp, #-92]	; 0xffffffa4
80002868:	e24b3064 	sub	r3, fp, #100	; 0x64
8000286c:	e1a01003 	mov	r1, r3
80002870:	e51b00a8 	ldr	r0, [fp, #-168]	; 0xffffff58
80002874:	eb000551 	bl	0x80003dc0
80002878:	e50b0010 	str	r0, [fp, #-16]
8000287c:	e51b3010 	ldr	r3, [fp, #-16]
80002880:	e3530000 	cmp	r3, #0
80002884:	1a000013 	bne	0x800028d8
80002888:	e3a03033 	mov	r3, #51	; 0x33
8000288c:	e50b3064 	str	r3, [fp, #-100]	; 0xffffff9c
80002890:	e3a03d0b 	mov	r3, #704	; 0x2c0
80002894:	e50b3060 	str	r3, [fp, #-96]	; 0xffffffa0
80002898:	e51b302c 	ldr	r3, [fp, #-44]	; 0xffffffd4
8000289c:	e5933024 	ldr	r3, [r3, #36]	; 0x24
800028a0:	e1a03803 	lsl	r3, r3, #16
800028a4:	e50b305c 	str	r3, [fp, #-92]	; 0xffffffa4
800028a8:	e3a03001 	mov	r3, #1
800028ac:	e50b3050 	str	r3, [fp, #-80]	; 0xffffffb0
800028b0:	e3a03008 	mov	r3, #8
800028b4:	e50b3054 	str	r3, [fp, #-84]	; 0xffffffac
800028b8:	e30e3c00 	movw	r3, #60416	; 0xec00
800028bc:	e3483000 	movt	r3, #32768	; 0x8000
800028c0:	e50b3058 	str	r3, [fp, #-88]	; 0xffffffa8
800028c4:	e24b3064 	sub	r3, fp, #100	; 0x64
800028c8:	e1a01003 	mov	r1, r3
800028cc:	e51b00a8 	ldr	r0, [fp, #-168]	; 0xffffff58
800028d0:	eb00053a 	bl	0x80003dc0
800028d4:	e50b0010 	str	r0, [fp, #-16]
800028d8:	e51b3010 	ldr	r3, [fp, #-16]
800028dc:	e3530000 	cmp	r3, #0
800028e0:	1a000036 	bne	0x800029c0
800028e4:	e30e3c00 	movw	r3, #60416	; 0xec00
800028e8:	e3483000 	movt	r3, #32768	; 0x8000
800028ec:	e5d33003 	ldrb	r3, [r3, #3]
800028f0:	e1a02c03 	lsl	r2, r3, #24
800028f4:	e30e3c00 	movw	r3, #60416	; 0xec00
800028f8:	e3483000 	movt	r3, #32768	; 0x8000
800028fc:	e5d33002 	ldrb	r3, [r3, #2]
80002900:	e1a03803 	lsl	r3, r3, #16
80002904:	e1822003 	orr	r2, r2, r3
80002908:	e30e3c00 	movw	r3, #60416	; 0xec00
8000290c:	e3483000 	movt	r3, #32768	; 0x8000
80002910:	e5d33001 	ldrb	r3, [r3, #1]
80002914:	e1a03403 	lsl	r3, r3, #8
80002918:	e1822003 	orr	r2, r2, r3
8000291c:	e30e3c00 	movw	r3, #60416	; 0xec00
80002920:	e3483000 	movt	r3, #32768	; 0x8000
80002924:	e5d33000 	ldrb	r3, [r3]
80002928:	e1822003 	orr	r2, r2, r3
8000292c:	e51b302c 	ldr	r3, [fp, #-44]	; 0xffffffd4
80002930:	e5832028 	str	r2, [r3, #40]	; 0x28
80002934:	e30e3c00 	movw	r3, #60416	; 0xec00
80002938:	e3483000 	movt	r3, #32768	; 0x8000
8000293c:	e5d33007 	ldrb	r3, [r3, #7]
80002940:	e1a02c03 	lsl	r2, r3, #24
80002944:	e30e3c00 	movw	r3, #60416	; 0xec00
80002948:	e3483000 	movt	r3, #32768	; 0x8000
8000294c:	e5d33006 	ldrb	r3, [r3, #6]
80002950:	e1a03803 	lsl	r3, r3, #16
80002954:	e1822003 	orr	r2, r2, r3
80002958:	e30e3c00 	movw	r3, #60416	; 0xec00
8000295c:	e3483000 	movt	r3, #32768	; 0x8000
80002960:	e5d33005 	ldrb	r3, [r3, #5]
80002964:	e1a03403 	lsl	r3, r3, #8
80002968:	e1822003 	orr	r2, r2, r3
8000296c:	e30e3c00 	movw	r3, #60416	; 0xec00
80002970:	e3483000 	movt	r3, #32768	; 0x8000
80002974:	e5d33004 	ldrb	r3, [r3, #4]
80002978:	e1822003 	orr	r2, r2, r3
8000297c:	e51b302c 	ldr	r3, [fp, #-44]	; 0xffffffd4
80002980:	e583202c 	str	r2, [r3, #44]	; 0x2c
80002984:	e51b302c 	ldr	r3, [fp, #-44]	; 0xffffffd4
80002988:	e5933028 	ldr	r3, [r3, #40]	; 0x28
8000298c:	e6ef3073 	uxtb	r3, r3
80002990:	e203300f 	and	r3, r3, #15
80002994:	e6ef2073 	uxtb	r2, r3
80002998:	e51b302c 	ldr	r3, [fp, #-44]	; 0xffffffd4
8000299c:	e5c32254 	strb	r2, [r3, #596]	; 0x254
800029a0:	e51b302c 	ldr	r3, [fp, #-44]	; 0xffffffd4
800029a4:	e5933028 	ldr	r3, [r3, #40]	; 0x28
800029a8:	e1a03423 	lsr	r3, r3, #8
800029ac:	e6ef3073 	uxtb	r3, r3
800029b0:	e203300f 	and	r3, r3, #15
800029b4:	e6ef2073 	uxtb	r2, r3
800029b8:	e51b302c 	ldr	r3, [fp, #-44]	; 0xffffffd4
800029bc:	e5c32255 	strb	r2, [r3, #597]	; 0x255
800029c0:	e51b3010 	ldr	r3, [fp, #-16]
800029c4:	e3530000 	cmp	r3, #0
800029c8:	1a00000c 	bne	0x80002a00
800029cc:	e3a03037 	mov	r3, #55	; 0x37
800029d0:	e50b3064 	str	r3, [fp, #-100]	; 0xffffff9c
800029d4:	e3a03000 	mov	r3, #0
800029d8:	e50b3060 	str	r3, [fp, #-96]	; 0xffffffa0
800029dc:	e51b302c 	ldr	r3, [fp, #-44]	; 0xffffffd4
800029e0:	e5933024 	ldr	r3, [r3, #36]	; 0x24
800029e4:	e1a03803 	lsl	r3, r3, #16
800029e8:	e50b305c 	str	r3, [fp, #-92]	; 0xffffffa4
800029ec:	e24b3064 	sub	r3, fp, #100	; 0x64
800029f0:	e1a01003 	mov	r1, r3
800029f4:	e51b00a8 	ldr	r0, [fp, #-168]	; 0xffffff58
800029f8:	eb0004f0 	bl	0x80003dc0
800029fc:	e50b0010 	str	r0, [fp, #-16]
80002a00:	e51b3010 	ldr	r3, [fp, #-16]
80002a04:	e3530000 	cmp	r3, #0
80002a08:	1a00002b 	bne	0x80002abc
80002a0c:	e3a03006 	mov	r3, #6
80002a10:	e50b3064 	str	r3, [fp, #-100]	; 0xffffff9c
80002a14:	e3a03001 	mov	r3, #1
80002a18:	e50b305c 	str	r3, [fp, #-92]	; 0xffffffa4
80002a1c:	e3a03000 	mov	r3, #0
80002a20:	e50b3060 	str	r3, [fp, #-96]	; 0xffffffa0
80002a24:	e51b30a8 	ldr	r3, [fp, #-168]	; 0xffffff58
80002a28:	e5933008 	ldr	r3, [r3, #8]
80002a2c:	e593301c 	ldr	r3, [r3, #28]
80002a30:	e2033004 	and	r3, r3, #4
80002a34:	e3530000 	cmp	r3, #0
80002a38:	0a000006 	beq	0x80002a58
80002a3c:	e51b302c 	ldr	r3, [fp, #-44]	; 0xffffffd4
80002a40:	e5d33255 	ldrb	r3, [r3, #597]	; 0x255
80002a44:	e2033004 	and	r3, r3, #4
80002a48:	e3530000 	cmp	r3, #0
80002a4c:	0a000001 	beq	0x80002a58
80002a50:	e3a03004 	mov	r3, #4
80002a54:	e50b305c 	str	r3, [fp, #-92]	; 0xffffffa4
80002a58:	e51b305c 	ldr	r3, [fp, #-92]	; 0xffffffa4
80002a5c:	e1a030a3 	lsr	r3, r3, #1
80002a60:	e50b305c 	str	r3, [fp, #-92]	; 0xffffffa4
80002a64:	e24b3064 	sub	r3, fp, #100	; 0x64
80002a68:	e1a01003 	mov	r1, r3
80002a6c:	e51b00a8 	ldr	r0, [fp, #-168]	; 0xffffff58
80002a70:	eb0004d2 	bl	0x80003dc0
80002a74:	e50b0010 	str	r0, [fp, #-16]
80002a78:	e51b3010 	ldr	r3, [fp, #-16]
80002a7c:	e3530000 	cmp	r3, #0
80002a80:	1a00000d 	bne	0x80002abc
80002a84:	e51b305c 	ldr	r3, [fp, #-92]	; 0xffffffa4
80002a88:	e3530000 	cmp	r3, #0
80002a8c:	1a000005 	bne	0x80002aa8
80002a90:	e51b3030 	ldr	r3, [fp, #-48]	; 0xffffffd0
80002a94:	e5933004 	ldr	r3, [r3, #4]
80002a98:	e3a01001 	mov	r1, #1
80002a9c:	e1a00003 	mov	r0, r3
80002aa0:	eb000cc6 	bl	0x80005dc0
80002aa4:	ea000004 	b	0x80002abc
80002aa8:	e51b3030 	ldr	r3, [fp, #-48]	; 0xffffffd0
80002aac:	e5933004 	ldr	r3, [r3, #4]
80002ab0:	e3a01004 	mov	r1, #4
80002ab4:	e1a00003 	mov	r0, r3
80002ab8:	eb000cc0 	bl	0x80005dc0
80002abc:	e51b3010 	ldr	r3, [fp, #-16]
80002ac0:	e3530000 	cmp	r3, #0
80002ac4:	1a000012 	bne	0x80002b14
80002ac8:	e3a03006 	mov	r3, #6
80002acc:	e50b3064 	str	r3, [fp, #-100]	; 0xffffff9c
80002ad0:	e30f3ff0 	movw	r3, #65520	; 0xfff0
80002ad4:	e34030ff 	movt	r3, #255	; 0xff
80002ad8:	e50b305c 	str	r3, [fp, #-92]	; 0xffffffa4
80002adc:	e3a030c0 	mov	r3, #192	; 0xc0
80002ae0:	e50b3060 	str	r3, [fp, #-96]	; 0xffffffa0
80002ae4:	e3a03001 	mov	r3, #1
80002ae8:	e50b3050 	str	r3, [fp, #-80]	; 0xffffffb0
80002aec:	e3a03040 	mov	r3, #64	; 0x40
80002af0:	e50b3054 	str	r3, [fp, #-84]	; 0xffffffac
80002af4:	e30e3c00 	movw	r3, #60416	; 0xec00
80002af8:	e3483000 	movt	r3, #32768	; 0x8000
80002afc:	e50b3058 	str	r3, [fp, #-88]	; 0xffffffa8
80002b00:	e24b3064 	sub	r3, fp, #100	; 0x64
80002b04:	e1a01003 	mov	r1, r3
80002b08:	e51b00a8 	ldr	r0, [fp, #-168]	; 0xffffff58
80002b0c:	eb0004ab 	bl	0x80003dc0
80002b10:	e50b0010 	str	r0, [fp, #-16]
80002b14:	e51b3010 	ldr	r3, [fp, #-16]
80002b18:	e3530000 	cmp	r3, #0
80002b1c:	1a000096 	bne	0x80002d7c
80002b20:	e30e3744 	movw	r3, #59204	; 0xe744
80002b24:	e3483000 	movt	r3, #32768	; 0x8000
80002b28:	e24bc0a0 	sub	ip, fp, #160	; 0xa0
80002b2c:	e1a0e003 	mov	lr, r3
80002b30:	e8be000f 	ldm	lr!, {r0, r1, r2, r3}
80002b34:	e8ac000f 	stmia	ip!, {r0, r1, r2, r3}
80002b38:	e59e3000 	ldr	r3, [lr]
80002b3c:	e58c3000 	str	r3, [ip]
80002b40:	e3a03000 	mov	r3, #0
80002b44:	e50b3028 	str	r3, [fp, #-40]	; 0xffffffd8
80002b48:	ea000086 	b	0x80002d68
80002b4c:	e51b3028 	ldr	r3, [fp, #-40]	; 0xffffffd8
80002b50:	e1a03103 	lsl	r3, r3, #2
80002b54:	e24b200c 	sub	r2, fp, #12
80002b58:	e0823003 	add	r3, r2, r3
80002b5c:	e5133094 	ldr	r3, [r3, #-148]	; 0xffffff6c
80002b60:	e3530003 	cmp	r3, #3
80002b64:	1a000013 	bne	0x80002bb8
80002b68:	e51b302c 	ldr	r3, [fp, #-44]	; 0xffffffd4
80002b6c:	e5d33259 	ldrb	r3, [r3, #601]	; 0x259
80002b70:	e3530000 	cmp	r3, #0
80002b74:	0a00000f 	beq	0x80002bb8
80002b78:	e51b3030 	ldr	r3, [fp, #-48]	; 0xffffffd0
80002b7c:	e5933004 	ldr	r3, [r3, #4]
80002b80:	e1a00003 	mov	r0, r3
80002b84:	eb000e5f 	bl	0x80006508
80002b88:	e1a03000 	mov	r3, r0
80002b8c:	e3530000 	cmp	r3, #0
80002b90:	0a000008 	beq	0x80002bb8
80002b94:	e30e3c00 	movw	r3, #60416	; 0xec00
80002b98:	e3483000 	movt	r3, #32768	; 0x8000
80002b9c:	e5d3300d 	ldrb	r3, [r3, #13]
80002ba0:	e2033008 	and	r3, r3, #8
80002ba4:	e3530000 	cmp	r3, #0
80002ba8:	0a000002 	beq	0x80002bb8
80002bac:	e3a03003 	mov	r3, #3
80002bb0:	e50b3024 	str	r3, [fp, #-36]	; 0xffffffdc
80002bb4:	ea00005b 	b	0x80002d28
80002bb8:	e51b3028 	ldr	r3, [fp, #-40]	; 0xffffffd8
80002bbc:	e1a03103 	lsl	r3, r3, #2
80002bc0:	e24b200c 	sub	r2, fp, #12
80002bc4:	e0823003 	add	r3, r2, r3
80002bc8:	e5133094 	ldr	r3, [r3, #-148]	; 0xffffff6c
80002bcc:	e3530002 	cmp	r3, #2
80002bd0:	1a000013 	bne	0x80002c24
80002bd4:	e51b302c 	ldr	r3, [fp, #-44]	; 0xffffffd4
80002bd8:	e5d33259 	ldrb	r3, [r3, #601]	; 0x259
80002bdc:	e3530000 	cmp	r3, #0
80002be0:	0a00000f 	beq	0x80002c24
80002be4:	e51b3030 	ldr	r3, [fp, #-48]	; 0xffffffd0
80002be8:	e5933004 	ldr	r3, [r3, #4]
80002bec:	e1a00003 	mov	r0, r3
80002bf0:	eb000e52 	bl	0x80006540
80002bf4:	e1a03000 	mov	r3, r0
80002bf8:	e3530000 	cmp	r3, #0
80002bfc:	0a000008 	beq	0x80002c24
80002c00:	e30e3c00 	movw	r3, #60416	; 0xec00
80002c04:	e3483000 	movt	r3, #32768	; 0x8000
80002c08:	e5d3300d 	ldrb	r3, [r3, #13]
80002c0c:	e2033004 	and	r3, r3, #4
80002c10:	e3530000 	cmp	r3, #0
80002c14:	0a000002 	beq	0x80002c24
80002c18:	e3a03002 	mov	r3, #2
80002c1c:	e50b3024 	str	r3, [fp, #-36]	; 0xffffffdc
80002c20:	ea000040 	b	0x80002d28
80002c24:	e51b3028 	ldr	r3, [fp, #-40]	; 0xffffffd8
80002c28:	e1a03103 	lsl	r3, r3, #2
80002c2c:	e24b200c 	sub	r2, fp, #12
80002c30:	e0823003 	add	r3, r2, r3
80002c34:	e5133094 	ldr	r3, [r3, #-148]	; 0xffffff6c
80002c38:	e3530004 	cmp	r3, #4
80002c3c:	1a000013 	bne	0x80002c90
80002c40:	e51b302c 	ldr	r3, [fp, #-44]	; 0xffffffd4
80002c44:	e5d33259 	ldrb	r3, [r3, #601]	; 0x259
80002c48:	e3530000 	cmp	r3, #0
80002c4c:	0a00000f 	beq	0x80002c90
80002c50:	e51b3030 	ldr	r3, [fp, #-48]	; 0xffffffd0
80002c54:	e5933004 	ldr	r3, [r3, #4]
80002c58:	e1a00003 	mov	r0, r3
80002c5c:	eb000e1b 	bl	0x800064d0
80002c60:	e1a03000 	mov	r3, r0
80002c64:	e3530000 	cmp	r3, #0
80002c68:	0a000008 	beq	0x80002c90
80002c6c:	e30e3c00 	movw	r3, #60416	; 0xec00
80002c70:	e3483000 	movt	r3, #32768	; 0x8000
80002c74:	e5d3300d 	ldrb	r3, [r3, #13]
80002c78:	e2033010 	and	r3, r3, #16
80002c7c:	e3530000 	cmp	r3, #0
80002c80:	0a000002 	beq	0x80002c90
80002c84:	e3a03004 	mov	r3, #4
80002c88:	e50b3024 	str	r3, [fp, #-36]	; 0xffffffdc
80002c8c:	ea000025 	b	0x80002d28
80002c90:	e51b3028 	ldr	r3, [fp, #-40]	; 0xffffffd8
80002c94:	e1a03103 	lsl	r3, r3, #2
80002c98:	e24b200c 	sub	r2, fp, #12
80002c9c:	e0823003 	add	r3, r2, r3
80002ca0:	e5133094 	ldr	r3, [r3, #-148]	; 0xffffff6c
80002ca4:	e3530001 	cmp	r3, #1
80002ca8:	1a00000f 	bne	0x80002cec
80002cac:	e51b3030 	ldr	r3, [fp, #-48]	; 0xffffffd0
80002cb0:	e5933004 	ldr	r3, [r3, #4]
80002cb4:	e1a00003 	mov	r0, r3
80002cb8:	eb000df6 	bl	0x80006498
80002cbc:	e1a03000 	mov	r3, r0
80002cc0:	e3530000 	cmp	r3, #0
80002cc4:	0a000008 	beq	0x80002cec
80002cc8:	e30e3c00 	movw	r3, #60416	; 0xec00
80002ccc:	e3483000 	movt	r3, #32768	; 0x8000
80002cd0:	e5d3300d 	ldrb	r3, [r3, #13]
80002cd4:	e2033002 	and	r3, r3, #2
80002cd8:	e3530000 	cmp	r3, #0
80002cdc:	0a000002 	beq	0x80002cec
80002ce0:	e3a03001 	mov	r3, #1
80002ce4:	e50b3024 	str	r3, [fp, #-36]	; 0xffffffdc
80002ce8:	ea00000e 	b	0x80002d28
80002cec:	e51b3028 	ldr	r3, [fp, #-40]	; 0xffffffd8
80002cf0:	e1a03103 	lsl	r3, r3, #2
80002cf4:	e24b200c 	sub	r2, fp, #12
80002cf8:	e0823003 	add	r3, r2, r3
80002cfc:	e5133094 	ldr	r3, [r3, #-148]	; 0xffffff6c
80002d00:	e3530000 	cmp	r3, #0
80002d04:	1a000013 	bne	0x80002d58
80002d08:	e30e3c00 	movw	r3, #60416	; 0xec00
80002d0c:	e3483000 	movt	r3, #32768	; 0x8000
80002d10:	e5d3300d 	ldrb	r3, [r3, #13]
80002d14:	e2033001 	and	r3, r3, #1
80002d18:	e3530000 	cmp	r3, #0
80002d1c:	0a00000d 	beq	0x80002d58
80002d20:	e3a03000 	mov	r3, #0
80002d24:	e50b3024 	str	r3, [fp, #-36]	; 0xffffffdc
80002d28:	e3a01003 	mov	r1, #3
80002d2c:	e51b00a8 	ldr	r0, [fp, #-168]	; 0xffffff58
80002d30:	eb000117 	bl	0x80003194
80002d34:	e50b0010 	str	r0, [fp, #-16]
80002d38:	e51b1024 	ldr	r1, [fp, #-36]	; 0xffffffdc
80002d3c:	e51b00a8 	ldr	r0, [fp, #-168]	; 0xffffff58
80002d40:	eb000016 	bl	0x80002da0
80002d44:	e50b0010 	str	r0, [fp, #-16]
80002d48:	e51b3010 	ldr	r3, [fp, #-16]
80002d4c:	e3530000 	cmp	r3, #0
80002d50:	0a000008 	beq	0x80002d78
80002d54:	ea000000 	b	0x80002d5c
80002d58:	e320f000 	nop	{0}
80002d5c:	e51b3028 	ldr	r3, [fp, #-40]	; 0xffffffd8
80002d60:	e2833001 	add	r3, r3, #1
80002d64:	e50b3028 	str	r3, [fp, #-40]	; 0xffffffd8
80002d68:	e51b3028 	ldr	r3, [fp, #-40]	; 0xffffffd8
80002d6c:	e3530004 	cmp	r3, #4
80002d70:	daffff75 	ble	0x80002b4c
80002d74:	ea000000 	b	0x80002d7c
80002d78:	e320f000 	nop	{0}
80002d7c:	e51b3010 	ldr	r3, [fp, #-16]
80002d80:	e3530000 	cmp	r3, #0
80002d84:	0a000001 	beq	0x80002d90
80002d88:	e51b00a8 	ldr	r0, [fp, #-168]	; 0xffffff58
80002d8c:	ebfff9d5 	bl	0x800014e8
80002d90:	e51b3010 	ldr	r3, [fp, #-16]
80002d94:	e1a00003 	mov	r0, r3
80002d98:	e24bd00c 	sub	sp, fp, #12
80002d9c:	e8bd8830 	pop	{r4, r5, fp, pc}
80002da0:	e92d4800 	push	{fp, lr}
80002da4:	e28db004 	add	fp, sp, #4
80002da8:	e24dd060 	sub	sp, sp, #96	; 0x60
80002dac:	e50b0060 	str	r0, [fp, #-96]	; 0xffffffa0
80002db0:	e50b1064 	str	r1, [fp, #-100]	; 0xffffff9c
80002db4:	e3e03000 	mvn	r3, #0
80002db8:	e50b3008 	str	r3, [fp, #-8]
80002dbc:	e3a03000 	mov	r3, #0
80002dc0:	e50b3018 	str	r3, [fp, #-24]	; 0xffffffe8
80002dc4:	e3a03000 	mov	r3, #0
80002dc8:	e50b301c 	str	r3, [fp, #-28]	; 0xffffffe4
80002dcc:	e3a03000 	mov	r3, #0
80002dd0:	e14b30be 	strh	r3, [fp, #-14]
80002dd4:	e3a03001 	mov	r3, #1
80002dd8:	e14b31b0 	strh	r3, [fp, #-16]
80002ddc:	e3a03000 	mov	r3, #0
80002de0:	e50b3058 	str	r3, [fp, #-88]	; 0xffffffa8
80002de4:	e3a03032 	mov	r3, #50	; 0x32
80002de8:	e50b3054 	str	r3, [fp, #-84]	; 0xffffffac
80002dec:	e3a03000 	mov	r3, #0
80002df0:	e50b3050 	str	r3, [fp, #-80]	; 0xffffffb0
80002df4:	e3a03000 	mov	r3, #0
80002df8:	e50b304c 	str	r3, [fp, #-76]	; 0xffffffb4
80002dfc:	e51b3060 	ldr	r3, [fp, #-96]	; 0xffffffa0
80002e00:	e5933004 	ldr	r3, [r3, #4]
80002e04:	e50b3018 	str	r3, [fp, #-24]	; 0xffffffe8
80002e08:	e51b3060 	ldr	r3, [fp, #-96]	; 0xffffffa0
80002e0c:	e5933008 	ldr	r3, [r3, #8]
80002e10:	e50b301c 	str	r3, [fp, #-28]	; 0xffffffe4
80002e14:	e3a02040 	mov	r2, #64	; 0x40
80002e18:	e3a01000 	mov	r1, #0
80002e1c:	e30e0c00 	movw	r0, #60416	; 0xec00
80002e20:	e3480000 	movt	r0, #32768	; 0x8000
80002e24:	eb00247b 	bl	0x8000c018
80002e28:	e3a03006 	mov	r3, #6
80002e2c:	e50b3048 	str	r3, [fp, #-72]	; 0xffffffb8
80002e30:	e51b2064 	ldr	r2, [fp, #-100]	; 0xffffff9c
80002e34:	e30f3ff0 	movw	r3, #65520	; 0xfff0
80002e38:	e34830ff 	movt	r3, #33023	; 0x80ff
80002e3c:	e1823003 	orr	r3, r2, r3
80002e40:	e50b3040 	str	r3, [fp, #-64]	; 0xffffffc0
80002e44:	e3a030c0 	mov	r3, #192	; 0xc0
80002e48:	e50b3044 	str	r3, [fp, #-68]	; 0xffffffbc
80002e4c:	e3a03001 	mov	r3, #1
80002e50:	e50b3034 	str	r3, [fp, #-52]	; 0xffffffcc
80002e54:	e3a03040 	mov	r3, #64	; 0x40
80002e58:	e50b3038 	str	r3, [fp, #-56]	; 0xffffffc8
80002e5c:	e30e3d00 	movw	r3, #60672	; 0xed00
80002e60:	e3483000 	movt	r3, #32768	; 0x8000
80002e64:	e50b303c 	str	r3, [fp, #-60]	; 0xffffffc4
80002e68:	e24b3048 	sub	r3, fp, #72	; 0x48
80002e6c:	e1a01003 	mov	r1, r3
80002e70:	e51b0060 	ldr	r0, [fp, #-96]	; 0xffffffa0
80002e74:	eb0003d1 	bl	0x80003dc0
80002e78:	e50b0008 	str	r0, [fp, #-8]
80002e7c:	e51b3008 	ldr	r3, [fp, #-8]
80002e80:	e3530000 	cmp	r3, #0
80002e84:	1a0000be 	bne	0x80003184
80002e88:	e30e3d00 	movw	r3, #60672	; 0xed00
80002e8c:	e3483000 	movt	r3, #32768	; 0x8000
80002e90:	e5d33010 	ldrb	r3, [r3, #16]
80002e94:	e203300f 	and	r3, r3, #15
80002e98:	e3530003 	cmp	r3, #3
80002e9c:	1a00000c 	bne	0x80002ed4
80002ea0:	e51b3064 	ldr	r3, [fp, #-100]	; 0xffffff9c
80002ea4:	e3530003 	cmp	r3, #3
80002ea8:	1a000009 	bne	0x80002ed4
80002eac:	e3a0302b 	mov	r3, #43	; 0x2b
80002eb0:	e50b3014 	str	r3, [fp, #-20]	; 0xffffffec
80002eb4:	e3a03003 	mov	r3, #3
80002eb8:	e50b300c 	str	r3, [fp, #-12]
80002ebc:	e3a03001 	mov	r3, #1
80002ec0:	e14b30be 	strh	r3, [fp, #-14]
80002ec4:	e3a03b35 	mov	r3, #54272	; 0xd400
80002ec8:	e3403c65 	movt	r3, #3173	; 0xc65
80002ecc:	e50b305c 	str	r3, [fp, #-92]	; 0xffffffa4
80002ed0:	ea000045 	b	0x80002fec
80002ed4:	e30e3d00 	movw	r3, #60672	; 0xed00
80002ed8:	e3483000 	movt	r3, #32768	; 0x8000
80002edc:	e5d33010 	ldrb	r3, [r3, #16]
80002ee0:	e203300f 	and	r3, r3, #15
80002ee4:	e3530002 	cmp	r3, #2
80002ee8:	1a00000a 	bne	0x80002f18
80002eec:	e51b3064 	ldr	r3, [fp, #-100]	; 0xffffff9c
80002ef0:	e3530002 	cmp	r3, #2
80002ef4:	1a000007 	bne	0x80002f18
80002ef8:	e3a0300b 	mov	r3, #11
80002efc:	e50b3014 	str	r3, [fp, #-20]	; 0xffffffec
80002f00:	e3a03002 	mov	r3, #2
80002f04:	e50b300c 	str	r3, [fp, #-12]
80002f08:	e3a03ce1 	mov	r3, #57600	; 0xe100
80002f0c:	e34035f5 	movt	r3, #1525	; 0x5f5
80002f10:	e50b305c 	str	r3, [fp, #-92]	; 0xffffffa4
80002f14:	ea000034 	b	0x80002fec
80002f18:	e30e3d00 	movw	r3, #60672	; 0xed00
80002f1c:	e3483000 	movt	r3, #32768	; 0x8000
80002f20:	e5d33010 	ldrb	r3, [r3, #16]
80002f24:	e203300f 	and	r3, r3, #15
80002f28:	e3530004 	cmp	r3, #4
80002f2c:	1a00000a 	bne	0x80002f5c
80002f30:	e51b3064 	ldr	r3, [fp, #-100]	; 0xffffff9c
80002f34:	e3530004 	cmp	r3, #4
80002f38:	1a000007 	bne	0x80002f5c
80002f3c:	e3a0303b 	mov	r3, #59	; 0x3b
80002f40:	e50b3014 	str	r3, [fp, #-20]	; 0xffffffec
80002f44:	e3a03004 	mov	r3, #4
80002f48:	e50b300c 	str	r3, [fp, #-12]
80002f4c:	e30f3080 	movw	r3, #61568	; 0xf080
80002f50:	e34032fa 	movt	r3, #762	; 0x2fa
80002f54:	e50b305c 	str	r3, [fp, #-92]	; 0xffffffa4
80002f58:	ea000023 	b	0x80002fec
80002f5c:	e30e3d00 	movw	r3, #60672	; 0xed00
80002f60:	e3483000 	movt	r3, #32768	; 0x8000
80002f64:	e5d33010 	ldrb	r3, [r3, #16]
80002f68:	e203300f 	and	r3, r3, #15
80002f6c:	e3530001 	cmp	r3, #1
80002f70:	1a00000a 	bne	0x80002fa0
80002f74:	e51b3064 	ldr	r3, [fp, #-100]	; 0xffffff9c
80002f78:	e3530001 	cmp	r3, #1
80002f7c:	1a000007 	bne	0x80002fa0
80002f80:	e3a0305a 	mov	r3, #90	; 0x5a
80002f84:	e50b3014 	str	r3, [fp, #-20]	; 0xffffffec
80002f88:	e3a03001 	mov	r3, #1
80002f8c:	e50b300c 	str	r3, [fp, #-12]
80002f90:	e30f3080 	movw	r3, #61568	; 0xf080
80002f94:	e34032fa 	movt	r3, #762	; 0x2fa
80002f98:	e50b305c 	str	r3, [fp, #-92]	; 0xffffffa4
80002f9c:	ea000012 	b	0x80002fec
80002fa0:	e30e3d00 	movw	r3, #60672	; 0xed00
80002fa4:	e3483000 	movt	r3, #32768	; 0x8000
80002fa8:	e5d33010 	ldrb	r3, [r3, #16]
80002fac:	e203300f 	and	r3, r3, #15
80002fb0:	e3530000 	cmp	r3, #0
80002fb4:	1a00000a 	bne	0x80002fe4
80002fb8:	e51b3064 	ldr	r3, [fp, #-100]	; 0xffffff9c
80002fbc:	e3530000 	cmp	r3, #0
80002fc0:	1a000007 	bne	0x80002fe4
80002fc4:	e3a03032 	mov	r3, #50	; 0x32
80002fc8:	e50b3014 	str	r3, [fp, #-20]	; 0xffffffec
80002fcc:	e3a03000 	mov	r3, #0
80002fd0:	e50b300c 	str	r3, [fp, #-12]
80002fd4:	e3073840 	movw	r3, #30784	; 0x7840
80002fd8:	e340317d 	movt	r3, #381	; 0x17d
80002fdc:	e50b305c 	str	r3, [fp, #-92]	; 0xffffffa4
80002fe0:	ea000001 	b	0x80002fec
80002fe4:	e3a03000 	mov	r3, #0
80002fe8:	e14b31b0 	strh	r3, [fp, #-16]
80002fec:	e15b31b0 	ldrh	r3, [fp, #-16]
80002ff0:	e3530000 	cmp	r3, #0
80002ff4:	0a000060 	beq	0x8000317c
80002ff8:	e51b301c 	ldr	r3, [fp, #-28]	; 0xffffffe4
80002ffc:	e5933004 	ldr	r3, [r3, #4]
80003000:	e3a01000 	mov	r1, #0
80003004:	e1a00003 	mov	r0, r3
80003008:	eb000c00 	bl	0x80006010
8000300c:	e51b301c 	ldr	r3, [fp, #-28]	; 0xffffffe4
80003010:	e5933004 	ldr	r3, [r3, #4]
80003014:	e1a00003 	mov	r0, r3
80003018:	eb000be3 	bl	0x80005fac
8000301c:	e51b301c 	ldr	r3, [fp, #-28]	; 0xffffffe4
80003020:	e5933004 	ldr	r3, [r3, #4]
80003024:	e3a01402 	mov	r1, #33554432	; 0x2000000
80003028:	e1a00003 	mov	r0, r3
8000302c:	eb000af3 	bl	0x80005c00
80003030:	e51b301c 	ldr	r3, [fp, #-28]	; 0xffffffe4
80003034:	e5933004 	ldr	r3, [r3, #4]
80003038:	e3a01301 	mov	r1, #67108864	; 0x4000000
8000303c:	e1a00003 	mov	r0, r3
80003040:	eb000aee 	bl	0x80005c00
80003044:	e51b301c 	ldr	r3, [fp, #-28]	; 0xffffffe4
80003048:	e5933034 	ldr	r3, [r3, #52]	; 0x34
8000304c:	e3530000 	cmp	r3, #0
80003050:	0a00000d 	beq	0x8000308c
80003054:	e51b301c 	ldr	r3, [fp, #-28]	; 0xffffffe4
80003058:	e5933034 	ldr	r3, [r3, #52]	; 0x34
8000305c:	e51b201c 	ldr	r2, [fp, #-28]	; 0xffffffe4
80003060:	e5920000 	ldr	r0, [r2]
80003064:	e24b105c 	sub	r1, fp, #92	; 0x5c
80003068:	e3a02001 	mov	r2, #1
8000306c:	e12fff33 	blx	r3
80003070:	e50b0020 	str	r0, [fp, #-32]	; 0xffffffe0
80003074:	e51b3020 	ldr	r3, [fp, #-32]	; 0xffffffe0
80003078:	e3530000 	cmp	r3, #0
8000307c:	0a000002 	beq	0x8000308c
80003080:	e51b301c 	ldr	r3, [fp, #-28]	; 0xffffffe4
80003084:	e51b2020 	ldr	r2, [fp, #-32]	; 0xffffffe0
80003088:	e5832010 	str	r2, [r3, #16]
8000308c:	e51b301c 	ldr	r3, [fp, #-28]	; 0xffffffe4
80003090:	e5930004 	ldr	r0, [r3, #4]
80003094:	e51b301c 	ldr	r3, [fp, #-28]	; 0xffffffe4
80003098:	e5931010 	ldr	r1, [r3, #16]
8000309c:	e51b205c 	ldr	r2, [fp, #-92]	; 0xffffffa4
800030a0:	e3a03000 	mov	r3, #0
800030a4:	eb000d45 	bl	0x800065c0
800030a8:	e1a03000 	mov	r3, r0
800030ac:	e3530001 	cmp	r3, #1
800030b0:	1a000010 	bne	0x800030f8
800030b4:	e51b301c 	ldr	r3, [fp, #-28]	; 0xffffffe4
800030b8:	e593302c 	ldr	r3, [r3, #44]	; 0x2c
800030bc:	e3530000 	cmp	r3, #0
800030c0:	0a00000a 	beq	0x800030f0
800030c4:	e51b3014 	ldr	r3, [fp, #-20]	; 0xffffffec
800030c8:	e50b3054 	str	r3, [fp, #-84]	; 0xffffffac
800030cc:	e51b301c 	ldr	r3, [fp, #-28]	; 0xffffffe4
800030d0:	e593302c 	ldr	r3, [r3, #44]	; 0x2c
800030d4:	e51b201c 	ldr	r2, [fp, #-28]	; 0xffffffe4
800030d8:	e5922000 	ldr	r2, [r2]
800030dc:	e24b1058 	sub	r1, fp, #88	; 0x58
800030e0:	e1a00002 	mov	r0, r2
800030e4:	e12fff33 	blx	r3
800030e8:	e50b0008 	str	r0, [fp, #-8]
800030ec:	ea000001 	b	0x800030f8
800030f0:	e3a03000 	mov	r3, #0
800030f4:	e50b3008 	str	r3, [fp, #-8]
800030f8:	e51b301c 	ldr	r3, [fp, #-28]	; 0xffffffe4
800030fc:	e5933004 	ldr	r3, [r3, #4]
80003100:	e2830f8b 	add	r0, r3, #556	; 0x22c
80003104:	e3a03000 	mov	r3, #0
80003108:	e3a02002 	mov	r2, #2
8000310c:	e3a01004 	mov	r1, #4
80003110:	ebfff7a2 	bl	0x80000fa0
80003114:	e51b301c 	ldr	r3, [fp, #-28]	; 0xffffffe4
80003118:	e5933004 	ldr	r3, [r3, #4]
8000311c:	e51b100c 	ldr	r1, [fp, #-12]
80003120:	e1a00003 	mov	r0, r3
80003124:	eb000c1b 	bl	0x80006198
80003128:	e51b301c 	ldr	r3, [fp, #-28]	; 0xffffffe4
8000312c:	e5933004 	ldr	r3, [r3, #4]
80003130:	e2830f8b 	add	r0, r3, #556	; 0x22c
80003134:	e3a03001 	mov	r3, #1
80003138:	e3a02002 	mov	r2, #2
8000313c:	e3a01004 	mov	r1, #4
80003140:	ebfff796 	bl	0x80000fa0
80003144:	e15b30be 	ldrh	r3, [fp, #-14]
80003148:	e3530000 	cmp	r3, #0
8000314c:	0a000002 	beq	0x8000315c
80003150:	e51b0060 	ldr	r0, [fp, #-96]	; 0xffffffa0
80003154:	eb0000a9 	bl	0x80003400
80003158:	e50b0008 	str	r0, [fp, #-8]
8000315c:	e51b3008 	ldr	r3, [fp, #-8]
80003160:	e3530000 	cmp	r3, #0
80003164:	1a000006 	bne	0x80003184
80003168:	e51b3014 	ldr	r3, [fp, #-20]	; 0xffffffec
8000316c:	e6ef2073 	uxtb	r2, r3
80003170:	e51b3018 	ldr	r3, [fp, #-24]	; 0xffffffe8
80003174:	e5c32256 	strb	r2, [r3, #598]	; 0x256
80003178:	ea000001 	b	0x80003184
8000317c:	e3e03000 	mvn	r3, #0
80003180:	e50b3008 	str	r3, [fp, #-8]
80003184:	e51b3008 	ldr	r3, [fp, #-8]
80003188:	e1a00003 	mov	r0, r3
8000318c:	e24bd004 	sub	sp, fp, #4
80003190:	e8bd8800 	pop	{fp, pc}
80003194:	e92d4800 	push	{fp, lr}
80003198:	e28db004 	add	fp, sp, #4
8000319c:	e24dd038 	sub	sp, sp, #56	; 0x38
800031a0:	e50b0038 	str	r0, [fp, #-56]	; 0xffffffc8
800031a4:	e50b103c 	str	r1, [fp, #-60]	; 0xffffffc4
800031a8:	e3a03000 	mov	r3, #0
800031ac:	e50b3008 	str	r3, [fp, #-8]
800031b0:	e3a02040 	mov	r2, #64	; 0x40
800031b4:	e3a01000 	mov	r1, #0
800031b8:	e30e0c00 	movw	r0, #60416	; 0xec00
800031bc:	e3480000 	movt	r0, #32768	; 0x8000
800031c0:	eb002394 	bl	0x8000c018
800031c4:	e3a03006 	mov	r3, #6
800031c8:	e50b3030 	str	r3, [fp, #-48]	; 0xffffffd0
800031cc:	e51b303c 	ldr	r3, [fp, #-60]	; 0xffffffc4
800031d0:	e1a02603 	lsl	r2, r3, #12
800031d4:	e3003fff 	movw	r3, #4095	; 0xfff
800031d8:	e34830ff 	movt	r3, #33023	; 0x80ff
800031dc:	e1823003 	orr	r3, r2, r3
800031e0:	e50b3028 	str	r3, [fp, #-40]	; 0xffffffd8
800031e4:	e3a030c0 	mov	r3, #192	; 0xc0
800031e8:	e50b302c 	str	r3, [fp, #-44]	; 0xffffffd4
800031ec:	e3a03001 	mov	r3, #1
800031f0:	e50b301c 	str	r3, [fp, #-28]	; 0xffffffe4
800031f4:	e3a03040 	mov	r3, #64	; 0x40
800031f8:	e50b3020 	str	r3, [fp, #-32]	; 0xffffffe0
800031fc:	e30e3d00 	movw	r3, #60672	; 0xed00
80003200:	e3483000 	movt	r3, #32768	; 0x8000
80003204:	e50b3024 	str	r3, [fp, #-36]	; 0xffffffdc
80003208:	e24b3030 	sub	r3, fp, #48	; 0x30
8000320c:	e1a01003 	mov	r1, r3
80003210:	e51b0038 	ldr	r0, [fp, #-56]	; 0xffffffc8
80003214:	eb0002e9 	bl	0x80003dc0
80003218:	e50b0008 	str	r0, [fp, #-8]
8000321c:	e51b3008 	ldr	r3, [fp, #-8]
80003220:	e3530000 	cmp	r3, #0
80003224:	1a000029 	bne	0x800032d0
80003228:	e30e3d00 	movw	r3, #60672	; 0xed00
8000322c:	e3483000 	movt	r3, #32768	; 0x8000
80003230:	e5d3300f 	ldrb	r3, [r3, #15]
80003234:	e1a03223 	lsr	r3, r3, #4
80003238:	e6ef3073 	uxtb	r3, r3
8000323c:	e3530000 	cmp	r3, #0
80003240:	1a000002 	bne	0x80003250
80003244:	e51b303c 	ldr	r3, [fp, #-60]	; 0xffffffc4
80003248:	e3530000 	cmp	r3, #0
8000324c:	0a00001f 	beq	0x800032d0
80003250:	e30e3d00 	movw	r3, #60672	; 0xed00
80003254:	e3483000 	movt	r3, #32768	; 0x8000
80003258:	e5d3300f 	ldrb	r3, [r3, #15]
8000325c:	e1a03223 	lsr	r3, r3, #4
80003260:	e6ef3073 	uxtb	r3, r3
80003264:	e3530001 	cmp	r3, #1
80003268:	1a000002 	bne	0x80003278
8000326c:	e51b303c 	ldr	r3, [fp, #-60]	; 0xffffffc4
80003270:	e3530001 	cmp	r3, #1
80003274:	0a000015 	beq	0x800032d0
80003278:	e30e3d00 	movw	r3, #60672	; 0xed00
8000327c:	e3483000 	movt	r3, #32768	; 0x8000
80003280:	e5d3300f 	ldrb	r3, [r3, #15]
80003284:	e1a03223 	lsr	r3, r3, #4
80003288:	e6ef3073 	uxtb	r3, r3
8000328c:	e3530002 	cmp	r3, #2
80003290:	1a000002 	bne	0x800032a0
80003294:	e51b303c 	ldr	r3, [fp, #-60]	; 0xffffffc4
80003298:	e3530002 	cmp	r3, #2
8000329c:	0a00000b 	beq	0x800032d0
800032a0:	e30e3d00 	movw	r3, #60672	; 0xed00
800032a4:	e3483000 	movt	r3, #32768	; 0x8000
800032a8:	e5d3300f 	ldrb	r3, [r3, #15]
800032ac:	e1a03223 	lsr	r3, r3, #4
800032b0:	e6ef3073 	uxtb	r3, r3
800032b4:	e3530003 	cmp	r3, #3
800032b8:	1a000002 	bne	0x800032c8
800032bc:	e51b303c 	ldr	r3, [fp, #-60]	; 0xffffffc4
800032c0:	e3530003 	cmp	r3, #3
800032c4:	0a000001 	beq	0x800032d0
800032c8:	e3e03000 	mvn	r3, #0
800032cc:	e50b3008 	str	r3, [fp, #-8]
800032d0:	e51b3008 	ldr	r3, [fp, #-8]
800032d4:	e1a00003 	mov	r0, r3
800032d8:	e24bd004 	sub	sp, fp, #4
800032dc:	e8bd8800 	pop	{fp, pc}
800032e0:	e92d4800 	push	{fp, lr}
800032e4:	e28db004 	add	fp, sp, #4
800032e8:	e24dd088 	sub	sp, sp, #136	; 0x88
800032ec:	e50b0088 	str	r0, [fp, #-136]	; 0xffffff78
800032f0:	e24b3058 	sub	r3, fp, #88	; 0x58
800032f4:	e3a02040 	mov	r2, #64	; 0x40
800032f8:	e3a01000 	mov	r1, #0
800032fc:	e1a00003 	mov	r0, r3
80003300:	eb002344 	bl	0x8000c018
80003304:	e3a03000 	mov	r3, #0
80003308:	e50b3010 	str	r3, [fp, #-16]
8000330c:	e3a03000 	mov	r3, #0
80003310:	e14b30b6 	strh	r3, [fp, #-6]
80003314:	e51b3088 	ldr	r3, [fp, #-136]	; 0xffffff78
80003318:	e5933008 	ldr	r3, [r3, #8]
8000331c:	e50b3014 	str	r3, [fp, #-20]	; 0xffffffec
80003320:	e51b3014 	ldr	r3, [fp, #-20]	; 0xffffffec
80003324:	e5933028 	ldr	r3, [r3, #40]	; 0x28
80003328:	e50b3018 	str	r3, [fp, #-24]	; 0xffffffe8
8000332c:	e3a03013 	mov	r3, #19
80003330:	e50b3080 	str	r3, [fp, #-128]	; 0xffffff80
80003334:	e3a03000 	mov	r3, #0
80003338:	e50b3078 	str	r3, [fp, #-120]	; 0xffffff88
8000333c:	e3a03d0b 	mov	r3, #704	; 0x2c0
80003340:	e50b307c 	str	r3, [fp, #-124]	; 0xffffff84
80003344:	e3a03001 	mov	r3, #1
80003348:	e50b306c 	str	r3, [fp, #-108]	; 0xffffff94
8000334c:	e3a03040 	mov	r3, #64	; 0x40
80003350:	e50b3070 	str	r3, [fp, #-112]	; 0xffffff90
80003354:	e24b3058 	sub	r3, fp, #88	; 0x58
80003358:	e50b3074 	str	r3, [fp, #-116]	; 0xffffff8c
8000335c:	e24b3080 	sub	r3, fp, #128	; 0x80
80003360:	e1a01003 	mov	r1, r3
80003364:	e51b0088 	ldr	r0, [fp, #-136]	; 0xffffff78
80003368:	eb000294 	bl	0x80003dc0
8000336c:	e50b0010 	str	r0, [fp, #-16]
80003370:	e51b3010 	ldr	r3, [fp, #-16]
80003374:	e3530000 	cmp	r3, #0
80003378:	1a000017 	bne	0x800033dc
8000337c:	e3a03000 	mov	r3, #0
80003380:	e50b300c 	str	r3, [fp, #-12]
80003384:	ea000010 	b	0x800033cc
80003388:	e24b2058 	sub	r2, fp, #88	; 0x58
8000338c:	e51b300c 	ldr	r3, [fp, #-12]
80003390:	e0823003 	add	r3, r2, r3
80003394:	e5d32000 	ldrb	r2, [r3]
80003398:	e30e36ac 	movw	r3, #59052	; 0xe6ac
8000339c:	e3483000 	movt	r3, #32768	; 0x8000
800033a0:	e51b100c 	ldr	r1, [fp, #-12]
800033a4:	e0833001 	add	r3, r3, r1
800033a8:	e5d33000 	ldrb	r3, [r3]
800033ac:	e1520003 	cmp	r2, r3
800033b0:	0a000002 	beq	0x800033c0
800033b4:	e3a03001 	mov	r3, #1
800033b8:	e14b30b6 	strh	r3, [fp, #-6]
800033bc:	ea000008 	b	0x800033e4
800033c0:	e51b300c 	ldr	r3, [fp, #-12]
800033c4:	e2833001 	add	r3, r3, #1
800033c8:	e50b300c 	str	r3, [fp, #-12]
800033cc:	e51b300c 	ldr	r3, [fp, #-12]
800033d0:	e353003f 	cmp	r3, #63	; 0x3f
800033d4:	9affffeb 	bls	0x80003388
800033d8:	ea000001 	b	0x800033e4
800033dc:	e3a03001 	mov	r3, #1
800033e0:	e14b30b6 	strh	r3, [fp, #-6]
800033e4:	e51b3014 	ldr	r3, [fp, #-20]	; 0xffffffec
800033e8:	e51b2018 	ldr	r2, [fp, #-24]	; 0xffffffe8
800033ec:	e5832028 	str	r2, [r3, #40]	; 0x28
800033f0:	e15b30b6 	ldrh	r3, [fp, #-6]
800033f4:	e1a00003 	mov	r0, r3
800033f8:	e24bd004 	sub	sp, fp, #4
800033fc:	e8bd8800 	pop	{fp, pc}
80003400:	e92d4800 	push	{fp, lr}
80003404:	e28db004 	add	fp, sp, #4
80003408:	e24dd028 	sub	sp, sp, #40	; 0x28
8000340c:	e50b0028 	str	r0, [fp, #-40]	; 0xffffffd8
80003410:	e3a03000 	mov	r3, #0
80003414:	e50b300c 	str	r3, [fp, #-12]
80003418:	e3a03000 	mov	r3, #0
8000341c:	e50b3010 	str	r3, [fp, #-16]
80003420:	e3a03000 	mov	r3, #0
80003424:	e50b3014 	str	r3, [fp, #-20]	; 0xffffffec
80003428:	e3a03000 	mov	r3, #0
8000342c:	e50b3018 	str	r3, [fp, #-24]	; 0xffffffe8
80003430:	e3a03000 	mov	r3, #0
80003434:	e50b3020 	str	r3, [fp, #-32]	; 0xffffffe0
80003438:	e3a03000 	mov	r3, #0
8000343c:	e50b301c 	str	r3, [fp, #-28]	; 0xffffffe4
80003440:	e51b3028 	ldr	r3, [fp, #-40]	; 0xffffffd8
80003444:	e5933008 	ldr	r3, [r3, #8]
80003448:	e50b3024 	str	r3, [fp, #-36]	; 0xffffffdc
8000344c:	e51b3024 	ldr	r3, [fp, #-36]	; 0xffffffdc
80003450:	e5933004 	ldr	r3, [r3, #4]
80003454:	e3a01001 	mov	r1, #1
80003458:	e1a00003 	mov	r0, r3
8000345c:	eb000aeb 	bl	0x80006010
80003460:	e3a03000 	mov	r3, #0
80003464:	e50b3008 	str	r3, [fp, #-8]
80003468:	ea000027 	b	0x8000350c
8000346c:	e51b3024 	ldr	r3, [fp, #-36]	; 0xffffffdc
80003470:	e5933004 	ldr	r3, [r3, #4]
80003474:	e51b1008 	ldr	r1, [fp, #-8]
80003478:	e1a00003 	mov	r0, r3
8000347c:	eb000a8e 	bl	0x80005ebc
80003480:	e51b0028 	ldr	r0, [fp, #-40]	; 0xffffffd8
80003484:	ebffff95 	bl	0x800032e0
80003488:	e1a03000 	mov	r3, r0
8000348c:	e3530000 	cmp	r3, #0
80003490:	03a03001 	moveq	r3, #1
80003494:	13a03000 	movne	r3, #0
80003498:	e6ef3073 	uxtb	r3, r3
8000349c:	e50b3020 	str	r3, [fp, #-32]	; 0xffffffe0
800034a0:	e51b3020 	ldr	r3, [fp, #-32]	; 0xffffffe0
800034a4:	e3530000 	cmp	r3, #0
800034a8:	0a00000a 	beq	0x800034d8
800034ac:	e51b301c 	ldr	r3, [fp, #-28]	; 0xffffffe4
800034b0:	e3530000 	cmp	r3, #0
800034b4:	0a000003 	beq	0x800034c8
800034b8:	e51b300c 	ldr	r3, [fp, #-12]
800034bc:	e2833001 	add	r3, r3, #1
800034c0:	e50b300c 	str	r3, [fp, #-12]
800034c4:	ea000003 	b	0x800034d8
800034c8:	e51b3008 	ldr	r3, [fp, #-8]
800034cc:	e50b3014 	str	r3, [fp, #-20]	; 0xffffffec
800034d0:	e3a03001 	mov	r3, #1
800034d4:	e50b300c 	str	r3, [fp, #-12]
800034d8:	e51b200c 	ldr	r2, [fp, #-12]
800034dc:	e51b3010 	ldr	r3, [fp, #-16]
800034e0:	e1520003 	cmp	r2, r3
800034e4:	9a000003 	bls	0x800034f8
800034e8:	e51b3014 	ldr	r3, [fp, #-20]	; 0xffffffec
800034ec:	e50b3018 	str	r3, [fp, #-24]	; 0xffffffe8
800034f0:	e51b300c 	ldr	r3, [fp, #-12]
800034f4:	e50b3010 	str	r3, [fp, #-16]
800034f8:	e51b3020 	ldr	r3, [fp, #-32]	; 0xffffffe0
800034fc:	e50b301c 	str	r3, [fp, #-28]	; 0xffffffe4
80003500:	e51b3008 	ldr	r3, [fp, #-8]
80003504:	e2833004 	add	r3, r3, #4
80003508:	e50b3008 	str	r3, [fp, #-8]
8000350c:	e51b3008 	ldr	r3, [fp, #-8]
80003510:	e353007c 	cmp	r3, #124	; 0x7c
80003514:	9affffd4 	bls	0x8000346c
80003518:	e51b3024 	ldr	r3, [fp, #-36]	; 0xffffffdc
8000351c:	e5933004 	ldr	r3, [r3, #4]
80003520:	e1a00003 	mov	r0, r3
80003524:	eb000aff 	bl	0x80006128
80003528:	e1a03000 	mov	r3, r0
8000352c:	e3530001 	cmp	r3, #1
80003530:	0a000001 	beq	0x8000353c
80003534:	e3e03000 	mvn	r3, #0
80003538:	ea000023 	b	0x800035cc
8000353c:	e51b3010 	ldr	r3, [fp, #-16]
80003540:	e3530000 	cmp	r3, #0
80003544:	1a000001 	bne	0x80003550
80003548:	e3e03000 	mvn	r3, #0
8000354c:	ea00001e 	b	0x800035cc
80003550:	e51b3010 	ldr	r3, [fp, #-16]
80003554:	e1a030a3 	lsr	r3, r3, #1
80003558:	e1a02103 	lsl	r2, r3, #2
8000355c:	e51b3018 	ldr	r3, [fp, #-24]	; 0xffffffe8
80003560:	e0823003 	add	r3, r2, r3
80003564:	e50b3008 	str	r3, [fp, #-8]
80003568:	e51b3024 	ldr	r3, [fp, #-36]	; 0xffffffdc
8000356c:	e5933004 	ldr	r3, [r3, #4]
80003570:	e51b1008 	ldr	r1, [fp, #-8]
80003574:	e1a00003 	mov	r0, r3
80003578:	eb000a4f 	bl	0x80005ebc
8000357c:	e51b3024 	ldr	r3, [fp, #-36]	; 0xffffffdc
80003580:	e5933004 	ldr	r3, [r3, #4]
80003584:	e3a01402 	mov	r1, #33554432	; 0x2000000
80003588:	e1a00003 	mov	r0, r3
8000358c:	eb00099b 	bl	0x80005c00
80003590:	e51b3024 	ldr	r3, [fp, #-36]	; 0xffffffdc
80003594:	e5933004 	ldr	r3, [r3, #4]
80003598:	e3a01301 	mov	r1, #67108864	; 0x4000000
8000359c:	e1a00003 	mov	r0, r3
800035a0:	eb000996 	bl	0x80005c00
800035a4:	e51b3024 	ldr	r3, [fp, #-36]	; 0xffffffdc
800035a8:	e5933004 	ldr	r3, [r3, #4]
800035ac:	e1a00003 	mov	r0, r3
800035b0:	eb000aa4 	bl	0x80006048
800035b4:	e1a03000 	mov	r3, r0
800035b8:	e3530000 	cmp	r3, #0
800035bc:	1a000001 	bne	0x800035c8
800035c0:	e3e03000 	mvn	r3, #0
800035c4:	ea000000 	b	0x800035cc
800035c8:	e3a03000 	mov	r3, #0
800035cc:	e1a00003 	mov	r0, r3
800035d0:	e24bd004 	sub	sp, fp, #4
800035d4:	e8bd8800 	pop	{fp, pc}
800035d8:	e92d4800 	push	{fp, lr}
800035dc:	e28db004 	add	fp, sp, #4
800035e0:	e24dd068 	sub	sp, sp, #104	; 0x68
800035e4:	e50b0068 	str	r0, [fp, #-104]	; 0xffffff98
800035e8:	e3a03000 	mov	r3, #0
800035ec:	e50b3008 	str	r3, [fp, #-8]
800035f0:	e30f3fff 	movw	r3, #65535	; 0xffff
800035f4:	e50b300c 	str	r3, [fp, #-12]
800035f8:	e3a03000 	mov	r3, #0
800035fc:	e50b3010 	str	r3, [fp, #-16]
80003600:	e3a03000 	mov	r3, #0
80003604:	e50b3014 	str	r3, [fp, #-20]	; 0xffffffec
80003608:	e3e03000 	mvn	r3, #0
8000360c:	e50b3040 	str	r3, [fp, #-64]	; 0xffffffc0
80003610:	e3a03000 	mov	r3, #0
80003614:	e50b3054 	str	r3, [fp, #-84]	; 0xffffffac
80003618:	e3a03000 	mov	r3, #0
8000361c:	e50b3050 	str	r3, [fp, #-80]	; 0xffffffb0
80003620:	e3a03000 	mov	r3, #0
80003624:	e50b304c 	str	r3, [fp, #-76]	; 0xffffffb4
80003628:	e3a03000 	mov	r3, #0
8000362c:	e50b3048 	str	r3, [fp, #-72]	; 0xffffffb8
80003630:	e3a03001 	mov	r3, #1
80003634:	e50b3044 	str	r3, [fp, #-68]	; 0xffffffbc
80003638:	e30e3758 	movw	r3, #59224	; 0xe758
8000363c:	e3483000 	movt	r3, #32768	; 0x8000
80003640:	e24bc064 	sub	ip, fp, #100	; 0x64
80003644:	e893000f 	ldm	r3, {r0, r1, r2, r3}
80003648:	e88c000f 	stm	ip, {r0, r1, r2, r3}
8000364c:	e51b3068 	ldr	r3, [fp, #-104]	; 0xffffff98
80003650:	e3530000 	cmp	r3, #0
80003654:	03a03001 	moveq	r3, #1
80003658:	13a03000 	movne	r3, #0
8000365c:	e6ef3073 	uxtb	r3, r3
80003660:	e3002779 	movw	r2, #1913	; 0x779
80003664:	e30e1704 	movw	r1, #59140	; 0xe704
80003668:	e3481000 	movt	r1, #32768	; 0x8000
8000366c:	e1a00003 	mov	r0, r3
80003670:	eb002684 	bl	0x8000d088
80003674:	e51b3068 	ldr	r3, [fp, #-104]	; 0xffffff98
80003678:	e5933004 	ldr	r3, [r3, #4]
8000367c:	e50b3010 	str	r3, [fp, #-16]
80003680:	e51b3068 	ldr	r3, [fp, #-104]	; 0xffffff98
80003684:	e5933008 	ldr	r3, [r3, #8]
80003688:	e50b3014 	str	r3, [fp, #-20]	; 0xffffffec
8000368c:	e51b3008 	ldr	r3, [fp, #-8]
80003690:	e3530000 	cmp	r3, #0
80003694:	1a00000d 	bne	0x800036d0
80003698:	e51b3014 	ldr	r3, [fp, #-20]	; 0xffffffec
8000369c:	e5933004 	ldr	r3, [r3, #4]
800036a0:	e1a00003 	mov	r0, r3
800036a4:	eb00093b 	bl	0x80005b98
800036a8:	e1a03000 	mov	r3, r0
800036ac:	e50b3040 	str	r3, [fp, #-64]	; 0xffffffc0
800036b0:	e51b3040 	ldr	r3, [fp, #-64]	; 0xffffffc0
800036b4:	e3530001 	cmp	r3, #1
800036b8:	0a000002 	beq	0x800036c8
800036bc:	e3e03000 	mvn	r3, #0
800036c0:	e50b3008 	str	r3, [fp, #-8]
800036c4:	ea000001 	b	0x800036d0
800036c8:	e3a03000 	mov	r3, #0
800036cc:	e50b3008 	str	r3, [fp, #-8]
800036d0:	e51b3008 	ldr	r3, [fp, #-8]
800036d4:	e3530000 	cmp	r3, #0
800036d8:	1a000025 	bne	0x80003774
800036dc:	e51b3014 	ldr	r3, [fp, #-20]	; 0xffffffec
800036e0:	e5933004 	ldr	r3, [r3, #4]
800036e4:	e3a01401 	mov	r1, #16777216	; 0x1000000
800036e8:	e1a00003 	mov	r0, r3
800036ec:	eb000943 	bl	0x80005c00
800036f0:	e51b3014 	ldr	r3, [fp, #-20]	; 0xffffffec
800036f4:	e5933004 	ldr	r3, [r3, #4]
800036f8:	e3a01406 	mov	r1, #100663296	; 0x6000000
800036fc:	e1a00003 	mov	r0, r3
80003700:	eb000b4b 	bl	0x80006434
80003704:	e51b3014 	ldr	r3, [fp, #-20]	; 0xffffffec
80003708:	e5933004 	ldr	r3, [r3, #4]
8000370c:	e24b2054 	sub	r2, fp, #84	; 0x54
80003710:	e1a01002 	mov	r1, r2
80003714:	e1a00003 	mov	r0, r3
80003718:	eb00095b 	bl	0x80005c8c
8000371c:	e51b3014 	ldr	r3, [fp, #-20]	; 0xffffffec
80003720:	e5933004 	ldr	r3, [r3, #4]
80003724:	e3a01001 	mov	r1, #1
80003728:	e1a00003 	mov	r0, r3
8000372c:	eb0009a3 	bl	0x80005dc0
80003730:	e51b3014 	ldr	r3, [fp, #-20]	; 0xffffffec
80003734:	e5933004 	ldr	r3, [r3, #4]
80003738:	e3a01006 	mov	r1, #6
8000373c:	e1a00003 	mov	r0, r3
80003740:	eb000abc 	bl	0x80006238
80003744:	e51b3014 	ldr	r3, [fp, #-20]	; 0xffffffec
80003748:	e5933004 	ldr	r3, [r3, #4]
8000374c:	e3a01001 	mov	r1, #1
80003750:	e1a00003 	mov	r0, r3
80003754:	eb000ad3 	bl	0x800062a8
80003758:	e1a03000 	mov	r3, r0
8000375c:	e50b3040 	str	r3, [fp, #-64]	; 0xffffffc0
80003760:	e51b3040 	ldr	r3, [fp, #-64]	; 0xffffffc0
80003764:	e3530001 	cmp	r3, #1
80003768:	0a000001 	beq	0x80003774
8000376c:	e3e03000 	mvn	r3, #0
80003770:	e50b3008 	str	r3, [fp, #-8]
80003774:	e51b3008 	ldr	r3, [fp, #-8]
80003778:	e3530000 	cmp	r3, #0
8000377c:	1a000022 	bne	0x8000380c
80003780:	e51b3014 	ldr	r3, [fp, #-20]	; 0xffffffec
80003784:	e5930004 	ldr	r0, [r3, #4]
80003788:	e51b3014 	ldr	r3, [fp, #-20]	; 0xffffffec
8000378c:	e5931010 	ldr	r1, [r3, #16]
80003790:	e51b3014 	ldr	r3, [fp, #-20]	; 0xffffffec
80003794:	e5932014 	ldr	r2, [r3, #20]
80003798:	e3a03000 	mov	r3, #0
8000379c:	eb000b87 	bl	0x800065c0
800037a0:	e1a03000 	mov	r3, r0
800037a4:	e50b3040 	str	r3, [fp, #-64]	; 0xffffffc0
800037a8:	e51b3014 	ldr	r3, [fp, #-20]	; 0xffffffec
800037ac:	e593302c 	ldr	r3, [r3, #44]	; 0x2c
800037b0:	e3530000 	cmp	r3, #0
800037b4:	0a000008 	beq	0x800037dc
800037b8:	e3a03032 	mov	r3, #50	; 0x32
800037bc:	e50b3060 	str	r3, [fp, #-96]	; 0xffffffa0
800037c0:	e51b3014 	ldr	r3, [fp, #-20]	; 0xffffffec
800037c4:	e593302c 	ldr	r3, [r3, #44]	; 0x2c
800037c8:	e51b2014 	ldr	r2, [fp, #-20]	; 0xffffffec
800037cc:	e5922000 	ldr	r2, [r2]
800037d0:	e24b1064 	sub	r1, fp, #100	; 0x64
800037d4:	e1a00002 	mov	r0, r2
800037d8:	e12fff33 	blx	r3
800037dc:	e51b3040 	ldr	r3, [fp, #-64]	; 0xffffffc0
800037e0:	e3530001 	cmp	r3, #1
800037e4:	0a000001 	beq	0x800037f0
800037e8:	e3e03000 	mvn	r3, #0
800037ec:	e50b3008 	str	r3, [fp, #-8]
800037f0:	e51b3008 	ldr	r3, [fp, #-8]
800037f4:	e3530000 	cmp	r3, #0
800037f8:	1a000003 	bne	0x8000380c
800037fc:	e51b3014 	ldr	r3, [fp, #-20]	; 0xffffffec
80003800:	e5933004 	ldr	r3, [r3, #4]
80003804:	e1a00003 	mov	r0, r3
80003808:	eb000bc5 	bl	0x80006724
8000380c:	e51b3008 	ldr	r3, [fp, #-8]
80003810:	e3530000 	cmp	r3, #0
80003814:	1a000160 	bne	0x80003d9c
80003818:	e51b3008 	ldr	r3, [fp, #-8]
8000381c:	e3530000 	cmp	r3, #0
80003820:	1a00000a 	bne	0x80003850
80003824:	e3a03000 	mov	r3, #0
80003828:	e50b303c 	str	r3, [fp, #-60]	; 0xffffffc4
8000382c:	e3a03001 	mov	r3, #1
80003830:	e50b3038 	str	r3, [fp, #-56]	; 0xffffffc8
80003834:	e3a03000 	mov	r3, #0
80003838:	e50b3034 	str	r3, [fp, #-52]	; 0xffffffcc
8000383c:	e24b303c 	sub	r3, fp, #60	; 0x3c
80003840:	e1a01003 	mov	r1, r3
80003844:	e51b0068 	ldr	r0, [fp, #-104]	; 0xffffff98
80003848:	eb00015c 	bl	0x80003dc0
8000384c:	e50b0008 	str	r0, [fp, #-8]
80003850:	e3a00005 	mov	r0, #5
80003854:	eb000873 	bl	0x80005a28
80003858:	e51b3008 	ldr	r3, [fp, #-8]
8000385c:	e3530000 	cmp	r3, #0
80003860:	1a000019 	bne	0x800038cc
80003864:	e3a03001 	mov	r3, #1
80003868:	e50b303c 	str	r3, [fp, #-60]	; 0xffffffc4
8000386c:	e3a03000 	mov	r3, #0
80003870:	e50b3038 	str	r3, [fp, #-56]	; 0xffffffc8
80003874:	e3083080 	movw	r3, #32896	; 0x8080
80003878:	e34c30ff 	movt	r3, #49407	; 0xc0ff
8000387c:	e50b3034 	str	r3, [fp, #-52]	; 0xffffffcc
80003880:	e24b303c 	sub	r3, fp, #60	; 0x3c
80003884:	e1a01003 	mov	r1, r3
80003888:	e51b0068 	ldr	r0, [fp, #-104]	; 0xffffff98
8000388c:	eb00014b 	bl	0x80003dc0
80003890:	e50b0008 	str	r0, [fp, #-8]
80003894:	e51b300c 	ldr	r3, [fp, #-12]
80003898:	e2433001 	sub	r3, r3, #1
8000389c:	e50b300c 	str	r3, [fp, #-12]
800038a0:	e51b3024 	ldr	r3, [fp, #-36]	; 0xffffffdc
800038a4:	e3530000 	cmp	r3, #0
800038a8:	ba000002 	blt	0x800038b8
800038ac:	e51b300c 	ldr	r3, [fp, #-12]
800038b0:	e3530000 	cmp	r3, #0
800038b4:	1affffea 	bne	0x80003864
800038b8:	e51b300c 	ldr	r3, [fp, #-12]
800038bc:	e3530000 	cmp	r3, #0
800038c0:	1a000001 	bne	0x800038cc
800038c4:	e3e03000 	mvn	r3, #0
800038c8:	e50b3008 	str	r3, [fp, #-8]
800038cc:	e51b3008 	ldr	r3, [fp, #-8]
800038d0:	e3530000 	cmp	r3, #0
800038d4:	1a00001e 	bne	0x80003954
800038d8:	e51b2024 	ldr	r2, [fp, #-36]	; 0xffffffdc
800038dc:	e51b3010 	ldr	r3, [fp, #-16]
800038e0:	e5832250 	str	r2, [r3, #592]	; 0x250
800038e4:	e51b3010 	ldr	r3, [fp, #-16]
800038e8:	e5933250 	ldr	r3, [r3, #592]	; 0x250
800038ec:	e2033101 	and	r3, r3, #1073741824	; 0x40000000
800038f0:	e3530000 	cmp	r3, #0
800038f4:	0a000001 	beq	0x80003900
800038f8:	e3a02001 	mov	r2, #1
800038fc:	ea000000 	b	0x80003904
80003900:	e3a02000 	mov	r2, #0
80003904:	e51b3010 	ldr	r3, [fp, #-16]
80003908:	e5c32257 	strb	r2, [r3, #599]	; 0x257
8000390c:	e3a03002 	mov	r3, #2
80003910:	e50b303c 	str	r3, [fp, #-60]	; 0xffffffc4
80003914:	e3a03020 	mov	r3, #32
80003918:	e50b3038 	str	r3, [fp, #-56]	; 0xffffffc8
8000391c:	e3a03000 	mov	r3, #0
80003920:	e50b3034 	str	r3, [fp, #-52]	; 0xffffffcc
80003924:	e24b303c 	sub	r3, fp, #60	; 0x3c
80003928:	e1a01003 	mov	r1, r3
8000392c:	e51b0068 	ldr	r0, [fp, #-104]	; 0xffffff98
80003930:	eb000122 	bl	0x80003dc0
80003934:	e50b0008 	str	r0, [fp, #-8]
80003938:	e51b3010 	ldr	r3, [fp, #-16]
8000393c:	e2830d09 	add	r0, r3, #576	; 0x240
80003940:	e24b303c 	sub	r3, fp, #60	; 0x3c
80003944:	e2833018 	add	r3, r3, #24
80003948:	e3a02010 	mov	r2, #16
8000394c:	e1a01003 	mov	r1, r3
80003950:	eb0021a8 	bl	0x8000bff8
80003954:	e51b3008 	ldr	r3, [fp, #-8]
80003958:	e3530000 	cmp	r3, #0
8000395c:	1a00000f 	bne	0x800039a0
80003960:	e51b3010 	ldr	r3, [fp, #-16]
80003964:	e3a02002 	mov	r2, #2
80003968:	e5832024 	str	r2, [r3, #36]	; 0x24
8000396c:	e3a03003 	mov	r3, #3
80003970:	e50b303c 	str	r3, [fp, #-60]	; 0xffffffc4
80003974:	e3a03000 	mov	r3, #0
80003978:	e50b3038 	str	r3, [fp, #-56]	; 0xffffffc8
8000397c:	e51b3010 	ldr	r3, [fp, #-16]
80003980:	e5933024 	ldr	r3, [r3, #36]	; 0x24
80003984:	e1a03803 	lsl	r3, r3, #16
80003988:	e50b3034 	str	r3, [fp, #-52]	; 0xffffffcc
8000398c:	e24b303c 	sub	r3, fp, #60	; 0x3c
80003990:	e1a01003 	mov	r1, r3
80003994:	e51b0068 	ldr	r0, [fp, #-104]	; 0xffffff98
80003998:	eb000108 	bl	0x80003dc0
8000399c:	e50b0008 	str	r0, [fp, #-8]
800039a0:	e51b3008 	ldr	r3, [fp, #-8]
800039a4:	e3530000 	cmp	r3, #0
800039a8:	1a000013 	bne	0x800039fc
800039ac:	e3a03009 	mov	r3, #9
800039b0:	e50b303c 	str	r3, [fp, #-60]	; 0xffffffc4
800039b4:	e3a03020 	mov	r3, #32
800039b8:	e50b3038 	str	r3, [fp, #-56]	; 0xffffffc8
800039bc:	e51b3010 	ldr	r3, [fp, #-16]
800039c0:	e5933024 	ldr	r3, [r3, #36]	; 0x24
800039c4:	e1a03803 	lsl	r3, r3, #16
800039c8:	e50b3034 	str	r3, [fp, #-52]	; 0xffffffcc
800039cc:	e24b303c 	sub	r3, fp, #60	; 0x3c
800039d0:	e1a01003 	mov	r1, r3
800039d4:	e51b0068 	ldr	r0, [fp, #-104]	; 0xffffff98
800039d8:	eb0000f8 	bl	0x80003dc0
800039dc:	e50b0008 	str	r0, [fp, #-8]
800039e0:	e51b3010 	ldr	r3, [fp, #-16]
800039e4:	e2830030 	add	r0, r3, #48	; 0x30
800039e8:	e24b303c 	sub	r3, fp, #60	; 0x3c
800039ec:	e2833018 	add	r3, r3, #24
800039f0:	e3a02010 	mov	r2, #16
800039f4:	e1a01003 	mov	r1, r3
800039f8:	eb00217e 	bl	0x8000bff8
800039fc:	e51b3008 	ldr	r3, [fp, #-8]
80003a00:	e3530000 	cmp	r3, #0
80003a04:	1a000015 	bne	0x80003a60
80003a08:	e51b3010 	ldr	r3, [fp, #-16]
80003a0c:	e593303c 	ldr	r3, [r3, #60]	; 0x3c
80003a10:	e6ef2073 	uxtb	r2, r3
80003a14:	e51b3010 	ldr	r3, [fp, #-16]
80003a18:	e5c32256 	strb	r2, [r3, #598]	; 0x256
80003a1c:	e51b3010 	ldr	r3, [fp, #-16]
80003a20:	e5933030 	ldr	r3, [r3, #48]	; 0x30
80003a24:	e1a03b23 	lsr	r3, r3, #22
80003a28:	e203300f 	and	r3, r3, #15
80003a2c:	e2433001 	sub	r3, r3, #1
80003a30:	e3a02002 	mov	r2, #2
80003a34:	e1a02312 	lsl	r2, r2, r3
80003a38:	e51b3010 	ldr	r3, [fp, #-16]
80003a3c:	e583225c 	str	r2, [r3, #604]	; 0x25c
80003a40:	e51b3010 	ldr	r3, [fp, #-16]
80003a44:	e593303c 	ldr	r3, [r3, #60]	; 0x3c
80003a48:	e1a03d23 	lsr	r3, r3, #26
80003a4c:	e203300f 	and	r3, r3, #15
80003a50:	e3530004 	cmp	r3, #4
80003a54:	0a000001 	beq	0x80003a60
80003a58:	e3e03000 	mvn	r3, #0
80003a5c:	e50b3008 	str	r3, [fp, #-8]
80003a60:	e51b3008 	ldr	r3, [fp, #-8]
80003a64:	e3530000 	cmp	r3, #0
80003a68:	1a00000c 	bne	0x80003aa0
80003a6c:	e3a03007 	mov	r3, #7
80003a70:	e50b303c 	str	r3, [fp, #-60]	; 0xffffffc4
80003a74:	e3a03010 	mov	r3, #16
80003a78:	e50b3038 	str	r3, [fp, #-56]	; 0xffffffc8
80003a7c:	e51b3010 	ldr	r3, [fp, #-16]
80003a80:	e5933024 	ldr	r3, [r3, #36]	; 0x24
80003a84:	e1a03803 	lsl	r3, r3, #16
80003a88:	e50b3034 	str	r3, [fp, #-52]	; 0xffffffcc
80003a8c:	e24b303c 	sub	r3, fp, #60	; 0x3c
80003a90:	e1a01003 	mov	r1, r3
80003a94:	e51b0068 	ldr	r0, [fp, #-104]	; 0xffffff98
80003a98:	eb0000c8 	bl	0x80003dc0
80003a9c:	e50b0008 	str	r0, [fp, #-8]
80003aa0:	e51b3008 	ldr	r3, [fp, #-8]
80003aa4:	e3530000 	cmp	r3, #0
80003aa8:	1a000013 	bne	0x80003afc
80003aac:	e3a03008 	mov	r3, #8
80003ab0:	e50b303c 	str	r3, [fp, #-60]	; 0xffffffc4
80003ab4:	e3a030c0 	mov	r3, #192	; 0xc0
80003ab8:	e50b3038 	str	r3, [fp, #-56]	; 0xffffffc8
80003abc:	e51b3010 	ldr	r3, [fp, #-16]
80003ac0:	e5933024 	ldr	r3, [r3, #36]	; 0x24
80003ac4:	e1a03803 	lsl	r3, r3, #16
80003ac8:	e50b3034 	str	r3, [fp, #-52]	; 0xffffffcc
80003acc:	e3a03001 	mov	r3, #1
80003ad0:	e50b3028 	str	r3, [fp, #-40]	; 0xffffffd8
80003ad4:	e3a03c02 	mov	r3, #512	; 0x200
80003ad8:	e50b302c 	str	r3, [fp, #-44]	; 0xffffffd4
80003adc:	e51b3010 	ldr	r3, [fp, #-16]
80003ae0:	e2833040 	add	r3, r3, #64	; 0x40
80003ae4:	e50b3030 	str	r3, [fp, #-48]	; 0xffffffd0
80003ae8:	e24b303c 	sub	r3, fp, #60	; 0x3c
80003aec:	e1a01003 	mov	r1, r3
80003af0:	e51b0068 	ldr	r0, [fp, #-104]	; 0xffffff98
80003af4:	eb0000b1 	bl	0x80003dc0
80003af8:	e50b0008 	str	r0, [fp, #-8]
80003afc:	e3a00064 	mov	r0, #100	; 0x64
80003b00:	eb0007c8 	bl	0x80005a28
80003b04:	e51b3008 	ldr	r3, [fp, #-8]
80003b08:	e3530000 	cmp	r3, #0
80003b0c:	1a000029 	bne	0x80003bb8
80003b10:	e51b3010 	ldr	r3, [fp, #-16]
80003b14:	e5d33117 	ldrb	r3, [r3, #279]	; 0x117
80003b18:	e1a02c03 	lsl	r2, r3, #24
80003b1c:	e51b3010 	ldr	r3, [fp, #-16]
80003b20:	e5d33116 	ldrb	r3, [r3, #278]	; 0x116
80003b24:	e1a03803 	lsl	r3, r3, #16
80003b28:	e0822003 	add	r2, r2, r3
80003b2c:	e51b3010 	ldr	r3, [fp, #-16]
80003b30:	e5d33115 	ldrb	r3, [r3, #277]	; 0x115
80003b34:	e1a03403 	lsl	r3, r3, #8
80003b38:	e0823003 	add	r3, r2, r3
80003b3c:	e51b2010 	ldr	r2, [fp, #-16]
80003b40:	e5d22114 	ldrb	r2, [r2, #276]	; 0x114
80003b44:	e0833002 	add	r3, r3, r2
80003b48:	e1a02003 	mov	r2, r3
80003b4c:	e3a03000 	mov	r3, #0
80003b50:	e51b1010 	ldr	r1, [fp, #-16]
80003b54:	e2811e26 	add	r1, r1, #608	; 0x260
80003b58:	e1c120f0 	strd	r2, [r1]
80003b5c:	e51b3010 	ldr	r3, [fp, #-16]
80003b60:	e2833e26 	add	r3, r3, #608	; 0x260
80003b64:	e1c300d0 	ldrd	r0, [r3]
80003b68:	e51b3010 	ldr	r3, [fp, #-16]
80003b6c:	e593325c 	ldr	r3, [r3, #604]	; 0x25c
80003b70:	e1a02003 	mov	r2, r3
80003b74:	e3a03000 	mov	r3, #0
80003b78:	e00e0192 	mul	lr, r2, r1
80003b7c:	e00c0390 	mul	ip, r0, r3
80003b80:	e08ec00c 	add	ip, lr, ip
80003b84:	e0832290 	umull	r2, r3, r0, r2
80003b88:	e08c1003 	add	r1, ip, r3
80003b8c:	e1a03001 	mov	r3, r1
80003b90:	e51b1010 	ldr	r1, [fp, #-16]
80003b94:	e2811e27 	add	r1, r1, #624	; 0x270
80003b98:	e14120f8 	strd	r2, [r1, #-8]
80003b9c:	e51b3010 	ldr	r3, [fp, #-16]
80003ba0:	e3a02008 	mov	r2, #8
80003ba4:	e5c32255 	strb	r2, [r3, #597]	; 0x255
80003ba8:	e51b3010 	ldr	r3, [fp, #-16]
80003bac:	e5d32100 	ldrb	r2, [r3, #256]	; 0x100
80003bb0:	e51b3010 	ldr	r3, [fp, #-16]
80003bb4:	e5c32254 	strb	r2, [r3, #596]	; 0x254
80003bb8:	e51b3008 	ldr	r3, [fp, #-8]
80003bbc:	e3530000 	cmp	r3, #0
80003bc0:	1a00000b 	bne	0x80003bf4
80003bc4:	e3a03006 	mov	r3, #6
80003bc8:	e50b303c 	str	r3, [fp, #-60]	; 0xffffffc4
80003bcc:	e3a03c01 	mov	r3, #256	; 0x100
80003bd0:	e34033b9 	movt	r3, #953	; 0x3b9
80003bd4:	e50b3034 	str	r3, [fp, #-52]	; 0xffffffcc
80003bd8:	e3a03010 	mov	r3, #16
80003bdc:	e50b3038 	str	r3, [fp, #-56]	; 0xffffffc8
80003be0:	e24b303c 	sub	r3, fp, #60	; 0x3c
80003be4:	e1a01003 	mov	r1, r3
80003be8:	e51b0068 	ldr	r0, [fp, #-104]	; 0xffffff98
80003bec:	eb000073 	bl	0x80003dc0
80003bf0:	e50b0008 	str	r0, [fp, #-8]
80003bf4:	e51b3008 	ldr	r3, [fp, #-8]
80003bf8:	e3530000 	cmp	r3, #0
80003bfc:	1a000038 	bne	0x80003ce4
80003c00:	e51b3010 	ldr	r3, [fp, #-16]
80003c04:	e5d33256 	ldrb	r3, [r3, #598]	; 0x256
80003c08:	e353005a 	cmp	r3, #90	; 0x5a
80003c0c:	1a00001a 	bne	0x80003c7c
80003c10:	e51b3014 	ldr	r3, [fp, #-20]	; 0xffffffec
80003c14:	e5930004 	ldr	r0, [r3, #4]
80003c18:	e51b3014 	ldr	r3, [fp, #-20]	; 0xffffffec
80003c1c:	e5931010 	ldr	r1, [r3, #16]
80003c20:	e3a03000 	mov	r3, #0
80003c24:	e3a02c75 	mov	r2, #29952	; 0x7500
80003c28:	e3402319 	movt	r2, #793	; 0x319
80003c2c:	eb000a63 	bl	0x800065c0
80003c30:	e1a03000 	mov	r3, r0
80003c34:	e3530001 	cmp	r3, #1
80003c38:	1a000029 	bne	0x80003ce4
80003c3c:	e51b3014 	ldr	r3, [fp, #-20]	; 0xffffffec
80003c40:	e593302c 	ldr	r3, [r3, #44]	; 0x2c
80003c44:	e3530000 	cmp	r3, #0
80003c48:	0a000008 	beq	0x80003c70
80003c4c:	e3a0305a 	mov	r3, #90	; 0x5a
80003c50:	e50b3060 	str	r3, [fp, #-96]	; 0xffffffa0
80003c54:	e51b3014 	ldr	r3, [fp, #-20]	; 0xffffffec
80003c58:	e593302c 	ldr	r3, [r3, #44]	; 0x2c
80003c5c:	e51b2014 	ldr	r2, [fp, #-20]	; 0xffffffec
80003c60:	e5922000 	ldr	r2, [r2]
80003c64:	e24b1064 	sub	r1, fp, #100	; 0x64
80003c68:	e1a00002 	mov	r0, r2
80003c6c:	e12fff33 	blx	r3
80003c70:	e3a03000 	mov	r3, #0
80003c74:	e50b3008 	str	r3, [fp, #-8]
80003c78:	ea000019 	b	0x80003ce4
80003c7c:	e51b3014 	ldr	r3, [fp, #-20]	; 0xffffffec
80003c80:	e5930004 	ldr	r0, [r3, #4]
80003c84:	e51b3014 	ldr	r3, [fp, #-20]	; 0xffffffec
80003c88:	e5931010 	ldr	r1, [r3, #16]
80003c8c:	e3a03000 	mov	r3, #0
80003c90:	e30b2a80 	movw	r2, #47744	; 0xba80
80003c94:	e340218c 	movt	r2, #396	; 0x18c
80003c98:	eb000a48 	bl	0x800065c0
80003c9c:	e1a03000 	mov	r3, r0
80003ca0:	e3530001 	cmp	r3, #1
80003ca4:	1a00000e 	bne	0x80003ce4
80003ca8:	e51b3014 	ldr	r3, [fp, #-20]	; 0xffffffec
80003cac:	e593302c 	ldr	r3, [r3, #44]	; 0x2c
80003cb0:	e3530000 	cmp	r3, #0
80003cb4:	0a000008 	beq	0x80003cdc
80003cb8:	e3a03032 	mov	r3, #50	; 0x32
80003cbc:	e50b3060 	str	r3, [fp, #-96]	; 0xffffffa0
80003cc0:	e51b3014 	ldr	r3, [fp, #-20]	; 0xffffffec
80003cc4:	e593302c 	ldr	r3, [r3, #44]	; 0x2c
80003cc8:	e51b2014 	ldr	r2, [fp, #-20]	; 0xffffffec
80003ccc:	e5922000 	ldr	r2, [r2]
80003cd0:	e24b1064 	sub	r1, fp, #100	; 0x64
80003cd4:	e1a00002 	mov	r0, r2
80003cd8:	e12fff33 	blx	r3
80003cdc:	e3a03000 	mov	r3, #0
80003ce0:	e50b3008 	str	r3, [fp, #-8]
80003ce4:	e3a00064 	mov	r0, #100	; 0x64
80003ce8:	eb00074e 	bl	0x80005a28
80003cec:	e51b3008 	ldr	r3, [fp, #-8]
80003cf0:	e3530000 	cmp	r3, #0
80003cf4:	1a00000b 	bne	0x80003d28
80003cf8:	e3a03006 	mov	r3, #6
80003cfc:	e50b303c 	str	r3, [fp, #-60]	; 0xffffffc4
80003d00:	e3a03c02 	mov	r3, #512	; 0x200
80003d04:	e34033b7 	movt	r3, #951	; 0x3b7
80003d08:	e50b3034 	str	r3, [fp, #-52]	; 0xffffffcc
80003d0c:	e3a03010 	mov	r3, #16
80003d10:	e50b3038 	str	r3, [fp, #-56]	; 0xffffffc8
80003d14:	e24b303c 	sub	r3, fp, #60	; 0x3c
80003d18:	e1a01003 	mov	r1, r3
80003d1c:	e51b0068 	ldr	r0, [fp, #-104]	; 0xffffff98
80003d20:	eb000026 	bl	0x80003dc0
80003d24:	e50b0008 	str	r0, [fp, #-8]
80003d28:	e3a00064 	mov	r0, #100	; 0x64
80003d2c:	eb00073d 	bl	0x80005a28
80003d30:	e51b3008 	ldr	r3, [fp, #-8]
80003d34:	e3530000 	cmp	r3, #0
80003d38:	1a000004 	bne	0x80003d50
80003d3c:	e51b3014 	ldr	r3, [fp, #-20]	; 0xffffffec
80003d40:	e5933004 	ldr	r3, [r3, #4]
80003d44:	e3a01008 	mov	r1, #8
80003d48:	e1a00003 	mov	r0, r3
80003d4c:	eb00081b 	bl	0x80005dc0
80003d50:	e3a00064 	mov	r0, #100	; 0x64
80003d54:	eb000733 	bl	0x80005a28
80003d58:	e51b3008 	ldr	r3, [fp, #-8]
80003d5c:	e3530000 	cmp	r3, #0
80003d60:	1a00000b 	bne	0x80003d94
80003d64:	e3a03006 	mov	r3, #6
80003d68:	e50b303c 	str	r3, [fp, #-60]	; 0xffffffc4
80003d6c:	e3a03c01 	mov	r3, #256	; 0x100
80003d70:	e34033a2 	movt	r3, #930	; 0x3a2
80003d74:	e50b3034 	str	r3, [fp, #-52]	; 0xffffffcc
80003d78:	e3a03010 	mov	r3, #16
80003d7c:	e50b3038 	str	r3, [fp, #-56]	; 0xffffffc8
80003d80:	e24b303c 	sub	r3, fp, #60	; 0x3c
80003d84:	e1a01003 	mov	r1, r3
80003d88:	e51b0068 	ldr	r0, [fp, #-104]	; 0xffffff98
80003d8c:	eb00000b 	bl	0x80003dc0
80003d90:	e50b0008 	str	r0, [fp, #-8]
80003d94:	e3a00064 	mov	r0, #100	; 0x64
80003d98:	eb000722 	bl	0x80005a28
80003d9c:	e51b3008 	ldr	r3, [fp, #-8]
80003da0:	e3530000 	cmp	r3, #0
80003da4:	0a000001 	beq	0x80003db0
80003da8:	e51b0068 	ldr	r0, [fp, #-104]	; 0xffffff98
80003dac:	ebfff5cd 	bl	0x800014e8
80003db0:	e51b3008 	ldr	r3, [fp, #-8]
80003db4:	e1a00003 	mov	r0, r3
80003db8:	e24bd004 	sub	sp, fp, #4
80003dbc:	e8bd8800 	pop	{fp, pc}
80003dc0:	e92d4800 	push	{fp, lr}
80003dc4:	e28db004 	add	fp, sp, #4
80003dc8:	e24dd038 	sub	sp, sp, #56	; 0x38
80003dcc:	e50b0038 	str	r0, [fp, #-56]	; 0xffffffc8
80003dd0:	e50b103c 	str	r1, [fp, #-60]	; 0xffffffc4
80003dd4:	e3e03000 	mvn	r3, #0
80003dd8:	e50b3008 	str	r3, [fp, #-8]
80003ddc:	e24b3030 	sub	r3, fp, #48	; 0x30
80003de0:	e3a02020 	mov	r2, #32
80003de4:	e3a01000 	mov	r1, #0
80003de8:	e1a00003 	mov	r0, r3
80003dec:	eb002089 	bl	0x8000c018
80003df0:	e3a03000 	mov	r3, #0
80003df4:	e50b300c 	str	r3, [fp, #-12]
80003df8:	e3a03000 	mov	r3, #0
80003dfc:	e50b3010 	str	r3, [fp, #-16]
80003e00:	e51b3038 	ldr	r3, [fp, #-56]	; 0xffffffc8
80003e04:	e3530000 	cmp	r3, #0
80003e08:	0a000002 	beq	0x80003e18
80003e0c:	e51b303c 	ldr	r3, [fp, #-60]	; 0xffffffc4
80003e10:	e3530000 	cmp	r3, #0
80003e14:	1a000001 	bne	0x80003e20
80003e18:	e3a03001 	mov	r3, #1
80003e1c:	ea000000 	b	0x80003e24
80003e20:	e3a03000 	mov	r3, #0
80003e24:	e30028a5 	movw	r2, #2213	; 0x8a5
80003e28:	e30e1704 	movw	r1, #59140	; 0xe704
80003e2c:	e3481000 	movt	r1, #32768	; 0x8000
80003e30:	e1a00003 	mov	r0, r3
80003e34:	eb002493 	bl	0x8000d088
80003e38:	e51b3038 	ldr	r3, [fp, #-56]	; 0xffffffc8
80003e3c:	e5933004 	ldr	r3, [r3, #4]
80003e40:	e50b300c 	str	r3, [fp, #-12]
80003e44:	e51b3038 	ldr	r3, [fp, #-56]	; 0xffffffc8
80003e48:	e5933008 	ldr	r3, [r3, #8]
80003e4c:	e50b3010 	str	r3, [fp, #-16]
80003e50:	e3a03000 	mov	r3, #0
80003e54:	e50b3008 	str	r3, [fp, #-8]
80003e58:	e51b3008 	ldr	r3, [fp, #-8]
80003e5c:	e3530000 	cmp	r3, #0
80003e60:	1a0001e7 	bne	0x80004604
80003e64:	e51b303c 	ldr	r3, [fp, #-60]	; 0xffffffc4
80003e68:	e5933004 	ldr	r3, [r3, #4]
80003e6c:	e2033002 	and	r3, r3, #2
80003e70:	e3530000 	cmp	r3, #0
80003e74:	0a000002 	beq	0x80003e84
80003e78:	e3a03001 	mov	r3, #1
80003e7c:	e50b302c 	str	r3, [fp, #-44]	; 0xffffffd4
80003e80:	ea000011 	b	0x80003ecc
80003e84:	e51b303c 	ldr	r3, [fp, #-60]	; 0xffffffc4
80003e88:	e5933004 	ldr	r3, [r3, #4]
80003e8c:	e2033004 	and	r3, r3, #4
80003e90:	e3530000 	cmp	r3, #0
80003e94:	0a000002 	beq	0x80003ea4
80003e98:	e3a03002 	mov	r3, #2
80003e9c:	e50b302c 	str	r3, [fp, #-44]	; 0xffffffd4
80003ea0:	ea000009 	b	0x80003ecc
80003ea4:	e51b303c 	ldr	r3, [fp, #-60]	; 0xffffffc4
80003ea8:	e5933004 	ldr	r3, [r3, #4]
80003eac:	e2033008 	and	r3, r3, #8
80003eb0:	e3530000 	cmp	r3, #0
80003eb4:	0a000002 	beq	0x80003ec4
80003eb8:	e3a03003 	mov	r3, #3
80003ebc:	e50b302c 	str	r3, [fp, #-44]	; 0xffffffd4
80003ec0:	ea000001 	b	0x80003ecc
80003ec4:	e3a03000 	mov	r3, #0
80003ec8:	e50b302c 	str	r3, [fp, #-44]	; 0xffffffd4
80003ecc:	e51b303c 	ldr	r3, [fp, #-60]	; 0xffffffc4
80003ed0:	e5933004 	ldr	r3, [r3, #4]
80003ed4:	e2033001 	and	r3, r3, #1
80003ed8:	e3530000 	cmp	r3, #0
80003edc:	0a000002 	beq	0x80003eec
80003ee0:	e3a03000 	mov	r3, #0
80003ee4:	e50b3028 	str	r3, [fp, #-40]	; 0xffffffd8
80003ee8:	ea000011 	b	0x80003f34
80003eec:	e51b303c 	ldr	r3, [fp, #-60]	; 0xffffffc4
80003ef0:	e5933004 	ldr	r3, [r3, #4]
80003ef4:	e2033020 	and	r3, r3, #32
80003ef8:	e3530000 	cmp	r3, #0
80003efc:	0a000002 	beq	0x80003f0c
80003f00:	e3a03001 	mov	r3, #1
80003f04:	e50b3028 	str	r3, [fp, #-40]	; 0xffffffd8
80003f08:	ea000009 	b	0x80003f34
80003f0c:	e51b303c 	ldr	r3, [fp, #-60]	; 0xffffffc4
80003f10:	e5933004 	ldr	r3, [r3, #4]
80003f14:	e2033010 	and	r3, r3, #16
80003f18:	e3530000 	cmp	r3, #0
80003f1c:	0a000002 	beq	0x80003f2c
80003f20:	e3a03003 	mov	r3, #3
80003f24:	e50b3028 	str	r3, [fp, #-40]	; 0xffffffd8
80003f28:	ea000001 	b	0x80003f34
80003f2c:	e3a03002 	mov	r3, #2
80003f30:	e50b3028 	str	r3, [fp, #-40]	; 0xffffffd8
80003f34:	e51b303c 	ldr	r3, [fp, #-60]	; 0xffffffc4
80003f38:	e5933004 	ldr	r3, [r3, #4]
80003f3c:	e2033040 	and	r3, r3, #64	; 0x40
80003f40:	e3530000 	cmp	r3, #0
80003f44:	0a000001 	beq	0x80003f50
80003f48:	e3a03001 	mov	r3, #1
80003f4c:	ea000000 	b	0x80003f54
80003f50:	e3a03000 	mov	r3, #0
80003f54:	e50b301c 	str	r3, [fp, #-28]	; 0xffffffe4
80003f58:	e51b3010 	ldr	r3, [fp, #-16]
80003f5c:	e5933028 	ldr	r3, [r3, #40]	; 0x28
80003f60:	e3530000 	cmp	r3, #0
80003f64:	0a00000e 	beq	0x80003fa4
80003f68:	e51b3010 	ldr	r3, [fp, #-16]
80003f6c:	e5933004 	ldr	r3, [r3, #4]
80003f70:	e3a01010 	mov	r1, #16
80003f74:	e1a00003 	mov	r0, r3
80003f78:	eb000a56 	bl	0x800068d8
80003f7c:	e51b3010 	ldr	r3, [fp, #-16]
80003f80:	e5933004 	ldr	r3, [r3, #4]
80003f84:	e3a01020 	mov	r1, #32
80003f88:	e1a00003 	mov	r0, r3
80003f8c:	eb000a51 	bl	0x800068d8
80003f90:	e51b3010 	ldr	r3, [fp, #-16]
80003f94:	e5933004 	ldr	r3, [r3, #4]
80003f98:	e3a01002 	mov	r1, #2
80003f9c:	e1a00003 	mov	r0, r3
80003fa0:	eb000a4c 	bl	0x800068d8
80003fa4:	e51b301c 	ldr	r3, [fp, #-28]	; 0xffffffe4
80003fa8:	e3530000 	cmp	r3, #0
80003fac:	0a000139 	beq	0x80004498
80003fb0:	e51b300c 	ldr	r3, [fp, #-12]
80003fb4:	e5933004 	ldr	r3, [r3, #4]
80003fb8:	e3e01000 	mvn	r1, #0
80003fbc:	e1a00003 	mov	r0, r3
80003fc0:	eb0023b3 	bl	0x8000ce94
80003fc4:	e51b300c 	ldr	r3, [fp, #-12]
80003fc8:	e5933000 	ldr	r3, [r3]
80003fcc:	e3e01000 	mvn	r1, #0
80003fd0:	e1a00003 	mov	r0, r3
80003fd4:	eb0023ae 	bl	0x8000ce94
80003fd8:	e51b303c 	ldr	r3, [fp, #-60]	; 0xffffffc4
80003fdc:	e593200c 	ldr	r2, [r3, #12]
80003fe0:	e51b300c 	ldr	r3, [fp, #-12]
80003fe4:	e583228c 	str	r2, [r3, #652]	; 0x28c
80003fe8:	e51b303c 	ldr	r3, [fp, #-60]	; 0xffffffc4
80003fec:	e5932014 	ldr	r2, [r3, #20]
80003ff0:	e51b300c 	ldr	r3, [fp, #-12]
80003ff4:	e5832290 	str	r2, [r3, #656]	; 0x290
80003ff8:	e51b303c 	ldr	r3, [fp, #-60]	; 0xffffffc4
80003ffc:	e5932010 	ldr	r2, [r3, #16]
80004000:	e51b300c 	ldr	r3, [fp, #-12]
80004004:	e5832294 	str	r2, [r3, #660]	; 0x294
80004008:	e51b300c 	ldr	r3, [fp, #-12]
8000400c:	e3a02000 	mov	r2, #0
80004010:	e5832278 	str	r2, [r3, #632]	; 0x278
80004014:	e51b300c 	ldr	r3, [fp, #-12]
80004018:	e3a02000 	mov	r2, #0
8000401c:	e583227c 	str	r2, [r3, #636]	; 0x27c
80004020:	e51b300c 	ldr	r3, [fp, #-12]
80004024:	e3a02000 	mov	r2, #0
80004028:	e5832280 	str	r2, [r3, #640]	; 0x280
8000402c:	e51b300c 	ldr	r3, [fp, #-12]
80004030:	e3a02000 	mov	r2, #0
80004034:	e5832284 	str	r2, [r3, #644]	; 0x284
80004038:	e51b300c 	ldr	r3, [fp, #-12]
8000403c:	e3a02000 	mov	r2, #0
80004040:	e5832288 	str	r2, [r3, #648]	; 0x288
80004044:	e51b303c 	ldr	r3, [fp, #-60]	; 0xffffffc4
80004048:	e5933004 	ldr	r3, [r3, #4]
8000404c:	e2033080 	and	r3, r3, #128	; 0x80
80004050:	e3530000 	cmp	r3, #0
80004054:	13a03001 	movne	r3, #1
80004058:	03a03000 	moveq	r3, #0
8000405c:	e6ef3073 	uxtb	r3, r3
80004060:	e50b3024 	str	r3, [fp, #-36]	; 0xffffffdc
80004064:	e51b301c 	ldr	r3, [fp, #-28]	; 0xffffffe4
80004068:	e3530001 	cmp	r3, #1
8000406c:	1a000002 	bne	0x8000407c
80004070:	e51b300c 	ldr	r3, [fp, #-12]
80004074:	e5933290 	ldr	r3, [r3, #656]	; 0x290
80004078:	ea000000 	b	0x80004080
8000407c:	e3a03000 	mov	r3, #0
80004080:	e50b3018 	str	r3, [fp, #-24]	; 0xffffffe8
80004084:	e51b3010 	ldr	r3, [fp, #-16]
80004088:	e5933004 	ldr	r3, [r3, #4]
8000408c:	e3a01002 	mov	r1, #2
80004090:	e1a00003 	mov	r0, r3
80004094:	eb000a40 	bl	0x8000699c
80004098:	e51b3024 	ldr	r3, [fp, #-36]	; 0xffffffdc
8000409c:	e3530001 	cmp	r3, #1
800040a0:	1a000013 	bne	0x800040f4
800040a4:	e51b3010 	ldr	r3, [fp, #-16]
800040a8:	e5933004 	ldr	r3, [r3, #4]
800040ac:	e3a01020 	mov	r1, #32
800040b0:	e1a00003 	mov	r0, r3
800040b4:	eb000a38 	bl	0x8000699c
800040b8:	e51b3010 	ldr	r3, [fp, #-16]
800040bc:	e5933004 	ldr	r3, [r3, #4]
800040c0:	e3a01020 	mov	r1, #32
800040c4:	e1a00003 	mov	r0, r3
800040c8:	eb0009ba 	bl	0x800067b8
800040cc:	e51b3010 	ldr	r3, [fp, #-16]
800040d0:	e5933004 	ldr	r3, [r3, #4]
800040d4:	e3a01010 	mov	r1, #16
800040d8:	e1a00003 	mov	r0, r3
800040dc:	eb0009cb 	bl	0x80006810
800040e0:	e51b300c 	ldr	r3, [fp, #-12]
800040e4:	e5932290 	ldr	r2, [r3, #656]	; 0x290
800040e8:	e51b300c 	ldr	r3, [fp, #-12]
800040ec:	e58322a4 	str	r2, [r3, #676]	; 0x2a4
800040f0:	ea000025 	b	0x8000418c
800040f4:	e51b3010 	ldr	r3, [fp, #-16]
800040f8:	e5933004 	ldr	r3, [r3, #4]
800040fc:	e3a01010 	mov	r1, #16
80004100:	e1a00003 	mov	r0, r3
80004104:	eb000a24 	bl	0x8000699c
80004108:	e51b3010 	ldr	r3, [fp, #-16]
8000410c:	e5933004 	ldr	r3, [r3, #4]
80004110:	e3a01010 	mov	r1, #16
80004114:	e1a00003 	mov	r0, r3
80004118:	eb0009a6 	bl	0x800067b8
8000411c:	e51b3010 	ldr	r3, [fp, #-16]
80004120:	e5933004 	ldr	r3, [r3, #4]
80004124:	e3a01020 	mov	r1, #32
80004128:	e1a00003 	mov	r0, r3
8000412c:	eb0009b7 	bl	0x80006810
80004130:	e51b3010 	ldr	r3, [fp, #-16]
80004134:	e5933028 	ldr	r3, [r3, #40]	; 0x28
80004138:	e3530000 	cmp	r3, #0
8000413c:	0a00000e 	beq	0x8000417c
80004140:	e51b3010 	ldr	r3, [fp, #-16]
80004144:	e5933004 	ldr	r3, [r3, #4]
80004148:	e3a01010 	mov	r1, #16
8000414c:	e1a00003 	mov	r0, r3
80004150:	eb0009e0 	bl	0x800068d8
80004154:	e51b3010 	ldr	r3, [fp, #-16]
80004158:	e5933004 	ldr	r3, [r3, #4]
8000415c:	e3a01020 	mov	r1, #32
80004160:	e1a00003 	mov	r0, r3
80004164:	eb0009db 	bl	0x800068d8
80004168:	e51b3010 	ldr	r3, [fp, #-16]
8000416c:	e5933004 	ldr	r3, [r3, #4]
80004170:	e3a01002 	mov	r1, #2
80004174:	e1a00003 	mov	r0, r3
80004178:	eb0009d6 	bl	0x800068d8
8000417c:	e51b300c 	ldr	r3, [fp, #-12]
80004180:	e5932290 	ldr	r2, [r3, #656]	; 0x290
80004184:	e51b300c 	ldr	r3, [fp, #-12]
80004188:	e583229c 	str	r2, [r3, #668]	; 0x29c
8000418c:	e51b3010 	ldr	r3, [fp, #-16]
80004190:	e5932004 	ldr	r2, [r3, #4]
80004194:	e51b303c 	ldr	r3, [fp, #-60]	; 0xffffffc4
80004198:	e5933010 	ldr	r3, [r3, #16]
8000419c:	e1a01003 	mov	r1, r3
800041a0:	e1a00002 	mov	r0, r2
800041a4:	eb000a47 	bl	0x80006ac8
800041a8:	e51b3010 	ldr	r3, [fp, #-16]
800041ac:	e5933004 	ldr	r3, [r3, #4]
800041b0:	e3a01002 	mov	r1, #2
800041b4:	e1a00003 	mov	r0, r3
800041b8:	eb0009f7 	bl	0x8000699c
800041bc:	e51b3010 	ldr	r3, [fp, #-16]
800041c0:	e5933004 	ldr	r3, [r3, #4]
800041c4:	e3a0101b 	mov	r1, #27
800041c8:	e1a00003 	mov	r0, r3
800041cc:	eb0008e9 	bl	0x80006578
800041d0:	e51b3010 	ldr	r3, [fp, #-16]
800041d4:	e5933004 	ldr	r3, [r3, #4]
800041d8:	e3a01003 	mov	r1, #3
800041dc:	e3401011 	movt	r1, #17
800041e0:	e1a00003 	mov	r0, r3
800041e4:	eb000973 	bl	0x800067b8
800041e8:	e51b3010 	ldr	r3, [fp, #-16]
800041ec:	e5933028 	ldr	r3, [r3, #40]	; 0x28
800041f0:	e3530000 	cmp	r3, #0
800041f4:	0a000005 	beq	0x80004210
800041f8:	e51b3010 	ldr	r3, [fp, #-16]
800041fc:	e5933004 	ldr	r3, [r3, #4]
80004200:	e3a01001 	mov	r1, #1
80004204:	e3401011 	movt	r1, #17
80004208:	e1a00003 	mov	r0, r3
8000420c:	eb000996 	bl	0x8000686c
80004210:	e51b303c 	ldr	r3, [fp, #-60]	; 0xffffffc4
80004214:	e5933000 	ldr	r3, [r3]
80004218:	e50b3030 	str	r3, [fp, #-48]	; 0xffffffd0
8000421c:	e51b303c 	ldr	r3, [fp, #-60]	; 0xffffffc4
80004220:	e5933008 	ldr	r3, [r3, #8]
80004224:	e50b3020 	str	r3, [fp, #-32]	; 0xffffffe0
80004228:	e3a03000 	mov	r3, #0
8000422c:	e50b3014 	str	r3, [fp, #-20]	; 0xffffffec
80004230:	e51b3010 	ldr	r3, [fp, #-16]
80004234:	e5933004 	ldr	r3, [r3, #4]
80004238:	e24b2030 	sub	r2, fp, #48	; 0x30
8000423c:	e1a01002 	mov	r1, r2
80004240:	e1a00003 	mov	r0, r3
80004244:	eb000a4a 	bl	0x80006b74
80004248:	e51b3010 	ldr	r3, [fp, #-16]
8000424c:	e5933028 	ldr	r3, [r3, #40]	; 0x28
80004250:	e3530000 	cmp	r3, #0
80004254:	0a000008 	beq	0x8000427c
80004258:	e51b300c 	ldr	r3, [fp, #-12]
8000425c:	e5933008 	ldr	r3, [r3, #8]
80004260:	e3e01000 	mvn	r1, #0
80004264:	e1a00003 	mov	r0, r3
80004268:	eb002309 	bl	0x8000ce94
8000426c:	ea00000a 	b	0x8000429c
80004270:	e51b3038 	ldr	r3, [fp, #-56]	; 0xffffffc8
80004274:	e1a00003 	mov	r0, r3
80004278:	eb0003db 	bl	0x800051ec
8000427c:	e51b300c 	ldr	r3, [fp, #-12]
80004280:	e5933278 	ldr	r3, [r3, #632]	; 0x278
80004284:	e3530000 	cmp	r3, #0
80004288:	1a000003 	bne	0x8000429c
8000428c:	e51b300c 	ldr	r3, [fp, #-12]
80004290:	e593327c 	ldr	r3, [r3, #636]	; 0x27c
80004294:	e3530000 	cmp	r3, #0
80004298:	0afffff4 	beq	0x80004270
8000429c:	e51b300c 	ldr	r3, [fp, #-12]
800042a0:	e593327c 	ldr	r3, [r3, #636]	; 0x27c
800042a4:	e3530001 	cmp	r3, #1
800042a8:	1a000004 	bne	0x800042c0
800042ac:	e3e03000 	mvn	r3, #0
800042b0:	e50b3008 	str	r3, [fp, #-8]
800042b4:	e51b300c 	ldr	r3, [fp, #-12]
800042b8:	e3a02000 	mov	r2, #0
800042bc:	e583227c 	str	r2, [r3, #636]	; 0x27c
800042c0:	e51b300c 	ldr	r3, [fp, #-12]
800042c4:	e5933278 	ldr	r3, [r3, #632]	; 0x278
800042c8:	e3530001 	cmp	r3, #1
800042cc:	1a00002e 	bne	0x8000438c
800042d0:	e3a03000 	mov	r3, #0
800042d4:	e50b3008 	str	r3, [fp, #-8]
800042d8:	e51b300c 	ldr	r3, [fp, #-12]
800042dc:	e3a02000 	mov	r2, #0
800042e0:	e5832278 	str	r2, [r3, #632]	; 0x278
800042e4:	e51b3010 	ldr	r3, [fp, #-16]
800042e8:	e5933028 	ldr	r3, [r3, #40]	; 0x28
800042ec:	e3530000 	cmp	r3, #0
800042f0:	1a000002 	bne	0x80004300
800042f4:	e51b300c 	ldr	r3, [fp, #-12]
800042f8:	e3a02001 	mov	r2, #1
800042fc:	e5832280 	str	r2, [r3, #640]	; 0x280
80004300:	e51b3010 	ldr	r3, [fp, #-16]
80004304:	e5933028 	ldr	r3, [r3, #40]	; 0x28
80004308:	e3530001 	cmp	r3, #1
8000430c:	1a000017 	bne	0x80004370
80004310:	e51b3024 	ldr	r3, [fp, #-36]	; 0xffffffdc
80004314:	e3530001 	cmp	r3, #1
80004318:	1a000005 	bne	0x80004334
8000431c:	e51b3010 	ldr	r3, [fp, #-16]
80004320:	e5933004 	ldr	r3, [r3, #4]
80004324:	e3a01020 	mov	r1, #32
80004328:	e1a00003 	mov	r0, r3
8000432c:	eb00094e 	bl	0x8000686c
80004330:	ea000004 	b	0x80004348
80004334:	e51b3010 	ldr	r3, [fp, #-16]
80004338:	e5933004 	ldr	r3, [r3, #4]
8000433c:	e3a01010 	mov	r1, #16
80004340:	e1a00003 	mov	r0, r3
80004344:	eb000948 	bl	0x8000686c
80004348:	e51b300c 	ldr	r3, [fp, #-12]
8000434c:	e593300c 	ldr	r3, [r3, #12]
80004350:	e3e01000 	mvn	r1, #0
80004354:	e1a00003 	mov	r0, r3
80004358:	eb0022cd 	bl	0x8000ce94
8000435c:	e51b3010 	ldr	r3, [fp, #-16]
80004360:	e5933004 	ldr	r3, [r3, #4]
80004364:	e3a01002 	mov	r1, #2
80004368:	e1a00003 	mov	r0, r3
8000436c:	eb00093e 	bl	0x8000686c
80004370:	e51b3010 	ldr	r3, [fp, #-16]
80004374:	e5932004 	ldr	r2, [r3, #4]
80004378:	e51b303c 	ldr	r3, [fp, #-60]	; 0xffffffc4
8000437c:	e2833018 	add	r3, r3, #24
80004380:	e1a01003 	mov	r1, r3
80004384:	e1a00002 	mov	r0, r2
80004388:	eb000a4b 	bl	0x80006cbc
8000438c:	e51b300c 	ldr	r3, [fp, #-12]
80004390:	e5933000 	ldr	r3, [r3]
80004394:	e1a00003 	mov	r0, r3
80004398:	eb002300 	bl	0x8000cfa0
8000439c:	e51b3008 	ldr	r3, [fp, #-8]
800043a0:	e3530000 	cmp	r3, #0
800043a4:	1a000036 	bne	0x80004484
800043a8:	e51b3010 	ldr	r3, [fp, #-16]
800043ac:	e5933028 	ldr	r3, [r3, #40]	; 0x28
800043b0:	e3530000 	cmp	r3, #0
800043b4:	0a000005 	beq	0x800043d0
800043b8:	e51b300c 	ldr	r3, [fp, #-12]
800043bc:	e5933010 	ldr	r3, [r3, #16]
800043c0:	e3e01000 	mvn	r1, #0
800043c4:	e1a00003 	mov	r0, r3
800043c8:	eb0022b1 	bl	0x8000ce94
800043cc:	ea00001a 	b	0x8000443c
800043d0:	e51b3030 	ldr	r3, [fp, #-48]	; 0xffffffd0
800043d4:	e3530013 	cmp	r3, #19
800043d8:	0a00000f 	beq	0x8000441c
800043dc:	ea000002 	b	0x800043ec
800043e0:	e51b3038 	ldr	r3, [fp, #-56]	; 0xffffffc8
800043e4:	e1a00003 	mov	r0, r3
800043e8:	eb0003c3 	bl	0x800052fc
800043ec:	e51b300c 	ldr	r3, [fp, #-12]
800043f0:	e5933284 	ldr	r3, [r3, #644]	; 0x284
800043f4:	e3530000 	cmp	r3, #0
800043f8:	1a00000f 	bne	0x8000443c
800043fc:	e51b300c 	ldr	r3, [fp, #-12]
80004400:	e5933288 	ldr	r3, [r3, #648]	; 0x288
80004404:	e3530000 	cmp	r3, #0
80004408:	0afffff4 	beq	0x800043e0
8000440c:	ea00000a 	b	0x8000443c
80004410:	e51b3038 	ldr	r3, [fp, #-56]	; 0xffffffc8
80004414:	e1a00003 	mov	r0, r3
80004418:	eb0004be 	bl	0x80005718
8000441c:	e51b300c 	ldr	r3, [fp, #-12]
80004420:	e5933284 	ldr	r3, [r3, #644]	; 0x284
80004424:	e3530000 	cmp	r3, #0
80004428:	1a000003 	bne	0x8000443c
8000442c:	e51b300c 	ldr	r3, [fp, #-12]
80004430:	e5933288 	ldr	r3, [r3, #648]	; 0x288
80004434:	e3530000 	cmp	r3, #0
80004438:	0afffff4 	beq	0x80004410
8000443c:	e51b300c 	ldr	r3, [fp, #-12]
80004440:	e5933288 	ldr	r3, [r3, #648]	; 0x288
80004444:	e3530001 	cmp	r3, #1
80004448:	1a000004 	bne	0x80004460
8000444c:	e3e03000 	mvn	r3, #0
80004450:	e50b3008 	str	r3, [fp, #-8]
80004454:	e51b300c 	ldr	r3, [fp, #-12]
80004458:	e3a02000 	mov	r2, #0
8000445c:	e5832288 	str	r2, [r3, #648]	; 0x288
80004460:	e51b300c 	ldr	r3, [fp, #-12]
80004464:	e5933284 	ldr	r3, [r3, #644]	; 0x284
80004468:	e3530001 	cmp	r3, #1
8000446c:	1a000004 	bne	0x80004484
80004470:	e3a03000 	mov	r3, #0
80004474:	e50b3008 	str	r3, [fp, #-8]
80004478:	e51b300c 	ldr	r3, [fp, #-12]
8000447c:	e3a02000 	mov	r2, #0
80004480:	e5832284 	str	r2, [r3, #644]	; 0x284
80004484:	e51b300c 	ldr	r3, [fp, #-12]
80004488:	e5933004 	ldr	r3, [r3, #4]
8000448c:	e1a00003 	mov	r0, r3
80004490:	eb0022c2 	bl	0x8000cfa0
80004494:	ea00005a 	b	0x80004604
80004498:	e51b300c 	ldr	r3, [fp, #-12]
8000449c:	e5933000 	ldr	r3, [r3]
800044a0:	e3e01000 	mvn	r1, #0
800044a4:	e1a00003 	mov	r0, r3
800044a8:	eb002279 	bl	0x8000ce94
800044ac:	e51b300c 	ldr	r3, [fp, #-12]
800044b0:	e3a02000 	mov	r2, #0
800044b4:	e5832278 	str	r2, [r3, #632]	; 0x278
800044b8:	e51b300c 	ldr	r3, [fp, #-12]
800044bc:	e3a02000 	mov	r2, #0
800044c0:	e583227c 	str	r2, [r3, #636]	; 0x27c
800044c4:	e51b303c 	ldr	r3, [fp, #-60]	; 0xffffffc4
800044c8:	e5933000 	ldr	r3, [r3]
800044cc:	e50b3030 	str	r3, [fp, #-48]	; 0xffffffd0
800044d0:	e51b303c 	ldr	r3, [fp, #-60]	; 0xffffffc4
800044d4:	e5933008 	ldr	r3, [r3, #8]
800044d8:	e50b3020 	str	r3, [fp, #-32]	; 0xffffffe0
800044dc:	e3a03000 	mov	r3, #0
800044e0:	e50b3014 	str	r3, [fp, #-20]	; 0xffffffec
800044e4:	e51b3010 	ldr	r3, [fp, #-16]
800044e8:	e5933004 	ldr	r3, [r3, #4]
800044ec:	e24b2030 	sub	r2, fp, #48	; 0x30
800044f0:	e1a01002 	mov	r1, r2
800044f4:	e1a00003 	mov	r0, r3
800044f8:	eb00099d 	bl	0x80006b74
800044fc:	e51b3010 	ldr	r3, [fp, #-16]
80004500:	e5933004 	ldr	r3, [r3, #4]
80004504:	e3a01001 	mov	r1, #1
80004508:	e3401001 	movt	r1, #1
8000450c:	e1a00003 	mov	r0, r3
80004510:	eb0008a8 	bl	0x800067b8
80004514:	e51b3010 	ldr	r3, [fp, #-16]
80004518:	e5933028 	ldr	r3, [r3, #40]	; 0x28
8000451c:	e3530000 	cmp	r3, #0
80004520:	0a000005 	beq	0x8000453c
80004524:	e51b3010 	ldr	r3, [fp, #-16]
80004528:	e5933004 	ldr	r3, [r3, #4]
8000452c:	e3a01001 	mov	r1, #1
80004530:	e3401001 	movt	r1, #1
80004534:	e1a00003 	mov	r0, r3
80004538:	eb0008cb 	bl	0x8000686c
8000453c:	e51b3010 	ldr	r3, [fp, #-16]
80004540:	e5933028 	ldr	r3, [r3, #40]	; 0x28
80004544:	e3530000 	cmp	r3, #0
80004548:	0a000008 	beq	0x80004570
8000454c:	e51b300c 	ldr	r3, [fp, #-12]
80004550:	e5933008 	ldr	r3, [r3, #8]
80004554:	e3e01000 	mvn	r1, #0
80004558:	e1a00003 	mov	r0, r3
8000455c:	eb00224c 	bl	0x8000ce94
80004560:	ea00000a 	b	0x80004590
80004564:	e51b3038 	ldr	r3, [fp, #-56]	; 0xffffffc8
80004568:	e1a00003 	mov	r0, r3
8000456c:	eb00031e 	bl	0x800051ec
80004570:	e51b300c 	ldr	r3, [fp, #-12]
80004574:	e5933278 	ldr	r3, [r3, #632]	; 0x278
80004578:	e3530000 	cmp	r3, #0
8000457c:	1a000003 	bne	0x80004590
80004580:	e51b300c 	ldr	r3, [fp, #-12]
80004584:	e593327c 	ldr	r3, [r3, #636]	; 0x27c
80004588:	e3530000 	cmp	r3, #0
8000458c:	0afffff4 	beq	0x80004564
80004590:	e51b300c 	ldr	r3, [fp, #-12]
80004594:	e5933278 	ldr	r3, [r3, #632]	; 0x278
80004598:	e3530001 	cmp	r3, #1
8000459c:	1a000004 	bne	0x800045b4
800045a0:	e3a03000 	mov	r3, #0
800045a4:	e50b3008 	str	r3, [fp, #-8]
800045a8:	e51b300c 	ldr	r3, [fp, #-12]
800045ac:	e3a02000 	mov	r2, #0
800045b0:	e5832278 	str	r2, [r3, #632]	; 0x278
800045b4:	e51b300c 	ldr	r3, [fp, #-12]
800045b8:	e593327c 	ldr	r3, [r3, #636]	; 0x27c
800045bc:	e3530001 	cmp	r3, #1
800045c0:	1a000004 	bne	0x800045d8
800045c4:	e3e03000 	mvn	r3, #0
800045c8:	e50b3008 	str	r3, [fp, #-8]
800045cc:	e51b300c 	ldr	r3, [fp, #-12]
800045d0:	e3a02000 	mov	r2, #0
800045d4:	e583227c 	str	r2, [r3, #636]	; 0x27c
800045d8:	e51b3010 	ldr	r3, [fp, #-16]
800045dc:	e5932004 	ldr	r2, [r3, #4]
800045e0:	e51b303c 	ldr	r3, [fp, #-60]	; 0xffffffc4
800045e4:	e2833018 	add	r3, r3, #24
800045e8:	e1a01003 	mov	r1, r3
800045ec:	e1a00002 	mov	r0, r2
800045f0:	eb0009b1 	bl	0x80006cbc
800045f4:	e51b300c 	ldr	r3, [fp, #-12]
800045f8:	e5933000 	ldr	r3, [r3]
800045fc:	e1a00003 	mov	r0, r3
80004600:	eb002266 	bl	0x8000cfa0
80004604:	e51b3008 	ldr	r3, [fp, #-8]
80004608:	e1a00003 	mov	r0, r3
8000460c:	e24bd004 	sub	sp, fp, #4
80004610:	e8bd8800 	pop	{fp, pc}
80004614:	e92d4800 	push	{fp, lr}
80004618:	e28db004 	add	fp, sp, #4
8000461c:	e24dd018 	sub	sp, sp, #24
80004620:	e50b0010 	str	r0, [fp, #-16]
80004624:	e50b1014 	str	r1, [fp, #-20]	; 0xffffffec
80004628:	e50b2018 	str	r2, [fp, #-24]	; 0xffffffe8
8000462c:	e3e03000 	mvn	r3, #0
80004630:	e50b3008 	str	r3, [fp, #-8]
80004634:	e51b3010 	ldr	r3, [fp, #-16]
80004638:	e3530000 	cmp	r3, #0
8000463c:	03a03001 	moveq	r3, #1
80004640:	13a03000 	movne	r3, #0
80004644:	e6ef3073 	uxtb	r3, r3
80004648:	e3a02eae 	mov	r2, #2784	; 0xae0
8000464c:	e30e1704 	movw	r1, #59140	; 0xe704
80004650:	e3481000 	movt	r1, #32768	; 0x8000
80004654:	e1a00003 	mov	r0, r3
80004658:	eb00228a 	bl	0x8000d088
8000465c:	e51b3014 	ldr	r3, [fp, #-20]	; 0xffffffec
80004660:	e2433020 	sub	r3, r3, #32
80004664:	e3530004 	cmp	r3, #4
80004668:	979ff103 	ldrls	pc, [pc, r3, lsl #2]
8000466c:	ea00001d 	b	0x800046e8
80004670:	80004684 	andhi	r4, r0, r4, lsl #13
80004674:	80004698 	mulhi	r0, r8, r6
80004678:	800046ac 	andhi	r4, r0, ip, lsr #13
8000467c:	800046c0 	andhi	r4, r0, r0, asr #13
80004680:	800046d4 	ldrdhi	r4, [r0], -r4	; <UNPREDICTABLE>
80004684:	e51b1018 	ldr	r1, [fp, #-24]	; 0xffffffe8
80004688:	e51b0010 	ldr	r0, [fp, #-16]
8000468c:	eb00001c 	bl	0x80004704
80004690:	e50b0008 	str	r0, [fp, #-8]
80004694:	ea000016 	b	0x800046f4
80004698:	e51b1018 	ldr	r1, [fp, #-24]	; 0xffffffe8
8000469c:	e51b0010 	ldr	r0, [fp, #-16]
800046a0:	eb000089 	bl	0x800048cc
800046a4:	e50b0008 	str	r0, [fp, #-8]
800046a8:	ea000011 	b	0x800046f4
800046ac:	e51b1018 	ldr	r1, [fp, #-24]	; 0xffffffe8
800046b0:	e51b0010 	ldr	r0, [fp, #-16]
800046b4:	eb0000e5 	bl	0x80004a50
800046b8:	e50b0008 	str	r0, [fp, #-8]
800046bc:	ea00000c 	b	0x800046f4
800046c0:	e51b1018 	ldr	r1, [fp, #-24]	; 0xffffffe8
800046c4:	e51b0010 	ldr	r0, [fp, #-16]
800046c8:	eb000105 	bl	0x80004ae4
800046cc:	e50b0008 	str	r0, [fp, #-8]
800046d0:	ea000007 	b	0x800046f4
800046d4:	e51b1018 	ldr	r1, [fp, #-24]	; 0xffffffe8
800046d8:	e51b0010 	ldr	r0, [fp, #-16]
800046dc:	eb000125 	bl	0x80004b78
800046e0:	e50b0008 	str	r0, [fp, #-8]
800046e4:	ea000002 	b	0x800046f4
800046e8:	e3e03001 	mvn	r3, #1
800046ec:	e50b3008 	str	r3, [fp, #-8]
800046f0:	e320f000 	nop	{0}
800046f4:	e51b3008 	ldr	r3, [fp, #-8]
800046f8:	e1a00003 	mov	r0, r3
800046fc:	e24bd004 	sub	sp, fp, #4
80004700:	e8bd8800 	pop	{fp, pc}
80004704:	e92d4800 	push	{fp, lr}
80004708:	e28db004 	add	fp, sp, #4
8000470c:	e24dd040 	sub	sp, sp, #64	; 0x40
80004710:	e50b0040 	str	r0, [fp, #-64]	; 0xffffffc0
80004714:	e50b1044 	str	r1, [fp, #-68]	; 0xffffffbc
80004718:	e3e03000 	mvn	r3, #0
8000471c:	e50b3008 	str	r3, [fp, #-8]
80004720:	e3a03000 	mov	r3, #0
80004724:	e50b300c 	str	r3, [fp, #-12]
80004728:	e3a03000 	mov	r3, #0
8000472c:	e50b3010 	str	r3, [fp, #-16]
80004730:	e51b3040 	ldr	r3, [fp, #-64]	; 0xffffffc0
80004734:	e3530000 	cmp	r3, #0
80004738:	03a03001 	moveq	r3, #1
8000473c:	13a03000 	movne	r3, #0
80004740:	e6ef3073 	uxtb	r3, r3
80004744:	e3002b19 	movw	r2, #2841	; 0xb19
80004748:	e30e1704 	movw	r1, #59140	; 0xe704
8000474c:	e3481000 	movt	r1, #32768	; 0x8000
80004750:	e1a00003 	mov	r0, r3
80004754:	eb00224b 	bl	0x8000d088
80004758:	e51b3040 	ldr	r3, [fp, #-64]	; 0xffffffc0
8000475c:	e5933004 	ldr	r3, [r3, #4]
80004760:	e50b300c 	str	r3, [fp, #-12]
80004764:	e51b3040 	ldr	r3, [fp, #-64]	; 0xffffffc0
80004768:	e5933008 	ldr	r3, [r3, #8]
8000476c:	e50b3010 	str	r3, [fp, #-16]
80004770:	e51b300c 	ldr	r3, [fp, #-12]
80004774:	e5933020 	ldr	r3, [r3, #32]
80004778:	e3530000 	cmp	r3, #0
8000477c:	1a00004e 	bne	0x800048bc
80004780:	e51b3044 	ldr	r3, [fp, #-68]	; 0xffffffbc
80004784:	e5933000 	ldr	r3, [r3]
80004788:	e3530004 	cmp	r3, #4
8000478c:	0a000003 	beq	0x800047a0
80004790:	e51b3044 	ldr	r3, [fp, #-68]	; 0xffffffbc
80004794:	e5933000 	ldr	r3, [r3]
80004798:	e3530001 	cmp	r3, #1
8000479c:	1a000001 	bne	0x800047a8
800047a0:	e3a03000 	mov	r3, #0
800047a4:	e50b3008 	str	r3, [fp, #-8]
800047a8:	e51b3008 	ldr	r3, [fp, #-8]
800047ac:	e3530000 	cmp	r3, #0
800047b0:	1a00000c 	bne	0x800047e8
800047b4:	e3a03037 	mov	r3, #55	; 0x37
800047b8:	e50b3038 	str	r3, [fp, #-56]	; 0xffffffc8
800047bc:	e3a03000 	mov	r3, #0
800047c0:	e50b3034 	str	r3, [fp, #-52]	; 0xffffffcc
800047c4:	e51b300c 	ldr	r3, [fp, #-12]
800047c8:	e5933024 	ldr	r3, [r3, #36]	; 0x24
800047cc:	e1a03803 	lsl	r3, r3, #16
800047d0:	e50b3030 	str	r3, [fp, #-48]	; 0xffffffd0
800047d4:	e24b3038 	sub	r3, fp, #56	; 0x38
800047d8:	e1a01003 	mov	r1, r3
800047dc:	e51b0040 	ldr	r0, [fp, #-64]	; 0xffffffc0
800047e0:	ebfffd76 	bl	0x80003dc0
800047e4:	e50b0008 	str	r0, [fp, #-8]
800047e8:	e51b3008 	ldr	r3, [fp, #-8]
800047ec:	e3530000 	cmp	r3, #0
800047f0:	1a000031 	bne	0x800048bc
800047f4:	e3a03006 	mov	r3, #6
800047f8:	e50b3038 	str	r3, [fp, #-56]	; 0xffffffc8
800047fc:	e3a03001 	mov	r3, #1
80004800:	e50b3030 	str	r3, [fp, #-48]	; 0xffffffd0
80004804:	e3a03000 	mov	r3, #0
80004808:	e50b3034 	str	r3, [fp, #-52]	; 0xffffffcc
8000480c:	e51b3040 	ldr	r3, [fp, #-64]	; 0xffffffc0
80004810:	e5933008 	ldr	r3, [r3, #8]
80004814:	e593301c 	ldr	r3, [r3, #28]
80004818:	e2033004 	and	r3, r3, #4
8000481c:	e3530000 	cmp	r3, #0
80004820:	0a000005 	beq	0x8000483c
80004824:	e51b3044 	ldr	r3, [fp, #-68]	; 0xffffffbc
80004828:	e5933000 	ldr	r3, [r3]
8000482c:	e3530004 	cmp	r3, #4
80004830:	1a000001 	bne	0x8000483c
80004834:	e3a03004 	mov	r3, #4
80004838:	e50b3030 	str	r3, [fp, #-48]	; 0xffffffd0
8000483c:	e51b3030 	ldr	r3, [fp, #-48]	; 0xffffffd0
80004840:	e1a030a3 	lsr	r3, r3, #1
80004844:	e50b3030 	str	r3, [fp, #-48]	; 0xffffffd0
80004848:	e24b3038 	sub	r3, fp, #56	; 0x38
8000484c:	e1a01003 	mov	r1, r3
80004850:	e51b0040 	ldr	r0, [fp, #-64]	; 0xffffffc0
80004854:	ebfffd59 	bl	0x80003dc0
80004858:	e50b0008 	str	r0, [fp, #-8]
8000485c:	e51b3008 	ldr	r3, [fp, #-8]
80004860:	e3530000 	cmp	r3, #0
80004864:	1a000014 	bne	0x800048bc
80004868:	e51b3044 	ldr	r3, [fp, #-68]	; 0xffffffbc
8000486c:	e5933000 	ldr	r3, [r3]
80004870:	e3530004 	cmp	r3, #4
80004874:	1a000008 	bne	0x8000489c
80004878:	e51b300c 	ldr	r3, [fp, #-12]
8000487c:	e3a02004 	mov	r2, #4
80004880:	e5c32255 	strb	r2, [r3, #597]	; 0x255
80004884:	e51b3010 	ldr	r3, [fp, #-16]
80004888:	e5933004 	ldr	r3, [r3, #4]
8000488c:	e3a01004 	mov	r1, #4
80004890:	e1a00003 	mov	r0, r3
80004894:	eb000549 	bl	0x80005dc0
80004898:	ea000007 	b	0x800048bc
8000489c:	e51b300c 	ldr	r3, [fp, #-12]
800048a0:	e3a02001 	mov	r2, #1
800048a4:	e5c32255 	strb	r2, [r3, #597]	; 0x255
800048a8:	e51b3010 	ldr	r3, [fp, #-16]
800048ac:	e5933004 	ldr	r3, [r3, #4]
800048b0:	e3a01001 	mov	r1, #1
800048b4:	e1a00003 	mov	r0, r3
800048b8:	eb000540 	bl	0x80005dc0
800048bc:	e51b3008 	ldr	r3, [fp, #-8]
800048c0:	e1a00003 	mov	r0, r3
800048c4:	e24bd004 	sub	sp, fp, #4
800048c8:	e8bd8800 	pop	{fp, pc}
800048cc:	e92d4800 	push	{fp, lr}
800048d0:	e28db004 	add	fp, sp, #4
800048d4:	e24dd018 	sub	sp, sp, #24
800048d8:	e50b0018 	str	r0, [fp, #-24]	; 0xffffffe8
800048dc:	e50b101c 	str	r1, [fp, #-28]	; 0xffffffe4
800048e0:	e3e03000 	mvn	r3, #0
800048e4:	e50b3008 	str	r3, [fp, #-8]
800048e8:	e3a03000 	mov	r3, #0
800048ec:	e50b3010 	str	r3, [fp, #-16]
800048f0:	e51b3018 	ldr	r3, [fp, #-24]	; 0xffffffe8
800048f4:	e3530000 	cmp	r3, #0
800048f8:	03a03001 	moveq	r3, #1
800048fc:	13a03000 	movne	r3, #0
80004900:	e6ef3073 	uxtb	r3, r3
80004904:	e3002b61 	movw	r2, #2913	; 0xb61
80004908:	e30e1704 	movw	r1, #59140	; 0xe704
8000490c:	e3481000 	movt	r1, #32768	; 0x8000
80004910:	e1a00003 	mov	r0, r3
80004914:	eb0021db 	bl	0x8000d088
80004918:	e51b3018 	ldr	r3, [fp, #-24]	; 0xffffffe8
8000491c:	e5933004 	ldr	r3, [r3, #4]
80004920:	e50b3010 	str	r3, [fp, #-16]
80004924:	e51b3010 	ldr	r3, [fp, #-16]
80004928:	e5933020 	ldr	r3, [r3, #32]
8000492c:	e3530000 	cmp	r3, #0
80004930:	1a000042 	bne	0x80004a40
80004934:	e51b301c 	ldr	r3, [fp, #-28]	; 0xffffffe4
80004938:	e5933000 	ldr	r3, [r3]
8000493c:	e3530032 	cmp	r3, #50	; 0x32
80004940:	0a00000f 	beq	0x80004984
80004944:	e51b301c 	ldr	r3, [fp, #-28]	; 0xffffffe4
80004948:	e5933000 	ldr	r3, [r3]
8000494c:	e353005a 	cmp	r3, #90	; 0x5a
80004950:	0a00000b 	beq	0x80004984
80004954:	e51b301c 	ldr	r3, [fp, #-28]	; 0xffffffe4
80004958:	e5933000 	ldr	r3, [r3]
8000495c:	e353000b 	cmp	r3, #11
80004960:	0a000007 	beq	0x80004984
80004964:	e51b301c 	ldr	r3, [fp, #-28]	; 0xffffffe4
80004968:	e5933000 	ldr	r3, [r3]
8000496c:	e353003b 	cmp	r3, #59	; 0x3b
80004970:	0a000003 	beq	0x80004984
80004974:	e51b301c 	ldr	r3, [fp, #-28]	; 0xffffffe4
80004978:	e5933000 	ldr	r3, [r3]
8000497c:	e353002b 	cmp	r3, #43	; 0x2b
80004980:	1a000001 	bne	0x8000498c
80004984:	e3a03000 	mov	r3, #0
80004988:	e50b3008 	str	r3, [fp, #-8]
8000498c:	e51b3010 	ldr	r3, [fp, #-16]
80004990:	e5d33256 	ldrb	r3, [r3, #598]	; 0x256
80004994:	e1a02003 	mov	r2, r3
80004998:	e51b301c 	ldr	r3, [fp, #-28]	; 0xffffffe4
8000499c:	e5933000 	ldr	r3, [r3]
800049a0:	e1520003 	cmp	r2, r3
800049a4:	1a000001 	bne	0x800049b0
800049a8:	e3a03000 	mov	r3, #0
800049ac:	ea000024 	b	0x80004a44
800049b0:	e51b301c 	ldr	r3, [fp, #-28]	; 0xffffffe4
800049b4:	e5933000 	ldr	r3, [r3]
800049b8:	e353002b 	cmp	r3, #43	; 0x2b
800049bc:	0a000009 	beq	0x800049e8
800049c0:	e353002b 	cmp	r3, #43	; 0x2b
800049c4:	8a000002 	bhi	0x800049d4
800049c8:	e353000b 	cmp	r3, #11
800049cc:	0a000008 	beq	0x800049f4
800049d0:	ea000010 	b	0x80004a18
800049d4:	e353003b 	cmp	r3, #59	; 0x3b
800049d8:	0a000008 	beq	0x80004a00
800049dc:	e353005a 	cmp	r3, #90	; 0x5a
800049e0:	0a000009 	beq	0x80004a0c
800049e4:	ea00000b 	b	0x80004a18
800049e8:	e3a03003 	mov	r3, #3
800049ec:	e50b300c 	str	r3, [fp, #-12]
800049f0:	ea00000b 	b	0x80004a24
800049f4:	e3a03002 	mov	r3, #2
800049f8:	e50b300c 	str	r3, [fp, #-12]
800049fc:	ea000008 	b	0x80004a24
80004a00:	e3a03004 	mov	r3, #4
80004a04:	e50b300c 	str	r3, [fp, #-12]
80004a08:	ea000005 	b	0x80004a24
80004a0c:	e3a03001 	mov	r3, #1
80004a10:	e50b300c 	str	r3, [fp, #-12]
80004a14:	ea000002 	b	0x80004a24
80004a18:	e3a03000 	mov	r3, #0
80004a1c:	e50b300c 	str	r3, [fp, #-12]
80004a20:	e320f000 	nop	{0}
80004a24:	e51b3008 	ldr	r3, [fp, #-8]
80004a28:	e3530000 	cmp	r3, #0
80004a2c:	1a000003 	bne	0x80004a40
80004a30:	e51b100c 	ldr	r1, [fp, #-12]
80004a34:	e51b0018 	ldr	r0, [fp, #-24]	; 0xffffffe8
80004a38:	ebfff8d8 	bl	0x80002da0
80004a3c:	e50b0008 	str	r0, [fp, #-8]
80004a40:	e51b3008 	ldr	r3, [fp, #-8]
80004a44:	e1a00003 	mov	r0, r3
80004a48:	e24bd004 	sub	sp, fp, #4
80004a4c:	e8bd8800 	pop	{fp, pc}
80004a50:	e92d4800 	push	{fp, lr}
80004a54:	e28db004 	add	fp, sp, #4
80004a58:	e24dd010 	sub	sp, sp, #16
80004a5c:	e50b0010 	str	r0, [fp, #-16]
80004a60:	e50b1014 	str	r1, [fp, #-20]	; 0xffffffec
80004a64:	e3e03000 	mvn	r3, #0
80004a68:	e50b3008 	str	r3, [fp, #-8]
80004a6c:	e3a03000 	mov	r3, #0
80004a70:	e50b300c 	str	r3, [fp, #-12]
80004a74:	e51b3010 	ldr	r3, [fp, #-16]
80004a78:	e3530000 	cmp	r3, #0
80004a7c:	03a03001 	moveq	r3, #1
80004a80:	13a03000 	movne	r3, #0
80004a84:	e6ef3073 	uxtb	r3, r3
80004a88:	e3002b9d 	movw	r2, #2973	; 0xb9d
80004a8c:	e30e1704 	movw	r1, #59140	; 0xe704
80004a90:	e3481000 	movt	r1, #32768	; 0x8000
80004a94:	e1a00003 	mov	r0, r3
80004a98:	eb00217a 	bl	0x8000d088
80004a9c:	e51b3010 	ldr	r3, [fp, #-16]
80004aa0:	e5933004 	ldr	r3, [r3, #4]
80004aa4:	e50b300c 	str	r3, [fp, #-12]
80004aa8:	e51b300c 	ldr	r3, [fp, #-12]
80004aac:	e5933020 	ldr	r3, [r3, #32]
80004ab0:	e3530000 	cmp	r3, #0
80004ab4:	1a000006 	bne	0x80004ad4
80004ab8:	e51b300c 	ldr	r3, [fp, #-12]
80004abc:	e5d33255 	ldrb	r3, [r3, #597]	; 0x255
80004ac0:	e1a02003 	mov	r2, r3
80004ac4:	e51b3014 	ldr	r3, [fp, #-20]	; 0xffffffec
80004ac8:	e5832000 	str	r2, [r3]
80004acc:	e3a03000 	mov	r3, #0
80004ad0:	e50b3008 	str	r3, [fp, #-8]
80004ad4:	e51b3008 	ldr	r3, [fp, #-8]
80004ad8:	e1a00003 	mov	r0, r3
80004adc:	e24bd004 	sub	sp, fp, #4
80004ae0:	e8bd8800 	pop	{fp, pc}
80004ae4:	e92d4800 	push	{fp, lr}
80004ae8:	e28db004 	add	fp, sp, #4
80004aec:	e24dd010 	sub	sp, sp, #16
80004af0:	e50b0010 	str	r0, [fp, #-16]
80004af4:	e50b1014 	str	r1, [fp, #-20]	; 0xffffffec
80004af8:	e3e03000 	mvn	r3, #0
80004afc:	e50b3008 	str	r3, [fp, #-8]
80004b00:	e3a03000 	mov	r3, #0
80004b04:	e50b300c 	str	r3, [fp, #-12]
80004b08:	e51b3010 	ldr	r3, [fp, #-16]
80004b0c:	e3530000 	cmp	r3, #0
80004b10:	03a03001 	moveq	r3, #1
80004b14:	13a03000 	movne	r3, #0
80004b18:	e6ef3073 	uxtb	r3, r3
80004b1c:	e3002bb8 	movw	r2, #3000	; 0xbb8
80004b20:	e30e1704 	movw	r1, #59140	; 0xe704
80004b24:	e3481000 	movt	r1, #32768	; 0x8000
80004b28:	e1a00003 	mov	r0, r3
80004b2c:	eb002155 	bl	0x8000d088
80004b30:	e51b3010 	ldr	r3, [fp, #-16]
80004b34:	e5933004 	ldr	r3, [r3, #4]
80004b38:	e50b300c 	str	r3, [fp, #-12]
80004b3c:	e51b300c 	ldr	r3, [fp, #-12]
80004b40:	e5933020 	ldr	r3, [r3, #32]
80004b44:	e3530000 	cmp	r3, #0
80004b48:	1a000006 	bne	0x80004b68
80004b4c:	e51b300c 	ldr	r3, [fp, #-12]
80004b50:	e5d33256 	ldrb	r3, [r3, #598]	; 0x256
80004b54:	e1a02003 	mov	r2, r3
80004b58:	e51b3014 	ldr	r3, [fp, #-20]	; 0xffffffec
80004b5c:	e5832000 	str	r2, [r3]
80004b60:	e3a03000 	mov	r3, #0
80004b64:	e50b3008 	str	r3, [fp, #-8]
80004b68:	e51b3008 	ldr	r3, [fp, #-8]
80004b6c:	e1a00003 	mov	r0, r3
80004b70:	e24bd004 	sub	sp, fp, #4
80004b74:	e8bd8800 	pop	{fp, pc}
80004b78:	e92d4800 	push	{fp, lr}
80004b7c:	e28db004 	add	fp, sp, #4
80004b80:	e24dd010 	sub	sp, sp, #16
80004b84:	e50b0010 	str	r0, [fp, #-16]
80004b88:	e50b1014 	str	r1, [fp, #-20]	; 0xffffffec
80004b8c:	e3e03000 	mvn	r3, #0
80004b90:	e50b3008 	str	r3, [fp, #-8]
80004b94:	e3a03000 	mov	r3, #0
80004b98:	e50b300c 	str	r3, [fp, #-12]
80004b9c:	e51b3010 	ldr	r3, [fp, #-16]
80004ba0:	e3530000 	cmp	r3, #0
80004ba4:	03a03001 	moveq	r3, #1
80004ba8:	13a03000 	movne	r3, #0
80004bac:	e6ef3073 	uxtb	r3, r3
80004bb0:	e3002bd3 	movw	r2, #3027	; 0xbd3
80004bb4:	e30e1704 	movw	r1, #59140	; 0xe704
80004bb8:	e3481000 	movt	r1, #32768	; 0x8000
80004bbc:	e1a00003 	mov	r0, r3
80004bc0:	eb002130 	bl	0x8000d088
80004bc4:	e51b3014 	ldr	r3, [fp, #-20]	; 0xffffffec
80004bc8:	e3530000 	cmp	r3, #0
80004bcc:	03a03001 	moveq	r3, #1
80004bd0:	13a03000 	movne	r3, #0
80004bd4:	e6ef3073 	uxtb	r3, r3
80004bd8:	e3002bd6 	movw	r2, #3030	; 0xbd6
80004bdc:	e30e1704 	movw	r1, #59140	; 0xe704
80004be0:	e3481000 	movt	r1, #32768	; 0x8000
80004be4:	e1a00003 	mov	r0, r3
80004be8:	eb002126 	bl	0x8000d088
80004bec:	e51b3010 	ldr	r3, [fp, #-16]
80004bf0:	e5933004 	ldr	r3, [r3, #4]
80004bf4:	e50b300c 	str	r3, [fp, #-12]
80004bf8:	e51b300c 	ldr	r3, [fp, #-12]
80004bfc:	e593225c 	ldr	r2, [r3, #604]	; 0x25c
80004c00:	e51b3014 	ldr	r3, [fp, #-20]	; 0xffffffec
80004c04:	e5832000 	str	r2, [r3]
80004c08:	e51b300c 	ldr	r3, [fp, #-12]
80004c0c:	e2833e26 	add	r3, r3, #608	; 0x260
80004c10:	e1c320d0 	ldrd	r2, [r3]
80004c14:	e51b1014 	ldr	r1, [fp, #-20]	; 0xffffffec
80004c18:	e1c120f8 	strd	r2, [r1, #8]
80004c1c:	e51b300c 	ldr	r3, [fp, #-12]
80004c20:	e2833e27 	add	r3, r3, #624	; 0x270
80004c24:	e14320d8 	ldrd	r2, [r3, #-8]
80004c28:	e51b1014 	ldr	r1, [fp, #-20]	; 0xffffffec
80004c2c:	e1c121f0 	strd	r2, [r1, #16]
80004c30:	e3a03000 	mov	r3, #0
80004c34:	e50b3008 	str	r3, [fp, #-8]
80004c38:	e51b3008 	ldr	r3, [fp, #-8]
80004c3c:	e1a00003 	mov	r0, r3
80004c40:	e24bd004 	sub	sp, fp, #4
80004c44:	e8bd8800 	pop	{fp, pc}
80004c48:	e92d4800 	push	{fp, lr}
80004c4c:	e28db004 	add	fp, sp, #4
80004c50:	e24dd030 	sub	sp, sp, #48	; 0x30
80004c54:	e50b0030 	str	r0, [fp, #-48]	; 0xffffffd0
80004c58:	e3a03000 	mov	r3, #0
80004c5c:	e50b3008 	str	r3, [fp, #-8]
80004c60:	e3a03000 	mov	r3, #0
80004c64:	e50b3020 	str	r3, [fp, #-32]	; 0xffffffe0
80004c68:	e3a03000 	mov	r3, #0
80004c6c:	e50b3024 	str	r3, [fp, #-36]	; 0xffffffdc
80004c70:	e3a03000 	mov	r3, #0
80004c74:	e50b3028 	str	r3, [fp, #-40]	; 0xffffffd8
80004c78:	e3a03000 	mov	r3, #0
80004c7c:	e50b302c 	str	r3, [fp, #-44]	; 0xffffffd4
80004c80:	e3a03000 	mov	r3, #0
80004c84:	e50b300c 	str	r3, [fp, #-12]
80004c88:	e3a03000 	mov	r3, #0
80004c8c:	e50b3010 	str	r3, [fp, #-16]
80004c90:	e51b3030 	ldr	r3, [fp, #-48]	; 0xffffffd0
80004c94:	e3530000 	cmp	r3, #0
80004c98:	03a03001 	moveq	r3, #1
80004c9c:	13a03000 	movne	r3, #0
80004ca0:	e6ef3073 	uxtb	r3, r3
80004ca4:	e3002bf6 	movw	r2, #3062	; 0xbf6
80004ca8:	e30e1704 	movw	r1, #59140	; 0xe704
80004cac:	e3481000 	movt	r1, #32768	; 0x8000
80004cb0:	e1a00003 	mov	r0, r3
80004cb4:	eb0020f3 	bl	0x8000d088
80004cb8:	e51b3030 	ldr	r3, [fp, #-48]	; 0xffffffd0
80004cbc:	e5933004 	ldr	r3, [r3, #4]
80004cc0:	e50b300c 	str	r3, [fp, #-12]
80004cc4:	e51b3030 	ldr	r3, [fp, #-48]	; 0xffffffd0
80004cc8:	e5933008 	ldr	r3, [r3, #8]
80004ccc:	e50b3010 	str	r3, [fp, #-16]
80004cd0:	e51b3010 	ldr	r3, [fp, #-16]
80004cd4:	e5933004 	ldr	r3, [r3, #4]
80004cd8:	e1a00003 	mov	r0, r3
80004cdc:	eb000722 	bl	0x8000696c
80004ce0:	e1a03000 	mov	r3, r0
80004ce4:	e50b3020 	str	r3, [fp, #-32]	; 0xffffffe0
80004ce8:	e51b3010 	ldr	r3, [fp, #-16]
80004cec:	e5933004 	ldr	r3, [r3, #4]
80004cf0:	e1a00003 	mov	r0, r3
80004cf4:	eb000710 	bl	0x8000693c
80004cf8:	e1a03000 	mov	r3, r0
80004cfc:	e50b3024 	str	r3, [fp, #-36]	; 0xffffffdc
80004d00:	e51b3020 	ldr	r3, [fp, #-32]	; 0xffffffe0
80004d04:	e2033001 	and	r3, r3, #1
80004d08:	e3530000 	cmp	r3, #0
80004d0c:	0a00000f 	beq	0x80004d50
80004d10:	e51b3010 	ldr	r3, [fp, #-16]
80004d14:	e5933004 	ldr	r3, [r3, #4]
80004d18:	e3a01001 	mov	r1, #1
80004d1c:	e1a00003 	mov	r0, r3
80004d20:	eb00071d 	bl	0x8000699c
80004d24:	e51b300c 	ldr	r3, [fp, #-12]
80004d28:	e3a02001 	mov	r2, #1
80004d2c:	e5832278 	str	r2, [r3, #632]	; 0x278
80004d30:	e51b3024 	ldr	r3, [fp, #-36]	; 0xffffffdc
80004d34:	e2033001 	and	r3, r3, #1
80004d38:	e3530000 	cmp	r3, #0
80004d3c:	0a000003 	beq	0x80004d50
80004d40:	e51b300c 	ldr	r3, [fp, #-12]
80004d44:	e5933008 	ldr	r3, [r3, #8]
80004d48:	e1a00003 	mov	r0, r3
80004d4c:	eb002093 	bl	0x8000cfa0
80004d50:	e51b3020 	ldr	r3, [fp, #-32]	; 0xffffffe0
80004d54:	e2033902 	and	r3, r3, #32768	; 0x8000
80004d58:	e3530000 	cmp	r3, #0
80004d5c:	0a000017 	beq	0x80004dc0
80004d60:	e51b3020 	ldr	r3, [fp, #-32]	; 0xffffffe0
80004d64:	e1a03823 	lsr	r3, r3, #16
80004d68:	e1a03803 	lsl	r3, r3, #16
80004d6c:	e50b3014 	str	r3, [fp, #-20]	; 0xffffffec
80004d70:	e51b3014 	ldr	r3, [fp, #-20]	; 0xffffffec
80004d74:	e2033801 	and	r3, r3, #65536	; 0x10000
80004d78:	e3530000 	cmp	r3, #0
80004d7c:	0a00000f 	beq	0x80004dc0
80004d80:	e51b3010 	ldr	r3, [fp, #-16]
80004d84:	e5933004 	ldr	r3, [r3, #4]
80004d88:	e3a01801 	mov	r1, #65536	; 0x10000
80004d8c:	e1a00003 	mov	r0, r3
80004d90:	eb000701 	bl	0x8000699c
80004d94:	e51b300c 	ldr	r3, [fp, #-12]
80004d98:	e3a02001 	mov	r2, #1
80004d9c:	e583227c 	str	r2, [r3, #636]	; 0x27c
80004da0:	e51b3024 	ldr	r3, [fp, #-36]	; 0xffffffdc
80004da4:	e2033801 	and	r3, r3, #65536	; 0x10000
80004da8:	e3530000 	cmp	r3, #0
80004dac:	0a000003 	beq	0x80004dc0
80004db0:	e51b300c 	ldr	r3, [fp, #-12]
80004db4:	e5933008 	ldr	r3, [r3, #8]
80004db8:	e1a00003 	mov	r0, r3
80004dbc:	eb002077 	bl	0x8000cfa0
80004dc0:	e51b3020 	ldr	r3, [fp, #-32]	; 0xffffffe0
80004dc4:	e2033020 	and	r3, r3, #32
80004dc8:	e3530000 	cmp	r3, #0
80004dcc:	0a00005e 	beq	0x80004f4c
80004dd0:	e51b3024 	ldr	r3, [fp, #-36]	; 0xffffffdc
80004dd4:	e2033020 	and	r3, r3, #32
80004dd8:	e3530000 	cmp	r3, #0
80004ddc:	0a00005a 	beq	0x80004f4c
80004de0:	e51b3010 	ldr	r3, [fp, #-16]
80004de4:	e5933004 	ldr	r3, [r3, #4]
80004de8:	e3a01020 	mov	r1, #32
80004dec:	e1a00003 	mov	r0, r3
80004df0:	eb0006e9 	bl	0x8000699c
80004df4:	e51b300c 	ldr	r3, [fp, #-12]
80004df8:	e593328c 	ldr	r3, [r3, #652]	; 0x28c
80004dfc:	e3530000 	cmp	r3, #0
80004e00:	0a000051 	beq	0x80004f4c
80004e04:	e51b300c 	ldr	r3, [fp, #-12]
80004e08:	e3a02001 	mov	r2, #1
80004e0c:	e5832280 	str	r2, [r3, #640]	; 0x280
80004e10:	e51b300c 	ldr	r3, [fp, #-12]
80004e14:	e5933294 	ldr	r3, [r3, #660]	; 0x294
80004e18:	e50b3008 	str	r3, [fp, #-8]
80004e1c:	e51b300c 	ldr	r3, [fp, #-12]
80004e20:	e59332a4 	ldr	r3, [r3, #676]	; 0x2a4
80004e24:	e50b3018 	str	r3, [fp, #-24]	; 0xffffffe8
80004e28:	e51b300c 	ldr	r3, [fp, #-12]
80004e2c:	e5932290 	ldr	r2, [r3, #656]	; 0x290
80004e30:	e51b3018 	ldr	r3, [fp, #-24]	; 0xffffffe8
80004e34:	e0423003 	sub	r3, r2, r3
80004e38:	e51b200c 	ldr	r2, [fp, #-12]
80004e3c:	e5922294 	ldr	r2, [r2, #660]	; 0x294
80004e40:	e0030392 	mul	r3, r2, r3
80004e44:	e50b301c 	str	r3, [fp, #-28]	; 0xffffffe4
80004e48:	e3a03000 	mov	r3, #0
80004e4c:	e50b302c 	str	r3, [fp, #-44]	; 0xffffffd4
80004e50:	ea00002c 	b	0x80004f08
80004e54:	e51b3010 	ldr	r3, [fp, #-16]
80004e58:	e5933004 	ldr	r3, [r3, #4]
80004e5c:	e24b1028 	sub	r1, fp, #40	; 0x28
80004e60:	e3a02004 	mov	r2, #4
80004e64:	e1a00003 	mov	r0, r3
80004e68:	eb0007ba 	bl	0x80006d58
80004e6c:	e51b300c 	ldr	r3, [fp, #-12]
80004e70:	e593228c 	ldr	r2, [r3, #652]	; 0x28c
80004e74:	e51b102c 	ldr	r1, [fp, #-44]	; 0xffffffd4
80004e78:	e51b301c 	ldr	r3, [fp, #-28]	; 0xffffffe4
80004e7c:	e0813003 	add	r3, r1, r3
80004e80:	e0823003 	add	r3, r2, r3
80004e84:	e24b2028 	sub	r2, fp, #40	; 0x28
80004e88:	e5d22000 	ldrb	r2, [r2]
80004e8c:	e5c32000 	strb	r2, [r3]
80004e90:	e51b300c 	ldr	r3, [fp, #-12]
80004e94:	e593228c 	ldr	r2, [r3, #652]	; 0x28c
80004e98:	e51b102c 	ldr	r1, [fp, #-44]	; 0xffffffd4
80004e9c:	e51b301c 	ldr	r3, [fp, #-28]	; 0xffffffe4
80004ea0:	e0813003 	add	r3, r1, r3
80004ea4:	e2833001 	add	r3, r3, #1
80004ea8:	e0823003 	add	r3, r2, r3
80004eac:	e55b2027 	ldrb	r2, [fp, #-39]	; 0xffffffd9
80004eb0:	e5c32000 	strb	r2, [r3]
80004eb4:	e51b300c 	ldr	r3, [fp, #-12]
80004eb8:	e593228c 	ldr	r2, [r3, #652]	; 0x28c
80004ebc:	e51b102c 	ldr	r1, [fp, #-44]	; 0xffffffd4
80004ec0:	e51b301c 	ldr	r3, [fp, #-28]	; 0xffffffe4
80004ec4:	e0813003 	add	r3, r1, r3
80004ec8:	e2833002 	add	r3, r3, #2
80004ecc:	e0823003 	add	r3, r2, r3
80004ed0:	e55b2026 	ldrb	r2, [fp, #-38]	; 0xffffffda
80004ed4:	e5c32000 	strb	r2, [r3]
80004ed8:	e51b300c 	ldr	r3, [fp, #-12]
80004edc:	e593228c 	ldr	r2, [r3, #652]	; 0x28c
80004ee0:	e51b102c 	ldr	r1, [fp, #-44]	; 0xffffffd4
80004ee4:	e51b301c 	ldr	r3, [fp, #-28]	; 0xffffffe4
80004ee8:	e0813003 	add	r3, r1, r3
80004eec:	e2833003 	add	r3, r3, #3
80004ef0:	e0823003 	add	r3, r2, r3
80004ef4:	e55b2025 	ldrb	r2, [fp, #-37]	; 0xffffffdb
80004ef8:	e5c32000 	strb	r2, [r3]
80004efc:	e51b302c 	ldr	r3, [fp, #-44]	; 0xffffffd4
80004f00:	e2833004 	add	r3, r3, #4
80004f04:	e50b302c 	str	r3, [fp, #-44]	; 0xffffffd4
80004f08:	e51b202c 	ldr	r2, [fp, #-44]	; 0xffffffd4
80004f0c:	e51b3008 	ldr	r3, [fp, #-8]
80004f10:	e1520003 	cmp	r2, r3
80004f14:	3affffce 	bcc	0x80004e54
80004f18:	e51b300c 	ldr	r3, [fp, #-12]
80004f1c:	e59332a4 	ldr	r3, [r3, #676]	; 0x2a4
80004f20:	e2432001 	sub	r2, r3, #1
80004f24:	e51b300c 	ldr	r3, [fp, #-12]
80004f28:	e58322a4 	str	r2, [r3, #676]	; 0x2a4
80004f2c:	e51b300c 	ldr	r3, [fp, #-12]
80004f30:	e59332a4 	ldr	r3, [r3, #676]	; 0x2a4
80004f34:	e3530000 	cmp	r3, #0
80004f38:	1a000003 	bne	0x80004f4c
80004f3c:	e51b300c 	ldr	r3, [fp, #-12]
80004f40:	e593300c 	ldr	r3, [r3, #12]
80004f44:	e1a00003 	mov	r0, r3
80004f48:	eb002014 	bl	0x8000cfa0
80004f4c:	e51b3020 	ldr	r3, [fp, #-32]	; 0xffffffe0
80004f50:	e2033010 	and	r3, r3, #16
80004f54:	e3530000 	cmp	r3, #0
80004f58:	0a000065 	beq	0x800050f4
80004f5c:	e51b3024 	ldr	r3, [fp, #-36]	; 0xffffffdc
80004f60:	e2033010 	and	r3, r3, #16
80004f64:	e3530000 	cmp	r3, #0
80004f68:	0a000061 	beq	0x800050f4
80004f6c:	e51b3010 	ldr	r3, [fp, #-16]
80004f70:	e5933004 	ldr	r3, [r3, #4]
80004f74:	e3a01010 	mov	r1, #16
80004f78:	e1a00003 	mov	r0, r3
80004f7c:	eb000686 	bl	0x8000699c
80004f80:	e51b300c 	ldr	r3, [fp, #-12]
80004f84:	e593328c 	ldr	r3, [r3, #652]	; 0x28c
80004f88:	e3530000 	cmp	r3, #0
80004f8c:	0a000058 	beq	0x800050f4
80004f90:	e51b300c 	ldr	r3, [fp, #-12]
80004f94:	e3a02001 	mov	r2, #1
80004f98:	e5832280 	str	r2, [r3, #640]	; 0x280
80004f9c:	e51b300c 	ldr	r3, [fp, #-12]
80004fa0:	e5933294 	ldr	r3, [r3, #660]	; 0x294
80004fa4:	e50b3008 	str	r3, [fp, #-8]
80004fa8:	e51b300c 	ldr	r3, [fp, #-12]
80004fac:	e593329c 	ldr	r3, [r3, #668]	; 0x29c
80004fb0:	e50b3018 	str	r3, [fp, #-24]	; 0xffffffe8
80004fb4:	e51b300c 	ldr	r3, [fp, #-12]
80004fb8:	e5932290 	ldr	r2, [r3, #656]	; 0x290
80004fbc:	e51b3018 	ldr	r3, [fp, #-24]	; 0xffffffe8
80004fc0:	e0423003 	sub	r3, r2, r3
80004fc4:	e51b200c 	ldr	r2, [fp, #-12]
80004fc8:	e5922294 	ldr	r2, [r2, #660]	; 0x294
80004fcc:	e0030392 	mul	r3, r2, r3
80004fd0:	e50b301c 	str	r3, [fp, #-28]	; 0xffffffe4
80004fd4:	e3a03000 	mov	r3, #0
80004fd8:	e50b302c 	str	r3, [fp, #-44]	; 0xffffffd4
80004fdc:	ea000033 	b	0x800050b0
80004fe0:	e24b3028 	sub	r3, fp, #40	; 0x28
80004fe4:	e51b200c 	ldr	r2, [fp, #-12]
80004fe8:	e592128c 	ldr	r1, [r2, #652]	; 0x28c
80004fec:	e51b002c 	ldr	r0, [fp, #-44]	; 0xffffffd4
80004ff0:	e51b201c 	ldr	r2, [fp, #-28]	; 0xffffffe4
80004ff4:	e0802002 	add	r2, r0, r2
80004ff8:	e0812002 	add	r2, r1, r2
80004ffc:	e5d22000 	ldrb	r2, [r2]
80005000:	e5c32000 	strb	r2, [r3]
80005004:	e24b3028 	sub	r3, fp, #40	; 0x28
80005008:	e2833001 	add	r3, r3, #1
8000500c:	e51b200c 	ldr	r2, [fp, #-12]
80005010:	e592128c 	ldr	r1, [r2, #652]	; 0x28c
80005014:	e51b002c 	ldr	r0, [fp, #-44]	; 0xffffffd4
80005018:	e51b201c 	ldr	r2, [fp, #-28]	; 0xffffffe4
8000501c:	e0802002 	add	r2, r0, r2
80005020:	e2822001 	add	r2, r2, #1
80005024:	e0812002 	add	r2, r1, r2
80005028:	e5d22000 	ldrb	r2, [r2]
8000502c:	e5c32000 	strb	r2, [r3]
80005030:	e24b3028 	sub	r3, fp, #40	; 0x28
80005034:	e2833002 	add	r3, r3, #2
80005038:	e51b200c 	ldr	r2, [fp, #-12]
8000503c:	e592128c 	ldr	r1, [r2, #652]	; 0x28c
80005040:	e51b002c 	ldr	r0, [fp, #-44]	; 0xffffffd4
80005044:	e51b201c 	ldr	r2, [fp, #-28]	; 0xffffffe4
80005048:	e0802002 	add	r2, r0, r2
8000504c:	e2822002 	add	r2, r2, #2
80005050:	e0812002 	add	r2, r1, r2
80005054:	e5d22000 	ldrb	r2, [r2]
80005058:	e5c32000 	strb	r2, [r3]
8000505c:	e24b3028 	sub	r3, fp, #40	; 0x28
80005060:	e2833003 	add	r3, r3, #3
80005064:	e51b200c 	ldr	r2, [fp, #-12]
80005068:	e592128c 	ldr	r1, [r2, #652]	; 0x28c
8000506c:	e51b002c 	ldr	r0, [fp, #-44]	; 0xffffffd4
80005070:	e51b201c 	ldr	r2, [fp, #-28]	; 0xffffffe4
80005074:	e0802002 	add	r2, r0, r2
80005078:	e2822003 	add	r2, r2, #3
8000507c:	e0812002 	add	r2, r1, r2
80005080:	e5d22000 	ldrb	r2, [r2]
80005084:	e5c32000 	strb	r2, [r3]
80005088:	e51b3010 	ldr	r3, [fp, #-16]
8000508c:	e5933004 	ldr	r3, [r3, #4]
80005090:	e2833e22 	add	r3, r3, #544	; 0x220
80005094:	e51b2028 	ldr	r2, [fp, #-40]	; 0xffffffd8
80005098:	e1a01002 	mov	r1, r2
8000509c:	e1a00003 	mov	r0, r3
800050a0:	ebffefb2 	bl	0x80000f70
800050a4:	e51b302c 	ldr	r3, [fp, #-44]	; 0xffffffd4
800050a8:	e2833004 	add	r3, r3, #4
800050ac:	e50b302c 	str	r3, [fp, #-44]	; 0xffffffd4
800050b0:	e51b202c 	ldr	r2, [fp, #-44]	; 0xffffffd4
800050b4:	e51b3008 	ldr	r3, [fp, #-8]
800050b8:	e1520003 	cmp	r2, r3
800050bc:	3affffc7 	bcc	0x80004fe0
800050c0:	e51b300c 	ldr	r3, [fp, #-12]
800050c4:	e593329c 	ldr	r3, [r3, #668]	; 0x29c
800050c8:	e2432001 	sub	r2, r3, #1
800050cc:	e51b300c 	ldr	r3, [fp, #-12]
800050d0:	e583229c 	str	r2, [r3, #668]	; 0x29c
800050d4:	e51b300c 	ldr	r3, [fp, #-12]
800050d8:	e593329c 	ldr	r3, [r3, #668]	; 0x29c
800050dc:	e3530000 	cmp	r3, #0
800050e0:	1a000003 	bne	0x800050f4
800050e4:	e51b300c 	ldr	r3, [fp, #-12]
800050e8:	e593300c 	ldr	r3, [r3, #12]
800050ec:	e1a00003 	mov	r0, r3
800050f0:	eb001faa 	bl	0x8000cfa0
800050f4:	e51b3020 	ldr	r3, [fp, #-32]	; 0xffffffe0
800050f8:	e2033601 	and	r3, r3, #1048576	; 0x100000
800050fc:	e3530000 	cmp	r3, #0
80005100:	0a000016 	beq	0x80005160
80005104:	e51b300c 	ldr	r3, [fp, #-12]
80005108:	e5933280 	ldr	r3, [r3, #640]	; 0x280
8000510c:	e3530001 	cmp	r3, #1
80005110:	1a000012 	bne	0x80005160
80005114:	e51b3010 	ldr	r3, [fp, #-16]
80005118:	e5933004 	ldr	r3, [r3, #4]
8000511c:	e3a01601 	mov	r1, #1048576	; 0x100000
80005120:	e1a00003 	mov	r0, r3
80005124:	eb00061c 	bl	0x8000699c
80005128:	e51b300c 	ldr	r3, [fp, #-12]
8000512c:	e3a02001 	mov	r2, #1
80005130:	e5832288 	str	r2, [r3, #648]	; 0x288
80005134:	e51b300c 	ldr	r3, [fp, #-12]
80005138:	e3a02000 	mov	r2, #0
8000513c:	e5832280 	str	r2, [r3, #640]	; 0x280
80005140:	e51b3024 	ldr	r3, [fp, #-36]	; 0xffffffdc
80005144:	e2033601 	and	r3, r3, #1048576	; 0x100000
80005148:	e3530000 	cmp	r3, #0
8000514c:	0a000003 	beq	0x80005160
80005150:	e51b300c 	ldr	r3, [fp, #-12]
80005154:	e5933010 	ldr	r3, [r3, #16]
80005158:	e1a00003 	mov	r0, r3
8000515c:	eb001f8f 	bl	0x8000cfa0
80005160:	e51b3020 	ldr	r3, [fp, #-32]	; 0xffffffe0
80005164:	e2033002 	and	r3, r3, #2
80005168:	e3530000 	cmp	r3, #0
8000516c:	0a00001b 	beq	0x800051e0
80005170:	e51b3024 	ldr	r3, [fp, #-36]	; 0xffffffdc
80005174:	e2033002 	and	r3, r3, #2
80005178:	e3530000 	cmp	r3, #0
8000517c:	0a000017 	beq	0x800051e0
80005180:	e51b300c 	ldr	r3, [fp, #-12]
80005184:	e5933280 	ldr	r3, [r3, #640]	; 0x280
80005188:	e3530001 	cmp	r3, #1
8000518c:	1a000013 	bne	0x800051e0
80005190:	e51b3010 	ldr	r3, [fp, #-16]
80005194:	e5933004 	ldr	r3, [r3, #4]
80005198:	e3a01002 	mov	r1, #2
8000519c:	e1a00003 	mov	r0, r3
800051a0:	eb0005fd 	bl	0x8000699c
800051a4:	e51b300c 	ldr	r3, [fp, #-12]
800051a8:	e3a02001 	mov	r2, #1
800051ac:	e5832284 	str	r2, [r3, #644]	; 0x284
800051b0:	e51b300c 	ldr	r3, [fp, #-12]
800051b4:	e3a02000 	mov	r2, #0
800051b8:	e5832280 	str	r2, [r3, #640]	; 0x280
800051bc:	e51b3024 	ldr	r3, [fp, #-36]	; 0xffffffdc
800051c0:	e2033002 	and	r3, r3, #2
800051c4:	e3530000 	cmp	r3, #0
800051c8:	0a000004 	beq	0x800051e0
800051cc:	e51b300c 	ldr	r3, [fp, #-12]
800051d0:	e5933010 	ldr	r3, [r3, #16]
800051d4:	e1a00003 	mov	r0, r3
800051d8:	eb001f70 	bl	0x8000cfa0
800051dc:	e320f000 	nop	{0}
800051e0:	e320f000 	nop	{0}
800051e4:	e24bd004 	sub	sp, fp, #4
800051e8:	e8bd8800 	pop	{fp, pc}
800051ec:	e92d4800 	push	{fp, lr}
800051f0:	e28db004 	add	fp, sp, #4
800051f4:	e24dd018 	sub	sp, sp, #24
800051f8:	e50b0018 	str	r0, [fp, #-24]	; 0xffffffe8
800051fc:	e3a03000 	mov	r3, #0
80005200:	e50b3014 	str	r3, [fp, #-20]	; 0xffffffec
80005204:	e3a03000 	mov	r3, #0
80005208:	e50b3008 	str	r3, [fp, #-8]
8000520c:	e3a03000 	mov	r3, #0
80005210:	e50b300c 	str	r3, [fp, #-12]
80005214:	e51b3018 	ldr	r3, [fp, #-24]	; 0xffffffe8
80005218:	e3530000 	cmp	r3, #0
8000521c:	03a03001 	moveq	r3, #1
80005220:	13a03000 	movne	r3, #0
80005224:	e6ef3073 	uxtb	r3, r3
80005228:	e3002c96 	movw	r2, #3222	; 0xc96
8000522c:	e30e1704 	movw	r1, #59140	; 0xe704
80005230:	e3481000 	movt	r1, #32768	; 0x8000
80005234:	e1a00003 	mov	r0, r3
80005238:	eb001f92 	bl	0x8000d088
8000523c:	e51b3018 	ldr	r3, [fp, #-24]	; 0xffffffe8
80005240:	e5933004 	ldr	r3, [r3, #4]
80005244:	e50b3008 	str	r3, [fp, #-8]
80005248:	e51b3018 	ldr	r3, [fp, #-24]	; 0xffffffe8
8000524c:	e5933008 	ldr	r3, [r3, #8]
80005250:	e50b300c 	str	r3, [fp, #-12]
80005254:	e51b300c 	ldr	r3, [fp, #-12]
80005258:	e5933004 	ldr	r3, [r3, #4]
8000525c:	e1a00003 	mov	r0, r3
80005260:	eb0005c1 	bl	0x8000696c
80005264:	e1a03000 	mov	r3, r0
80005268:	e50b3014 	str	r3, [fp, #-20]	; 0xffffffec
8000526c:	e51b3014 	ldr	r3, [fp, #-20]	; 0xffffffec
80005270:	e2033001 	and	r3, r3, #1
80005274:	e3530000 	cmp	r3, #0
80005278:	0a000007 	beq	0x8000529c
8000527c:	e51b300c 	ldr	r3, [fp, #-12]
80005280:	e5933004 	ldr	r3, [r3, #4]
80005284:	e3a01001 	mov	r1, #1
80005288:	e1a00003 	mov	r0, r3
8000528c:	eb0005c2 	bl	0x8000699c
80005290:	e51b3008 	ldr	r3, [fp, #-8]
80005294:	e3a02001 	mov	r2, #1
80005298:	e5832278 	str	r2, [r3, #632]	; 0x278
8000529c:	e51b3014 	ldr	r3, [fp, #-20]	; 0xffffffec
800052a0:	e2033902 	and	r3, r3, #32768	; 0x8000
800052a4:	e3530000 	cmp	r3, #0
800052a8:	0a000010 	beq	0x800052f0
800052ac:	e51b3014 	ldr	r3, [fp, #-20]	; 0xffffffec
800052b0:	e1a03823 	lsr	r3, r3, #16
800052b4:	e1a03803 	lsl	r3, r3, #16
800052b8:	e50b3010 	str	r3, [fp, #-16]
800052bc:	e51b3010 	ldr	r3, [fp, #-16]
800052c0:	e2033801 	and	r3, r3, #65536	; 0x10000
800052c4:	e3530000 	cmp	r3, #0
800052c8:	0a000008 	beq	0x800052f0
800052cc:	e51b300c 	ldr	r3, [fp, #-12]
800052d0:	e5933004 	ldr	r3, [r3, #4]
800052d4:	e3a01801 	mov	r1, #65536	; 0x10000
800052d8:	e1a00003 	mov	r0, r3
800052dc:	eb0005ae 	bl	0x8000699c
800052e0:	e51b3008 	ldr	r3, [fp, #-8]
800052e4:	e3a02001 	mov	r2, #1
800052e8:	e583227c 	str	r2, [r3, #636]	; 0x27c
800052ec:	e320f000 	nop	{0}
800052f0:	e320f000 	nop	{0}
800052f4:	e24bd004 	sub	sp, fp, #4
800052f8:	e8bd8800 	pop	{fp, pc}
800052fc:	e92d4800 	push	{fp, lr}
80005300:	e28db004 	add	fp, sp, #4
80005304:	e24dd028 	sub	sp, sp, #40	; 0x28
80005308:	e50b0028 	str	r0, [fp, #-40]	; 0xffffffd8
8000530c:	e3a03000 	mov	r3, #0
80005310:	e50b3018 	str	r3, [fp, #-24]	; 0xffffffe8
80005314:	e3a03000 	mov	r3, #0
80005318:	e50b301c 	str	r3, [fp, #-28]	; 0xffffffe4
8000531c:	e3a03000 	mov	r3, #0
80005320:	e50b3020 	str	r3, [fp, #-32]	; 0xffffffe0
80005324:	e3a03000 	mov	r3, #0
80005328:	e50b3024 	str	r3, [fp, #-36]	; 0xffffffdc
8000532c:	e3a03000 	mov	r3, #0
80005330:	e50b3008 	str	r3, [fp, #-8]
80005334:	e3a03000 	mov	r3, #0
80005338:	e50b300c 	str	r3, [fp, #-12]
8000533c:	e51b3028 	ldr	r3, [fp, #-40]	; 0xffffffd8
80005340:	e3530000 	cmp	r3, #0
80005344:	03a03001 	moveq	r3, #1
80005348:	13a03000 	movne	r3, #0
8000534c:	e6ef3073 	uxtb	r3, r3
80005350:	e3002cc6 	movw	r2, #3270	; 0xcc6
80005354:	e30e1704 	movw	r1, #59140	; 0xe704
80005358:	e3481000 	movt	r1, #32768	; 0x8000
8000535c:	e1a00003 	mov	r0, r3
80005360:	eb001f48 	bl	0x8000d088
80005364:	e51b3028 	ldr	r3, [fp, #-40]	; 0xffffffd8
80005368:	e5933004 	ldr	r3, [r3, #4]
8000536c:	e50b3008 	str	r3, [fp, #-8]
80005370:	e51b3028 	ldr	r3, [fp, #-40]	; 0xffffffd8
80005374:	e5933008 	ldr	r3, [r3, #8]
80005378:	e50b300c 	str	r3, [fp, #-12]
8000537c:	e51b300c 	ldr	r3, [fp, #-12]
80005380:	e5933004 	ldr	r3, [r3, #4]
80005384:	e1a00003 	mov	r0, r3
80005388:	eb000577 	bl	0x8000696c
8000538c:	e1a03000 	mov	r3, r0
80005390:	e50b301c 	str	r3, [fp, #-28]	; 0xffffffe4
80005394:	e51b301c 	ldr	r3, [fp, #-28]	; 0xffffffe4
80005398:	e2033020 	and	r3, r3, #32
8000539c:	e3530000 	cmp	r3, #0
800053a0:	0a000053 	beq	0x800054f4
800053a4:	e51b3008 	ldr	r3, [fp, #-8]
800053a8:	e5933280 	ldr	r3, [r3, #640]	; 0x280
800053ac:	e3530001 	cmp	r3, #1
800053b0:	1a00004f 	bne	0x800054f4
800053b4:	e51b300c 	ldr	r3, [fp, #-12]
800053b8:	e5933004 	ldr	r3, [r3, #4]
800053bc:	e3a01020 	mov	r1, #32
800053c0:	e1a00003 	mov	r0, r3
800053c4:	eb000574 	bl	0x8000699c
800053c8:	e51b3008 	ldr	r3, [fp, #-8]
800053cc:	e593328c 	ldr	r3, [r3, #652]	; 0x28c
800053d0:	e3530000 	cmp	r3, #0
800053d4:	0a000046 	beq	0x800054f4
800053d8:	e51b3008 	ldr	r3, [fp, #-8]
800053dc:	e5933294 	ldr	r3, [r3, #660]	; 0x294
800053e0:	e50b3018 	str	r3, [fp, #-24]	; 0xffffffe8
800053e4:	e51b3008 	ldr	r3, [fp, #-8]
800053e8:	e59332a4 	ldr	r3, [r3, #676]	; 0x2a4
800053ec:	e50b3010 	str	r3, [fp, #-16]
800053f0:	e51b3008 	ldr	r3, [fp, #-8]
800053f4:	e5932290 	ldr	r2, [r3, #656]	; 0x290
800053f8:	e51b3010 	ldr	r3, [fp, #-16]
800053fc:	e0423003 	sub	r3, r2, r3
80005400:	e51b2008 	ldr	r2, [fp, #-8]
80005404:	e5922294 	ldr	r2, [r2, #660]	; 0x294
80005408:	e0030392 	mul	r3, r2, r3
8000540c:	e50b3014 	str	r3, [fp, #-20]	; 0xffffffec
80005410:	e3a03000 	mov	r3, #0
80005414:	e50b3024 	str	r3, [fp, #-36]	; 0xffffffdc
80005418:	ea00002c 	b	0x800054d0
8000541c:	e51b300c 	ldr	r3, [fp, #-12]
80005420:	e5933004 	ldr	r3, [r3, #4]
80005424:	e24b1020 	sub	r1, fp, #32
80005428:	e3a02004 	mov	r2, #4
8000542c:	e1a00003 	mov	r0, r3
80005430:	eb000648 	bl	0x80006d58
80005434:	e51b3008 	ldr	r3, [fp, #-8]
80005438:	e593228c 	ldr	r2, [r3, #652]	; 0x28c
8000543c:	e51b1024 	ldr	r1, [fp, #-36]	; 0xffffffdc
80005440:	e51b3014 	ldr	r3, [fp, #-20]	; 0xffffffec
80005444:	e0813003 	add	r3, r1, r3
80005448:	e0823003 	add	r3, r2, r3
8000544c:	e24b2020 	sub	r2, fp, #32
80005450:	e5d22000 	ldrb	r2, [r2]
80005454:	e5c32000 	strb	r2, [r3]
80005458:	e51b3008 	ldr	r3, [fp, #-8]
8000545c:	e593228c 	ldr	r2, [r3, #652]	; 0x28c
80005460:	e51b1024 	ldr	r1, [fp, #-36]	; 0xffffffdc
80005464:	e51b3014 	ldr	r3, [fp, #-20]	; 0xffffffec
80005468:	e0813003 	add	r3, r1, r3
8000546c:	e2833001 	add	r3, r3, #1
80005470:	e0823003 	add	r3, r2, r3
80005474:	e55b201f 	ldrb	r2, [fp, #-31]	; 0xffffffe1
80005478:	e5c32000 	strb	r2, [r3]
8000547c:	e51b3008 	ldr	r3, [fp, #-8]
80005480:	e593228c 	ldr	r2, [r3, #652]	; 0x28c
80005484:	e51b1024 	ldr	r1, [fp, #-36]	; 0xffffffdc
80005488:	e51b3014 	ldr	r3, [fp, #-20]	; 0xffffffec
8000548c:	e0813003 	add	r3, r1, r3
80005490:	e2833002 	add	r3, r3, #2
80005494:	e0823003 	add	r3, r2, r3
80005498:	e55b201e 	ldrb	r2, [fp, #-30]	; 0xffffffe2
8000549c:	e5c32000 	strb	r2, [r3]
800054a0:	e51b3008 	ldr	r3, [fp, #-8]
800054a4:	e593228c 	ldr	r2, [r3, #652]	; 0x28c
800054a8:	e51b1024 	ldr	r1, [fp, #-36]	; 0xffffffdc
800054ac:	e51b3014 	ldr	r3, [fp, #-20]	; 0xffffffec
800054b0:	e0813003 	add	r3, r1, r3
800054b4:	e2833003 	add	r3, r3, #3
800054b8:	e0823003 	add	r3, r2, r3
800054bc:	e55b201d 	ldrb	r2, [fp, #-29]	; 0xffffffe3
800054c0:	e5c32000 	strb	r2, [r3]
800054c4:	e51b3024 	ldr	r3, [fp, #-36]	; 0xffffffdc
800054c8:	e2833004 	add	r3, r3, #4
800054cc:	e50b3024 	str	r3, [fp, #-36]	; 0xffffffdc
800054d0:	e51b2024 	ldr	r2, [fp, #-36]	; 0xffffffdc
800054d4:	e51b3018 	ldr	r3, [fp, #-24]	; 0xffffffe8
800054d8:	e1520003 	cmp	r2, r3
800054dc:	3affffce 	bcc	0x8000541c
800054e0:	e51b3008 	ldr	r3, [fp, #-8]
800054e4:	e59332a4 	ldr	r3, [r3, #676]	; 0x2a4
800054e8:	e2432001 	sub	r2, r3, #1
800054ec:	e51b3008 	ldr	r3, [fp, #-8]
800054f0:	e58322a4 	str	r2, [r3, #676]	; 0x2a4
800054f4:	e51b301c 	ldr	r3, [fp, #-28]	; 0xffffffe4
800054f8:	e2033010 	and	r3, r3, #16
800054fc:	e3530000 	cmp	r3, #0
80005500:	0a00005a 	beq	0x80005670
80005504:	e51b3008 	ldr	r3, [fp, #-8]
80005508:	e5933280 	ldr	r3, [r3, #640]	; 0x280
8000550c:	e3530001 	cmp	r3, #1
80005510:	1a000056 	bne	0x80005670
80005514:	e51b300c 	ldr	r3, [fp, #-12]
80005518:	e5933004 	ldr	r3, [r3, #4]
8000551c:	e3a01010 	mov	r1, #16
80005520:	e1a00003 	mov	r0, r3
80005524:	eb00051c 	bl	0x8000699c
80005528:	e51b3008 	ldr	r3, [fp, #-8]
8000552c:	e593328c 	ldr	r3, [r3, #652]	; 0x28c
80005530:	e3530000 	cmp	r3, #0
80005534:	0a00004d 	beq	0x80005670
80005538:	e51b3008 	ldr	r3, [fp, #-8]
8000553c:	e593329c 	ldr	r3, [r3, #668]	; 0x29c
80005540:	e50b3010 	str	r3, [fp, #-16]
80005544:	e51b3008 	ldr	r3, [fp, #-8]
80005548:	e5932290 	ldr	r2, [r3, #656]	; 0x290
8000554c:	e51b3010 	ldr	r3, [fp, #-16]
80005550:	e0423003 	sub	r3, r2, r3
80005554:	e51b2008 	ldr	r2, [fp, #-8]
80005558:	e5922294 	ldr	r2, [r2, #660]	; 0x294
8000555c:	e0030392 	mul	r3, r2, r3
80005560:	e50b3014 	str	r3, [fp, #-20]	; 0xffffffec
80005564:	e51b3008 	ldr	r3, [fp, #-8]
80005568:	e5933294 	ldr	r3, [r3, #660]	; 0x294
8000556c:	e50b3018 	str	r3, [fp, #-24]	; 0xffffffe8
80005570:	e3a03000 	mov	r3, #0
80005574:	e50b3024 	str	r3, [fp, #-36]	; 0xffffffdc
80005578:	ea000033 	b	0x8000564c
8000557c:	e24b3020 	sub	r3, fp, #32
80005580:	e51b2008 	ldr	r2, [fp, #-8]
80005584:	e592128c 	ldr	r1, [r2, #652]	; 0x28c
80005588:	e51b0024 	ldr	r0, [fp, #-36]	; 0xffffffdc
8000558c:	e51b2014 	ldr	r2, [fp, #-20]	; 0xffffffec
80005590:	e0802002 	add	r2, r0, r2
80005594:	e0812002 	add	r2, r1, r2
80005598:	e5d22000 	ldrb	r2, [r2]
8000559c:	e5c32000 	strb	r2, [r3]
800055a0:	e24b3020 	sub	r3, fp, #32
800055a4:	e2833001 	add	r3, r3, #1
800055a8:	e51b2008 	ldr	r2, [fp, #-8]
800055ac:	e592128c 	ldr	r1, [r2, #652]	; 0x28c
800055b0:	e51b0024 	ldr	r0, [fp, #-36]	; 0xffffffdc
800055b4:	e51b2014 	ldr	r2, [fp, #-20]	; 0xffffffec
800055b8:	e0802002 	add	r2, r0, r2
800055bc:	e2822001 	add	r2, r2, #1
800055c0:	e0812002 	add	r2, r1, r2
800055c4:	e5d22000 	ldrb	r2, [r2]
800055c8:	e5c32000 	strb	r2, [r3]
800055cc:	e24b3020 	sub	r3, fp, #32
800055d0:	e2833002 	add	r3, r3, #2
800055d4:	e51b2008 	ldr	r2, [fp, #-8]
800055d8:	e592128c 	ldr	r1, [r2, #652]	; 0x28c
800055dc:	e51b0024 	ldr	r0, [fp, #-36]	; 0xffffffdc
800055e0:	e51b2014 	ldr	r2, [fp, #-20]	; 0xffffffec
800055e4:	e0802002 	add	r2, r0, r2
800055e8:	e2822002 	add	r2, r2, #2
800055ec:	e0812002 	add	r2, r1, r2
800055f0:	e5d22000 	ldrb	r2, [r2]
800055f4:	e5c32000 	strb	r2, [r3]
800055f8:	e24b3020 	sub	r3, fp, #32
800055fc:	e2833003 	add	r3, r3, #3
80005600:	e51b2008 	ldr	r2, [fp, #-8]
80005604:	e592128c 	ldr	r1, [r2, #652]	; 0x28c
80005608:	e51b0024 	ldr	r0, [fp, #-36]	; 0xffffffdc
8000560c:	e51b2014 	ldr	r2, [fp, #-20]	; 0xffffffec
80005610:	e0802002 	add	r2, r0, r2
80005614:	e2822003 	add	r2, r2, #3
80005618:	e0812002 	add	r2, r1, r2
8000561c:	e5d22000 	ldrb	r2, [r2]
80005620:	e5c32000 	strb	r2, [r3]
80005624:	e51b300c 	ldr	r3, [fp, #-12]
80005628:	e5933004 	ldr	r3, [r3, #4]
8000562c:	e2833e22 	add	r3, r3, #544	; 0x220
80005630:	e51b2020 	ldr	r2, [fp, #-32]	; 0xffffffe0
80005634:	e1a01002 	mov	r1, r2
80005638:	e1a00003 	mov	r0, r3
8000563c:	ebffee4b 	bl	0x80000f70
80005640:	e51b3024 	ldr	r3, [fp, #-36]	; 0xffffffdc
80005644:	e2833004 	add	r3, r3, #4
80005648:	e50b3024 	str	r3, [fp, #-36]	; 0xffffffdc
8000564c:	e51b2024 	ldr	r2, [fp, #-36]	; 0xffffffdc
80005650:	e51b3018 	ldr	r3, [fp, #-24]	; 0xffffffe8
80005654:	e1520003 	cmp	r2, r3
80005658:	3affffc7 	bcc	0x8000557c
8000565c:	e51b3008 	ldr	r3, [fp, #-8]
80005660:	e593329c 	ldr	r3, [r3, #668]	; 0x29c
80005664:	e2432001 	sub	r2, r3, #1
80005668:	e51b3008 	ldr	r3, [fp, #-8]
8000566c:	e583229c 	str	r2, [r3, #668]	; 0x29c
80005670:	e51b301c 	ldr	r3, [fp, #-28]	; 0xffffffe4
80005674:	e2033601 	and	r3, r3, #1048576	; 0x100000
80005678:	e3530000 	cmp	r3, #0
8000567c:	0a00000e 	beq	0x800056bc
80005680:	e51b3008 	ldr	r3, [fp, #-8]
80005684:	e5933280 	ldr	r3, [r3, #640]	; 0x280
80005688:	e3530001 	cmp	r3, #1
8000568c:	1a00000a 	bne	0x800056bc
80005690:	e51b300c 	ldr	r3, [fp, #-12]
80005694:	e5933004 	ldr	r3, [r3, #4]
80005698:	e3a01601 	mov	r1, #1048576	; 0x100000
8000569c:	e1a00003 	mov	r0, r3
800056a0:	eb0004bd 	bl	0x8000699c
800056a4:	e51b3008 	ldr	r3, [fp, #-8]
800056a8:	e3a02001 	mov	r2, #1
800056ac:	e5832288 	str	r2, [r3, #648]	; 0x288
800056b0:	e51b3008 	ldr	r3, [fp, #-8]
800056b4:	e3a02000 	mov	r2, #0
800056b8:	e5832280 	str	r2, [r3, #640]	; 0x280
800056bc:	e51b301c 	ldr	r3, [fp, #-28]	; 0xffffffe4
800056c0:	e2033002 	and	r3, r3, #2
800056c4:	e3530000 	cmp	r3, #0
800056c8:	0a00000f 	beq	0x8000570c
800056cc:	e51b3008 	ldr	r3, [fp, #-8]
800056d0:	e5933280 	ldr	r3, [r3, #640]	; 0x280
800056d4:	e3530001 	cmp	r3, #1
800056d8:	1a00000b 	bne	0x8000570c
800056dc:	e51b300c 	ldr	r3, [fp, #-12]
800056e0:	e5933004 	ldr	r3, [r3, #4]
800056e4:	e3a01002 	mov	r1, #2
800056e8:	e1a00003 	mov	r0, r3
800056ec:	eb0004aa 	bl	0x8000699c
800056f0:	e51b3008 	ldr	r3, [fp, #-8]
800056f4:	e3a02001 	mov	r2, #1
800056f8:	e5832284 	str	r2, [r3, #644]	; 0x284
800056fc:	e51b3008 	ldr	r3, [fp, #-8]
80005700:	e3a02000 	mov	r2, #0
80005704:	e5832280 	str	r2, [r3, #640]	; 0x280
80005708:	e320f000 	nop	{0}
8000570c:	e320f000 	nop	{0}
80005710:	e24bd004 	sub	sp, fp, #4
80005714:	e8bd8800 	pop	{fp, pc}
80005718:	e92d4800 	push	{fp, lr}
8000571c:	e28db004 	add	fp, sp, #4
80005720:	e24dd020 	sub	sp, sp, #32
80005724:	e50b0020 	str	r0, [fp, #-32]	; 0xffffffe0
80005728:	e3a03000 	mov	r3, #0
8000572c:	e50b3010 	str	r3, [fp, #-16]
80005730:	e3a03000 	mov	r3, #0
80005734:	e50b3014 	str	r3, [fp, #-20]	; 0xffffffec
80005738:	e3a03000 	mov	r3, #0
8000573c:	e50b3018 	str	r3, [fp, #-24]	; 0xffffffe8
80005740:	e3a03000 	mov	r3, #0
80005744:	e50b301c 	str	r3, [fp, #-28]	; 0xffffffe4
80005748:	e3a03000 	mov	r3, #0
8000574c:	e50b3008 	str	r3, [fp, #-8]
80005750:	e3a03000 	mov	r3, #0
80005754:	e50b300c 	str	r3, [fp, #-12]
80005758:	e51b3020 	ldr	r3, [fp, #-32]	; 0xffffffe0
8000575c:	e3530000 	cmp	r3, #0
80005760:	03a03001 	moveq	r3, #1
80005764:	13a03000 	movne	r3, #0
80005768:	e6ef3073 	uxtb	r3, r3
8000576c:	e3002d2e 	movw	r2, #3374	; 0xd2e
80005770:	e30e1704 	movw	r1, #59140	; 0xe704
80005774:	e3481000 	movt	r1, #32768	; 0x8000
80005778:	e1a00003 	mov	r0, r3
8000577c:	eb001e41 	bl	0x8000d088
80005780:	e51b3020 	ldr	r3, [fp, #-32]	; 0xffffffe0
80005784:	e5933004 	ldr	r3, [r3, #4]
80005788:	e50b3008 	str	r3, [fp, #-8]
8000578c:	e51b3020 	ldr	r3, [fp, #-32]	; 0xffffffe0
80005790:	e5933008 	ldr	r3, [r3, #8]
80005794:	e50b300c 	str	r3, [fp, #-12]
80005798:	e51b300c 	ldr	r3, [fp, #-12]
8000579c:	e5933004 	ldr	r3, [r3, #4]
800057a0:	e1a00003 	mov	r0, r3
800057a4:	eb000470 	bl	0x8000696c
800057a8:	e1a03000 	mov	r3, r0
800057ac:	e50b3014 	str	r3, [fp, #-20]	; 0xffffffec
800057b0:	e51b3014 	ldr	r3, [fp, #-20]	; 0xffffffec
800057b4:	e2033020 	and	r3, r3, #32
800057b8:	e3530000 	cmp	r3, #0
800057bc:	0a000049 	beq	0x800058e8
800057c0:	e51b3008 	ldr	r3, [fp, #-8]
800057c4:	e5933280 	ldr	r3, [r3, #640]	; 0x280
800057c8:	e3530001 	cmp	r3, #1
800057cc:	1a000045 	bne	0x800058e8
800057d0:	e51b300c 	ldr	r3, [fp, #-12]
800057d4:	e5933004 	ldr	r3, [r3, #4]
800057d8:	e3a01020 	mov	r1, #32
800057dc:	e1a00003 	mov	r0, r3
800057e0:	eb00046d 	bl	0x8000699c
800057e4:	e51b3008 	ldr	r3, [fp, #-8]
800057e8:	e593328c 	ldr	r3, [r3, #652]	; 0x28c
800057ec:	e3530000 	cmp	r3, #0
800057f0:	0a000031 	beq	0x800058bc
800057f4:	e51b3008 	ldr	r3, [fp, #-8]
800057f8:	e5933290 	ldr	r3, [r3, #656]	; 0x290
800057fc:	e51b2008 	ldr	r2, [fp, #-8]
80005800:	e5922294 	ldr	r2, [r2, #660]	; 0x294
80005804:	e0030392 	mul	r3, r2, r3
80005808:	e50b3010 	str	r3, [fp, #-16]
8000580c:	e3a03000 	mov	r3, #0
80005810:	e50b301c 	str	r3, [fp, #-28]	; 0xffffffe4
80005814:	ea000024 	b	0x800058ac
80005818:	e51b300c 	ldr	r3, [fp, #-12]
8000581c:	e5933004 	ldr	r3, [r3, #4]
80005820:	e24b1018 	sub	r1, fp, #24
80005824:	e3a02004 	mov	r2, #4
80005828:	e1a00003 	mov	r0, r3
8000582c:	eb000549 	bl	0x80006d58
80005830:	e51b3008 	ldr	r3, [fp, #-8]
80005834:	e593228c 	ldr	r2, [r3, #652]	; 0x28c
80005838:	e51b301c 	ldr	r3, [fp, #-28]	; 0xffffffe4
8000583c:	e0823003 	add	r3, r2, r3
80005840:	e24b2018 	sub	r2, fp, #24
80005844:	e5d22000 	ldrb	r2, [r2]
80005848:	e5c32000 	strb	r2, [r3]
8000584c:	e51b3008 	ldr	r3, [fp, #-8]
80005850:	e593228c 	ldr	r2, [r3, #652]	; 0x28c
80005854:	e51b301c 	ldr	r3, [fp, #-28]	; 0xffffffe4
80005858:	e2833001 	add	r3, r3, #1
8000585c:	e0823003 	add	r3, r2, r3
80005860:	e55b2017 	ldrb	r2, [fp, #-23]	; 0xffffffe9
80005864:	e5c32000 	strb	r2, [r3]
80005868:	e51b3008 	ldr	r3, [fp, #-8]
8000586c:	e593228c 	ldr	r2, [r3, #652]	; 0x28c
80005870:	e51b301c 	ldr	r3, [fp, #-28]	; 0xffffffe4
80005874:	e2833002 	add	r3, r3, #2
80005878:	e0823003 	add	r3, r2, r3
8000587c:	e55b2016 	ldrb	r2, [fp, #-22]	; 0xffffffea
80005880:	e5c32000 	strb	r2, [r3]
80005884:	e51b3008 	ldr	r3, [fp, #-8]
80005888:	e593228c 	ldr	r2, [r3, #652]	; 0x28c
8000588c:	e51b301c 	ldr	r3, [fp, #-28]	; 0xffffffe4
80005890:	e2833003 	add	r3, r3, #3
80005894:	e0823003 	add	r3, r2, r3
80005898:	e55b2015 	ldrb	r2, [fp, #-21]	; 0xffffffeb
8000589c:	e5c32000 	strb	r2, [r3]
800058a0:	e51b301c 	ldr	r3, [fp, #-28]	; 0xffffffe4
800058a4:	e2833004 	add	r3, r3, #4
800058a8:	e50b301c 	str	r3, [fp, #-28]	; 0xffffffe4
800058ac:	e51b201c 	ldr	r2, [fp, #-28]	; 0xffffffe4
800058b0:	e51b3010 	ldr	r3, [fp, #-16]
800058b4:	e1520003 	cmp	r2, r3
800058b8:	3affffd6 	bcc	0x80005818
800058bc:	e51b300c 	ldr	r3, [fp, #-12]
800058c0:	e5933004 	ldr	r3, [r3, #4]
800058c4:	e3a01002 	mov	r1, #2
800058c8:	e1a00003 	mov	r0, r3
800058cc:	eb000432 	bl	0x8000699c
800058d0:	e51b3008 	ldr	r3, [fp, #-8]
800058d4:	e3a02001 	mov	r2, #1
800058d8:	e5832284 	str	r2, [r3, #644]	; 0x284
800058dc:	e51b3008 	ldr	r3, [fp, #-8]
800058e0:	e3a02000 	mov	r2, #0
800058e4:	e5832280 	str	r2, [r3, #640]	; 0x280
800058e8:	e51b3014 	ldr	r3, [fp, #-20]	; 0xffffffec
800058ec:	e2033601 	and	r3, r3, #1048576	; 0x100000
800058f0:	e3530000 	cmp	r3, #0
800058f4:	0a00000f 	beq	0x80005938
800058f8:	e51b3008 	ldr	r3, [fp, #-8]
800058fc:	e5933280 	ldr	r3, [r3, #640]	; 0x280
80005900:	e3530001 	cmp	r3, #1
80005904:	1a00000b 	bne	0x80005938
80005908:	e51b300c 	ldr	r3, [fp, #-12]
8000590c:	e5933004 	ldr	r3, [r3, #4]
80005910:	e3a01601 	mov	r1, #1048576	; 0x100000
80005914:	e1a00003 	mov	r0, r3
80005918:	eb00041f 	bl	0x8000699c
8000591c:	e51b3008 	ldr	r3, [fp, #-8]
80005920:	e3a02001 	mov	r2, #1
80005924:	e5832288 	str	r2, [r3, #648]	; 0x288
80005928:	e51b3008 	ldr	r3, [fp, #-8]
8000592c:	e3a02000 	mov	r2, #0
80005930:	e5832280 	str	r2, [r3, #640]	; 0x280
80005934:	e320f000 	nop	{0}
80005938:	e320f000 	nop	{0}
8000593c:	e24bd004 	sub	sp, fp, #4
80005940:	e8bd8800 	pop	{fp, pc}
80005944:	e92d4800 	push	{fp, lr}
80005948:	e28db004 	add	fp, sp, #4
8000594c:	e24dd010 	sub	sp, sp, #16
80005950:	e50b0010 	str	r0, [fp, #-16]
80005954:	e50b1014 	str	r1, [fp, #-20]	; 0xffffffec
80005958:	e3a03000 	mov	r3, #0
8000595c:	e50b3008 	str	r3, [fp, #-8]
80005960:	e51b3010 	ldr	r3, [fp, #-16]
80005964:	e3530002 	cmp	r3, #2
80005968:	8a00000b 	bhi	0x8000599c
8000596c:	e51b0014 	ldr	r0, [fp, #-20]	; 0xffffffec
80005970:	e30e3864 	movw	r3, #59492	; 0xe864
80005974:	e3483000 	movt	r3, #32768	; 0x8000
80005978:	e51b2010 	ldr	r2, [fp, #-16]
8000597c:	e3a01068 	mov	r1, #104	; 0x68
80005980:	e0020291 	mul	r2, r1, r2
80005984:	e0833002 	add	r3, r3, r2
80005988:	e1a01003 	mov	r1, r3
8000598c:	e3a03068 	mov	r3, #104	; 0x68
80005990:	e1a02003 	mov	r2, r3
80005994:	eb001997 	bl	0x8000bff8
80005998:	ea000001 	b	0x800059a4
8000599c:	e3e03000 	mvn	r3, #0
800059a0:	e50b3008 	str	r3, [fp, #-8]
800059a4:	e51b3008 	ldr	r3, [fp, #-8]
800059a8:	e1a00003 	mov	r0, r3
800059ac:	e24bd004 	sub	sp, fp, #4
800059b0:	e8bd8800 	pop	{fp, pc}
800059b4:	e92d4800 	push	{fp, lr}
800059b8:	e28db004 	add	fp, sp, #4
800059bc:	e24dd010 	sub	sp, sp, #16
800059c0:	e50b0010 	str	r0, [fp, #-16]
800059c4:	e50b1014 	str	r1, [fp, #-20]	; 0xffffffec
800059c8:	e3a03000 	mov	r3, #0
800059cc:	e50b3008 	str	r3, [fp, #-8]
800059d0:	e51b3010 	ldr	r3, [fp, #-16]
800059d4:	e3530002 	cmp	r3, #2
800059d8:	8a00000c 	bhi	0x80005a10
800059dc:	e30e3864 	movw	r3, #59492	; 0xe864
800059e0:	e3483000 	movt	r3, #32768	; 0x8000
800059e4:	e51b2010 	ldr	r2, [fp, #-16]
800059e8:	e3a01068 	mov	r1, #104	; 0x68
800059ec:	e0020291 	mul	r2, r1, r2
800059f0:	e0832002 	add	r2, r3, r2
800059f4:	e51b3014 	ldr	r3, [fp, #-20]	; 0xffffffec
800059f8:	e1a00002 	mov	r0, r2
800059fc:	e1a01003 	mov	r1, r3
80005a00:	e3a03068 	mov	r3, #104	; 0x68
80005a04:	e1a02003 	mov	r2, r3
80005a08:	eb00197a 	bl	0x8000bff8
80005a0c:	ea000001 	b	0x80005a18
80005a10:	e3e03000 	mvn	r3, #0
80005a14:	e50b3008 	str	r3, [fp, #-8]
80005a18:	e51b3008 	ldr	r3, [fp, #-8]
80005a1c:	e1a00003 	mov	r0, r3
80005a20:	e24bd004 	sub	sp, fp, #4
80005a24:	e8bd8800 	pop	{fp, pc}
80005a28:	e52db004 	push	{fp}		; (str fp, [sp, #-4]!)
80005a2c:	e28db000 	add	fp, sp, #0
80005a30:	e24dd014 	sub	sp, sp, #20
80005a34:	e50b0010 	str	r0, [fp, #-16]
80005a38:	e51b3010 	ldr	r3, [fp, #-16]
80005a3c:	e3022710 	movw	r2, #10000	; 0x2710
80005a40:	e0030392 	mul	r3, r2, r3
80005a44:	e50b3008 	str	r3, [fp, #-8]
80005a48:	e320f000 	nop	{0}
80005a4c:	e51b3008 	ldr	r3, [fp, #-8]
80005a50:	e2432001 	sub	r2, r3, #1
80005a54:	e50b2008 	str	r2, [fp, #-8]
80005a58:	e3530000 	cmp	r3, #0
80005a5c:	1afffffa 	bne	0x80005a4c
80005a60:	e320f000 	nop	{0}
80005a64:	e28bd000 	add	sp, fp, #0
80005a68:	e49db004 	pop	{fp}		; (ldr fp, [sp], #4)
80005a6c:	e12fff1e 	bx	lr
80005a70:	e52db004 	push	{fp}		; (str fp, [sp, #-4]!)
80005a74:	e28db000 	add	fp, sp, #0
80005a78:	e24dd014 	sub	sp, sp, #20
80005a7c:	e50b0010 	str	r0, [fp, #-16]
80005a80:	e51b3010 	ldr	r3, [fp, #-16]
80005a84:	e5933000 	ldr	r3, [r3]
80005a88:	e50b3008 	str	r3, [fp, #-8]
80005a8c:	e51b3008 	ldr	r3, [fp, #-8]
80005a90:	e1a00003 	mov	r0, r3
80005a94:	e28bd000 	add	sp, fp, #0
80005a98:	e49db004 	pop	{fp}		; (ldr fp, [sp], #4)
80005a9c:	e12fff1e 	bx	lr
80005aa0:	e52db004 	push	{fp}		; (str fp, [sp, #-4]!)
80005aa4:	e28db000 	add	fp, sp, #0
80005aa8:	e24dd00c 	sub	sp, sp, #12
80005aac:	e50b0008 	str	r0, [fp, #-8]
80005ab0:	e50b100c 	str	r1, [fp, #-12]
80005ab4:	e51b3008 	ldr	r3, [fp, #-8]
80005ab8:	e51b200c 	ldr	r2, [fp, #-12]
80005abc:	e5832000 	str	r2, [r3]
80005ac0:	e320f000 	nop	{0}
80005ac4:	e28bd000 	add	sp, fp, #0
80005ac8:	e49db004 	pop	{fp}		; (ldr fp, [sp], #4)
80005acc:	e12fff1e 	bx	lr
80005ad0:	e52db004 	push	{fp}		; (str fp, [sp, #-4]!)
80005ad4:	e28db000 	add	fp, sp, #0
80005ad8:	e24dd01c 	sub	sp, sp, #28
80005adc:	e50b0010 	str	r0, [fp, #-16]
80005ae0:	e50b1014 	str	r1, [fp, #-20]	; 0xffffffec
80005ae4:	e50b2018 	str	r2, [fp, #-24]	; 0xffffffe8
80005ae8:	e50b301c 	str	r3, [fp, #-28]	; 0xffffffe4
80005aec:	e51b3010 	ldr	r3, [fp, #-16]
80005af0:	e5933000 	ldr	r3, [r3]
80005af4:	e50b3008 	str	r3, [fp, #-8]
80005af8:	e51b3014 	ldr	r3, [fp, #-20]	; 0xffffffec
80005afc:	e1e03003 	mvn	r3, r3
80005b00:	e51b2008 	ldr	r2, [fp, #-8]
80005b04:	e0033002 	and	r3, r3, r2
80005b08:	e50b3008 	str	r3, [fp, #-8]
80005b0c:	e51b201c 	ldr	r2, [fp, #-28]	; 0xffffffe4
80005b10:	e51b3018 	ldr	r3, [fp, #-24]	; 0xffffffe8
80005b14:	e1a02312 	lsl	r2, r2, r3
80005b18:	e51b3014 	ldr	r3, [fp, #-20]	; 0xffffffec
80005b1c:	e0033002 	and	r3, r3, r2
80005b20:	e51b2008 	ldr	r2, [fp, #-8]
80005b24:	e1823003 	orr	r3, r2, r3
80005b28:	e50b3008 	str	r3, [fp, #-8]
80005b2c:	e51b3010 	ldr	r3, [fp, #-16]
80005b30:	e51b2008 	ldr	r2, [fp, #-8]
80005b34:	e5832000 	str	r2, [r3]
80005b38:	e320f000 	nop	{0}
80005b3c:	e28bd000 	add	sp, fp, #0
80005b40:	e49db004 	pop	{fp}		; (ldr fp, [sp], #4)
80005b44:	e12fff1e 	bx	lr
80005b48:	e52db004 	push	{fp}		; (str fp, [sp, #-4]!)
80005b4c:	e28db000 	add	fp, sp, #0
80005b50:	e24dd01c 	sub	sp, sp, #28
80005b54:	e50b0010 	str	r0, [fp, #-16]
80005b58:	e50b1014 	str	r1, [fp, #-20]	; 0xffffffec
80005b5c:	e50b2018 	str	r2, [fp, #-24]	; 0xffffffe8
80005b60:	e51b3010 	ldr	r3, [fp, #-16]
80005b64:	e5933000 	ldr	r3, [r3]
80005b68:	e50b3008 	str	r3, [fp, #-8]
80005b6c:	e51b2008 	ldr	r2, [fp, #-8]
80005b70:	e51b3014 	ldr	r3, [fp, #-20]	; 0xffffffec
80005b74:	e0022003 	and	r2, r2, r3
80005b78:	e51b3018 	ldr	r3, [fp, #-24]	; 0xffffffe8
80005b7c:	e1a03332 	lsr	r3, r2, r3
80005b80:	e50b3008 	str	r3, [fp, #-8]
80005b84:	e51b3008 	ldr	r3, [fp, #-8]
80005b88:	e1a00003 	mov	r0, r3
80005b8c:	e28bd000 	add	sp, fp, #0
80005b90:	e49db004 	pop	{fp}		; (ldr fp, [sp], #4)
80005b94:	e12fff1e 	bx	lr
80005b98:	e92d4800 	push	{fp, lr}
80005b9c:	e28db004 	add	fp, sp, #4
80005ba0:	e24dd010 	sub	sp, sp, #16
80005ba4:	e50b0010 	str	r0, [fp, #-16]
80005ba8:	e3a03001 	mov	r3, #1
80005bac:	e50b3008 	str	r3, [fp, #-8]
80005bb0:	e51b3010 	ldr	r3, [fp, #-16]
80005bb4:	e2830e11 	add	r0, r3, #272	; 0x110
80005bb8:	e3a03001 	mov	r3, #1
80005bbc:	e3a02001 	mov	r2, #1
80005bc0:	e3a01002 	mov	r1, #2
80005bc4:	ebffffc1 	bl	0x80005ad0
80005bc8:	e320f000 	nop	{0}
80005bcc:	e51b3010 	ldr	r3, [fp, #-16]
80005bd0:	e2833f45 	add	r3, r3, #276	; 0x114
80005bd4:	e3a02000 	mov	r2, #0
80005bd8:	e3a01001 	mov	r1, #1
80005bdc:	e1a00003 	mov	r0, r3
80005be0:	ebffffd8 	bl	0x80005b48
80005be4:	e1a03000 	mov	r3, r0
80005be8:	e3530001 	cmp	r3, #1
80005bec:	1afffff6 	bne	0x80005bcc
80005bf0:	e51b3008 	ldr	r3, [fp, #-8]
80005bf4:	e1a00003 	mov	r0, r3
80005bf8:	e24bd004 	sub	sp, fp, #4
80005bfc:	e8bd8800 	pop	{fp, pc}
80005c00:	e92d4800 	push	{fp, lr}
80005c04:	e28db004 	add	fp, sp, #4
80005c08:	e24dd010 	sub	sp, sp, #16
80005c0c:	e50b0010 	str	r0, [fp, #-16]
80005c10:	e50b1014 	str	r1, [fp, #-20]	; 0xffffffec
80005c14:	e3a03000 	mov	r3, #0
80005c18:	e50b3008 	str	r3, [fp, #-8]
80005c1c:	e51b3010 	ldr	r3, [fp, #-16]
80005c20:	e2833f8b 	add	r3, r3, #556	; 0x22c
80005c24:	e1a00003 	mov	r0, r3
80005c28:	ebffff90 	bl	0x80005a70
80005c2c:	e50b0008 	str	r0, [fp, #-8]
80005c30:	e51b2008 	ldr	r2, [fp, #-8]
80005c34:	e51b3014 	ldr	r3, [fp, #-20]	; 0xffffffec
80005c38:	e1823003 	orr	r3, r2, r3
80005c3c:	e50b3008 	str	r3, [fp, #-8]
80005c40:	e51b3010 	ldr	r3, [fp, #-16]
80005c44:	e2833f8b 	add	r3, r3, #556	; 0x22c
80005c48:	e51b1008 	ldr	r1, [fp, #-8]
80005c4c:	e1a00003 	mov	r0, r3
80005c50:	ebffff92 	bl	0x80005aa0
80005c54:	e320f000 	nop	{0}
80005c58:	e51b3010 	ldr	r3, [fp, #-16]
80005c5c:	e2833f8b 	add	r3, r3, #556	; 0x22c
80005c60:	e1a00003 	mov	r0, r3
80005c64:	ebffff81 	bl	0x80005a70
80005c68:	e1a02000 	mov	r2, r0
80005c6c:	e51b3014 	ldr	r3, [fp, #-20]	; 0xffffffec
80005c70:	e0022003 	and	r2, r2, r3
80005c74:	e51b3014 	ldr	r3, [fp, #-20]	; 0xffffffec
80005c78:	e1520003 	cmp	r2, r3
80005c7c:	0afffff5 	beq	0x80005c58
80005c80:	e320f000 	nop	{0}
80005c84:	e24bd004 	sub	sp, fp, #4
80005c88:	e8bd8800 	pop	{fp, pc}
80005c8c:	e92d4800 	push	{fp, lr}
80005c90:	e28db004 	add	fp, sp, #4
80005c94:	e24dd018 	sub	sp, sp, #24
80005c98:	e50b0018 	str	r0, [fp, #-24]	; 0xffffffe8
80005c9c:	e50b101c 	str	r1, [fp, #-28]	; 0xffffffe4
80005ca0:	e3a03000 	mov	r3, #0
80005ca4:	e50b3008 	str	r3, [fp, #-8]
80005ca8:	e3a03000 	mov	r3, #0
80005cac:	e50b300c 	str	r3, [fp, #-12]
80005cb0:	e3a03000 	mov	r3, #0
80005cb4:	e50b3010 	str	r3, [fp, #-16]
80005cb8:	e51b3018 	ldr	r3, [fp, #-24]	; 0xffffffe8
80005cbc:	e2833e11 	add	r3, r3, #272	; 0x110
80005cc0:	e1a00003 	mov	r0, r3
80005cc4:	ebffff69 	bl	0x80005a70
80005cc8:	e50b0008 	str	r0, [fp, #-8]
80005ccc:	e51b3008 	ldr	r3, [fp, #-8]
80005cd0:	e3c32c03 	bic	r2, r3, #768	; 0x300
80005cd4:	e51b301c 	ldr	r3, [fp, #-28]	; 0xffffffe4
80005cd8:	e5933000 	ldr	r3, [r3]
80005cdc:	e1a03403 	lsl	r3, r3, #8
80005ce0:	e2033c03 	and	r3, r3, #768	; 0x300
80005ce4:	e1823003 	orr	r3, r2, r3
80005ce8:	e50b3008 	str	r3, [fp, #-8]
80005cec:	e51b3008 	ldr	r3, [fp, #-8]
80005cf0:	e3c32a03 	bic	r2, r3, #12288	; 0x3000
80005cf4:	e51b301c 	ldr	r3, [fp, #-28]	; 0xffffffe4
80005cf8:	e5933004 	ldr	r3, [r3, #4]
80005cfc:	e1a03603 	lsl	r3, r3, #12
80005d00:	e2033a03 	and	r3, r3, #12288	; 0x3000
80005d04:	e1823003 	orr	r3, r2, r3
80005d08:	e50b3008 	str	r3, [fp, #-8]
80005d0c:	e51b3008 	ldr	r3, [fp, #-8]
80005d10:	e3c32018 	bic	r2, r3, #24
80005d14:	e51b301c 	ldr	r3, [fp, #-28]	; 0xffffffe4
80005d18:	e5933008 	ldr	r3, [r3, #8]
80005d1c:	e1a03183 	lsl	r3, r3, #3
80005d20:	e2033018 	and	r3, r3, #24
80005d24:	e1823003 	orr	r3, r2, r3
80005d28:	e50b3008 	str	r3, [fp, #-8]
80005d2c:	e51b301c 	ldr	r3, [fp, #-28]	; 0xffffffe4
80005d30:	e593300c 	ldr	r3, [r3, #12]
80005d34:	e3530001 	cmp	r3, #1
80005d38:	1a000001 	bne	0x80005d44
80005d3c:	e3a03001 	mov	r3, #1
80005d40:	ea000000 	b	0x80005d48
80005d44:	e3a03000 	mov	r3, #0
80005d48:	e50b3010 	str	r3, [fp, #-16]
80005d4c:	e51b3008 	ldr	r3, [fp, #-8]
80005d50:	e3c32004 	bic	r2, r3, #4
80005d54:	e51b3010 	ldr	r3, [fp, #-16]
80005d58:	e1a03103 	lsl	r3, r3, #2
80005d5c:	e2033004 	and	r3, r3, #4
80005d60:	e1823003 	orr	r3, r2, r3
80005d64:	e50b3008 	str	r3, [fp, #-8]
80005d68:	e51b301c 	ldr	r3, [fp, #-28]	; 0xffffffe4
80005d6c:	e5933010 	ldr	r3, [r3, #16]
80005d70:	e3530001 	cmp	r3, #1
80005d74:	1a000001 	bne	0x80005d80
80005d78:	e3a03001 	mov	r3, #1
80005d7c:	ea000000 	b	0x80005d84
80005d80:	e3a03000 	mov	r3, #0
80005d84:	e50b300c 	str	r3, [fp, #-12]
80005d88:	e51b3008 	ldr	r3, [fp, #-8]
80005d8c:	e3c32001 	bic	r2, r3, #1
80005d90:	e51b300c 	ldr	r3, [fp, #-12]
80005d94:	e2033001 	and	r3, r3, #1
80005d98:	e1823003 	orr	r3, r2, r3
80005d9c:	e50b3008 	str	r3, [fp, #-8]
80005da0:	e51b3018 	ldr	r3, [fp, #-24]	; 0xffffffe8
80005da4:	e2833e11 	add	r3, r3, #272	; 0x110
80005da8:	e51b1008 	ldr	r1, [fp, #-8]
80005dac:	e1a00003 	mov	r0, r3
80005db0:	ebffff3a 	bl	0x80005aa0
80005db4:	e320f000 	nop	{0}
80005db8:	e24bd004 	sub	sp, fp, #4
80005dbc:	e8bd8800 	pop	{fp, pc}
80005dc0:	e92d4800 	push	{fp, lr}
80005dc4:	e28db004 	add	fp, sp, #4
80005dc8:	e24dd008 	sub	sp, sp, #8
80005dcc:	e50b0008 	str	r0, [fp, #-8]
80005dd0:	e50b100c 	str	r1, [fp, #-12]
80005dd4:	e51b300c 	ldr	r3, [fp, #-12]
80005dd8:	e3530004 	cmp	r3, #4
80005ddc:	0a00000b 	beq	0x80005e10
80005de0:	e3530008 	cmp	r3, #8
80005de4:	0a000002 	beq	0x80005df4
80005de8:	e3530001 	cmp	r3, #1
80005dec:	0a000014 	beq	0x80005e44
80005df0:	ea000020 	b	0x80005e78
80005df4:	e51b3008 	ldr	r3, [fp, #-8]
80005df8:	e2830f4b 	add	r0, r3, #300	; 0x12c
80005dfc:	e3a03001 	mov	r3, #1
80005e00:	e3a02005 	mov	r2, #5
80005e04:	e3a01020 	mov	r1, #32
80005e08:	ebffff30 	bl	0x80005ad0
80005e0c:	ea000019 	b	0x80005e78
80005e10:	e51b3008 	ldr	r3, [fp, #-8]
80005e14:	e2830f4b 	add	r0, r3, #300	; 0x12c
80005e18:	e3a03000 	mov	r3, #0
80005e1c:	e3a02005 	mov	r2, #5
80005e20:	e3a01020 	mov	r1, #32
80005e24:	ebffff29 	bl	0x80005ad0
80005e28:	e51b3008 	ldr	r3, [fp, #-8]
80005e2c:	e2830f8a 	add	r0, r3, #552	; 0x228
80005e30:	e3a03001 	mov	r3, #1
80005e34:	e3a02001 	mov	r2, #1
80005e38:	e3a01002 	mov	r1, #2
80005e3c:	ebffff23 	bl	0x80005ad0
80005e40:	ea00000c 	b	0x80005e78
80005e44:	e51b3008 	ldr	r3, [fp, #-8]
80005e48:	e2830f4b 	add	r0, r3, #300	; 0x12c
80005e4c:	e3a03000 	mov	r3, #0
80005e50:	e3a02005 	mov	r2, #5
80005e54:	e3a01020 	mov	r1, #32
80005e58:	ebffff1c 	bl	0x80005ad0
80005e5c:	e51b3008 	ldr	r3, [fp, #-8]
80005e60:	e2830f8a 	add	r0, r3, #552	; 0x228
80005e64:	e3a03000 	mov	r3, #0
80005e68:	e3a02001 	mov	r2, #1
80005e6c:	e3a01002 	mov	r1, #2
80005e70:	ebffff16 	bl	0x80005ad0
80005e74:	e320f000 	nop	{0}
80005e78:	e320f000 	nop	{0}
80005e7c:	e24bd004 	sub	sp, fp, #4
80005e80:	e8bd8800 	pop	{fp, pc}
80005e84:	e92d4800 	push	{fp, lr}
80005e88:	e28db004 	add	fp, sp, #4
80005e8c:	e24dd008 	sub	sp, sp, #8
80005e90:	e50b0008 	str	r0, [fp, #-8]
80005e94:	e50b100c 	str	r1, [fp, #-12]
80005e98:	e51b3008 	ldr	r3, [fp, #-8]
80005e9c:	e2830f4b 	add	r0, r3, #300	; 0x12c
80005ea0:	e51b300c 	ldr	r3, [fp, #-12]
80005ea4:	e3a0200f 	mov	r2, #15
80005ea8:	e3a01902 	mov	r1, #32768	; 0x8000
80005eac:	ebffff07 	bl	0x80005ad0
80005eb0:	e320f000 	nop	{0}
80005eb4:	e24bd004 	sub	sp, fp, #4
80005eb8:	e8bd8800 	pop	{fp, pc}
80005ebc:	e92d4800 	push	{fp, lr}
80005ec0:	e28db004 	add	fp, sp, #4
80005ec4:	e24dd010 	sub	sp, sp, #16
80005ec8:	e50b0010 	str	r0, [fp, #-16]
80005ecc:	e50b1014 	str	r1, [fp, #-20]	; 0xffffffec
80005ed0:	e51b3010 	ldr	r3, [fp, #-16]
80005ed4:	e2833f4d 	add	r3, r3, #308	; 0x134
80005ed8:	e1a00003 	mov	r0, r3
80005edc:	ebfffee3 	bl	0x80005a70
80005ee0:	e50b000c 	str	r0, [fp, #-12]
80005ee4:	e51b300c 	ldr	r3, [fp, #-12]
80005ee8:	e3833a01 	orr	r3, r3, #4096	; 0x1000
80005eec:	e50b300c 	str	r3, [fp, #-12]
80005ef0:	e51b300c 	ldr	r3, [fp, #-12]
80005ef4:	e3c32afe 	bic	r2, r3, #1040384	; 0xfe000
80005ef8:	e51b3014 	ldr	r3, [fp, #-20]	; 0xffffffec
80005efc:	e1a03683 	lsl	r3, r3, #13
80005f00:	e2033afe 	and	r3, r3, #1040384	; 0xfe000
80005f04:	e1823003 	orr	r3, r2, r3
80005f08:	e50b300c 	str	r3, [fp, #-12]
80005f0c:	e51b3010 	ldr	r3, [fp, #-16]
80005f10:	e2833f4d 	add	r3, r3, #308	; 0x134
80005f14:	e51b100c 	ldr	r1, [fp, #-12]
80005f18:	e1a00003 	mov	r0, r3
80005f1c:	ebfffedf 	bl	0x80005aa0
80005f20:	e51b3010 	ldr	r3, [fp, #-16]
80005f24:	e2830f4d 	add	r0, r3, #308	; 0x134
80005f28:	e3a03001 	mov	r3, #1
80005f2c:	e3a02001 	mov	r2, #1
80005f30:	e3a01002 	mov	r1, #2
80005f34:	ebfffee5 	bl	0x80005ad0
80005f38:	e3a03000 	mov	r3, #0
80005f3c:	e50b3008 	str	r3, [fp, #-8]
80005f40:	ea00000b 	b	0x80005f74
80005f44:	e51b3010 	ldr	r3, [fp, #-16]
80005f48:	e2833f4d 	add	r3, r3, #308	; 0x134
80005f4c:	e3a02001 	mov	r2, #1
80005f50:	e3a01002 	mov	r1, #2
80005f54:	e1a00003 	mov	r0, r3
80005f58:	ebfffefa 	bl	0x80005b48
80005f5c:	e1a03000 	mov	r3, r0
80005f60:	e3530000 	cmp	r3, #0
80005f64:	1a000006 	bne	0x80005f84
80005f68:	e51b3008 	ldr	r3, [fp, #-8]
80005f6c:	e2833001 	add	r3, r3, #1
80005f70:	e50b3008 	str	r3, [fp, #-8]
80005f74:	e51b3008 	ldr	r3, [fp, #-8]
80005f78:	e3530ffa 	cmp	r3, #1000	; 0x3e8
80005f7c:	bafffff0 	blt	0x80005f44
80005f80:	ea000000 	b	0x80005f88
80005f84:	e320f000 	nop	{0}
80005f88:	e51b3010 	ldr	r3, [fp, #-16]
80005f8c:	e2830f4d 	add	r0, r3, #308	; 0x134
80005f90:	e3a03000 	mov	r3, #0
80005f94:	e3a02001 	mov	r2, #1
80005f98:	e3a01002 	mov	r1, #2
80005f9c:	ebfffecb 	bl	0x80005ad0
80005fa0:	e320f000 	nop	{0}
80005fa4:	e24bd004 	sub	sp, fp, #4
80005fa8:	e8bd8800 	pop	{fp, pc}
80005fac:	e92d4800 	push	{fp, lr}
80005fb0:	e28db004 	add	fp, sp, #4
80005fb4:	e24dd008 	sub	sp, sp, #8
80005fb8:	e50b0008 	str	r0, [fp, #-8]
80005fbc:	e51b3008 	ldr	r3, [fp, #-8]
80005fc0:	e2830f8f 	add	r0, r3, #572	; 0x23c
80005fc4:	e3a03000 	mov	r3, #0
80005fc8:	e3a02017 	mov	r2, #23
80005fcc:	e3a01502 	mov	r1, #8388608	; 0x800000
80005fd0:	ebfffebe 	bl	0x80005ad0
80005fd4:	e51b3008 	ldr	r3, [fp, #-8]
80005fd8:	e2830f4d 	add	r0, r3, #308	; 0x134
80005fdc:	e3a03000 	mov	r3, #0
80005fe0:	e3a0200c 	mov	r2, #12
80005fe4:	e3a01a01 	mov	r1, #4096	; 0x1000
80005fe8:	ebfffeb8 	bl	0x80005ad0
80005fec:	e51b3008 	ldr	r3, [fp, #-8]
80005ff0:	e2830f4d 	add	r0, r3, #308	; 0x134
80005ff4:	e3a03000 	mov	r3, #0
80005ff8:	e3a02014 	mov	r2, #20
80005ffc:	e3a01601 	mov	r1, #1048576	; 0x100000
80006000:	ebfffeb2 	bl	0x80005ad0
80006004:	e320f000 	nop	{0}
80006008:	e24bd004 	sub	sp, fp, #4
8000600c:	e8bd8800 	pop	{fp, pc}
80006010:	e92d4800 	push	{fp, lr}
80006014:	e28db004 	add	fp, sp, #4
80006018:	e24dd008 	sub	sp, sp, #8
8000601c:	e50b0008 	str	r0, [fp, #-8]
80006020:	e50b100c 	str	r1, [fp, #-12]
80006024:	e51b3008 	ldr	r3, [fp, #-8]
80006028:	e2830f4d 	add	r0, r3, #308	; 0x134
8000602c:	e51b300c 	ldr	r3, [fp, #-12]
80006030:	e3a02014 	mov	r2, #20
80006034:	e3a01601 	mov	r1, #1048576	; 0x100000
80006038:	ebfffea4 	bl	0x80005ad0
8000603c:	e320f000 	nop	{0}
80006040:	e24bd004 	sub	sp, fp, #4
80006044:	e8bd8800 	pop	{fp, pc}
80006048:	e92d4800 	push	{fp, lr}
8000604c:	e28db004 	add	fp, sp, #4
80006050:	e24dd008 	sub	sp, sp, #8
80006054:	e50b0008 	str	r0, [fp, #-8]
80006058:	e51b3008 	ldr	r3, [fp, #-8]
8000605c:	e2833f4d 	add	r3, r3, #308	; 0x134
80006060:	e3a02014 	mov	r2, #20
80006064:	e3a01601 	mov	r1, #1048576	; 0x100000
80006068:	e1a00003 	mov	r0, r3
8000606c:	ebfffeb5 	bl	0x80005b48
80006070:	e1a03000 	mov	r3, r0
80006074:	e1a00003 	mov	r0, r3
80006078:	e24bd004 	sub	sp, fp, #4
8000607c:	e8bd8800 	pop	{fp, pc}
80006080:	e92d4800 	push	{fp, lr}
80006084:	e28db004 	add	fp, sp, #4
80006088:	e24dd008 	sub	sp, sp, #8
8000608c:	e50b0008 	str	r0, [fp, #-8]
80006090:	e50b100c 	str	r1, [fp, #-12]
80006094:	e51b3008 	ldr	r3, [fp, #-8]
80006098:	e2830f8f 	add	r0, r3, #572	; 0x23c
8000609c:	e51b300c 	ldr	r3, [fp, #-12]
800060a0:	e3a02017 	mov	r2, #23
800060a4:	e3a01502 	mov	r1, #8388608	; 0x800000
800060a8:	ebfffe88 	bl	0x80005ad0
800060ac:	e320f000 	nop	{0}
800060b0:	e24bd004 	sub	sp, fp, #4
800060b4:	e8bd8800 	pop	{fp, pc}
800060b8:	e92d4800 	push	{fp, lr}
800060bc:	e28db004 	add	fp, sp, #4
800060c0:	e24dd008 	sub	sp, sp, #8
800060c4:	e50b0008 	str	r0, [fp, #-8]
800060c8:	e50b100c 	str	r1, [fp, #-12]
800060cc:	e51b3008 	ldr	r3, [fp, #-8]
800060d0:	e2830f8f 	add	r0, r3, #572	; 0x23c
800060d4:	e51b300c 	ldr	r3, [fp, #-12]
800060d8:	e3a02016 	mov	r2, #22
800060dc:	e3a01501 	mov	r1, #4194304	; 0x400000
800060e0:	ebfffe7a 	bl	0x80005ad0
800060e4:	e320f000 	nop	{0}
800060e8:	e24bd004 	sub	sp, fp, #4
800060ec:	e8bd8800 	pop	{fp, pc}
800060f0:	e92d4800 	push	{fp, lr}
800060f4:	e28db004 	add	fp, sp, #4
800060f8:	e24dd008 	sub	sp, sp, #8
800060fc:	e50b0008 	str	r0, [fp, #-8]
80006100:	e51b3008 	ldr	r3, [fp, #-8]
80006104:	e2833f8f 	add	r3, r3, #572	; 0x23c
80006108:	e3a02016 	mov	r2, #22
8000610c:	e3a01501 	mov	r1, #4194304	; 0x400000
80006110:	e1a00003 	mov	r0, r3
80006114:	ebfffe8b 	bl	0x80005b48
80006118:	e1a03000 	mov	r3, r0
8000611c:	e1a00003 	mov	r0, r3
80006120:	e24bd004 	sub	sp, fp, #4
80006124:	e8bd8800 	pop	{fp, pc}
80006128:	e92d4800 	push	{fp, lr}
8000612c:	e28db004 	add	fp, sp, #4
80006130:	e24dd008 	sub	sp, sp, #8
80006134:	e50b0008 	str	r0, [fp, #-8]
80006138:	e51b3008 	ldr	r3, [fp, #-8]
8000613c:	e2833f8f 	add	r3, r3, #572	; 0x23c
80006140:	e3a02017 	mov	r2, #23
80006144:	e3a01502 	mov	r1, #8388608	; 0x800000
80006148:	e1a00003 	mov	r0, r3
8000614c:	ebfffe7d 	bl	0x80005b48
80006150:	e1a03000 	mov	r3, r0
80006154:	e1a00003 	mov	r0, r3
80006158:	e24bd004 	sub	sp, fp, #4
8000615c:	e8bd8800 	pop	{fp, pc}
80006160:	e92d4800 	push	{fp, lr}
80006164:	e28db004 	add	fp, sp, #4
80006168:	e24dd008 	sub	sp, sp, #8
8000616c:	e50b0008 	str	r0, [fp, #-8]
80006170:	e50b100c 	str	r1, [fp, #-12]
80006174:	e51b3008 	ldr	r3, [fp, #-8]
80006178:	e2830f4b 	add	r0, r3, #300	; 0x12c
8000617c:	e51b300c 	ldr	r3, [fp, #-12]
80006180:	e3a02010 	mov	r2, #16
80006184:	e3a01801 	mov	r1, #65536	; 0x10000
80006188:	ebfffe50 	bl	0x80005ad0
8000618c:	e320f000 	nop	{0}
80006190:	e24bd004 	sub	sp, fp, #4
80006194:	e8bd8800 	pop	{fp, pc}
80006198:	e92d4800 	push	{fp, lr}
8000619c:	e28db004 	add	fp, sp, #4
800061a0:	e24dd008 	sub	sp, sp, #8
800061a4:	e50b0008 	str	r0, [fp, #-8]
800061a8:	e50b100c 	str	r1, [fp, #-12]
800061ac:	e51b3008 	ldr	r3, [fp, #-8]
800061b0:	e2830f8b 	add	r0, r3, #556	; 0x22c
800061b4:	e3a03000 	mov	r3, #0
800061b8:	e3a02002 	mov	r2, #2
800061bc:	e3a01004 	mov	r1, #4
800061c0:	ebfffe42 	bl	0x80005ad0
800061c4:	e51b3008 	ldr	r3, [fp, #-8]
800061c8:	e2830f8f 	add	r0, r3, #572	; 0x23c
800061cc:	e51b300c 	ldr	r3, [fp, #-12]
800061d0:	e3a02010 	mov	r2, #16
800061d4:	e3a01807 	mov	r1, #458752	; 0x70000
800061d8:	ebfffe3c 	bl	0x80005ad0
800061dc:	e51b3008 	ldr	r3, [fp, #-8]
800061e0:	e2830f8b 	add	r0, r3, #556	; 0x22c
800061e4:	e3a03001 	mov	r3, #1
800061e8:	e3a02002 	mov	r2, #2
800061ec:	e3a01004 	mov	r1, #4
800061f0:	ebfffe36 	bl	0x80005ad0
800061f4:	e320f000 	nop	{0}
800061f8:	e24bd004 	sub	sp, fp, #4
800061fc:	e8bd8800 	pop	{fp, pc}
80006200:	e92d4800 	push	{fp, lr}
80006204:	e28db004 	add	fp, sp, #4
80006208:	e24dd008 	sub	sp, sp, #8
8000620c:	e50b0008 	str	r0, [fp, #-8]
80006210:	e50b100c 	str	r1, [fp, #-12]
80006214:	e51b3008 	ldr	r3, [fp, #-8]
80006218:	e2830f8f 	add	r0, r3, #572	; 0x23c
8000621c:	e51b300c 	ldr	r3, [fp, #-12]
80006220:	e3a02013 	mov	r2, #19
80006224:	e3a01702 	mov	r1, #524288	; 0x80000
80006228:	ebfffe28 	bl	0x80005ad0
8000622c:	e320f000 	nop	{0}
80006230:	e24bd004 	sub	sp, fp, #4
80006234:	e8bd8800 	pop	{fp, pc}
80006238:	e92d4800 	push	{fp, lr}
8000623c:	e28db004 	add	fp, sp, #4
80006240:	e24dd008 	sub	sp, sp, #8
80006244:	e50b0008 	str	r0, [fp, #-8]
80006248:	e50b100c 	str	r1, [fp, #-12]
8000624c:	e51b3008 	ldr	r3, [fp, #-8]
80006250:	e2830f8a 	add	r0, r3, #552	; 0x228
80006254:	e51b300c 	ldr	r3, [fp, #-12]
80006258:	e3a02009 	mov	r2, #9
8000625c:	e3a01c0e 	mov	r1, #3584	; 0xe00
80006260:	ebfffe1a 	bl	0x80005ad0
80006264:	e320f000 	nop	{0}
80006268:	e24bd004 	sub	sp, fp, #4
8000626c:	e8bd8800 	pop	{fp, pc}
80006270:	e92d4800 	push	{fp, lr}
80006274:	e28db004 	add	fp, sp, #4
80006278:	e24dd008 	sub	sp, sp, #8
8000627c:	e50b0008 	str	r0, [fp, #-8]
80006280:	e51b3008 	ldr	r3, [fp, #-8]
80006284:	e2833f8a 	add	r3, r3, #552	; 0x228
80006288:	e3a02009 	mov	r2, #9
8000628c:	e3a01c0e 	mov	r1, #3584	; 0xe00
80006290:	e1a00003 	mov	r0, r3
80006294:	ebfffe2b 	bl	0x80005b48
80006298:	e1a03000 	mov	r3, r0
8000629c:	e1a00003 	mov	r0, r3
800062a0:	e24bd004 	sub	sp, fp, #4
800062a4:	e8bd8800 	pop	{fp, pc}
800062a8:	e92d4800 	push	{fp, lr}
800062ac:	e28db004 	add	fp, sp, #4
800062b0:	e24dd010 	sub	sp, sp, #16
800062b4:	e50b0010 	str	r0, [fp, #-16]
800062b8:	e50b1014 	str	r1, [fp, #-20]	; 0xffffffec
800062bc:	e3a03001 	mov	r3, #1
800062c0:	e50b3008 	str	r3, [fp, #-8]
800062c4:	e51b3010 	ldr	r3, [fp, #-16]
800062c8:	e2830f8a 	add	r0, r3, #552	; 0x228
800062cc:	e51b3014 	ldr	r3, [fp, #-20]	; 0xffffffec
800062d0:	e3a02008 	mov	r2, #8
800062d4:	e3a01c01 	mov	r1, #256	; 0x100
800062d8:	ebfffdfc 	bl	0x80005ad0
800062dc:	e51b3014 	ldr	r3, [fp, #-20]	; 0xffffffec
800062e0:	e3530001 	cmp	r3, #1
800062e4:	1a00000a 	bne	0x80006314
800062e8:	e320f000 	nop	{0}
800062ec:	e51b3010 	ldr	r3, [fp, #-16]
800062f0:	e2833f8a 	add	r3, r3, #552	; 0x228
800062f4:	e3a02008 	mov	r2, #8
800062f8:	e3a01c01 	mov	r1, #256	; 0x100
800062fc:	e1a00003 	mov	r0, r3
80006300:	ebfffe10 	bl	0x80005b48
80006304:	e1a02000 	mov	r2, r0
80006308:	e51b3014 	ldr	r3, [fp, #-20]	; 0xffffffec
8000630c:	e1520003 	cmp	r2, r3
80006310:	1afffff5 	bne	0x800062ec
80006314:	e51b3008 	ldr	r3, [fp, #-8]
80006318:	e1a00003 	mov	r0, r3
8000631c:	e24bd004 	sub	sp, fp, #4
80006320:	e8bd8800 	pop	{fp, pc}
80006324:	e92d4800 	push	{fp, lr}
80006328:	e28db004 	add	fp, sp, #4
8000632c:	e24dd010 	sub	sp, sp, #16
80006330:	e50b0010 	str	r0, [fp, #-16]
80006334:	e50b1014 	str	r1, [fp, #-20]	; 0xffffffec
80006338:	e3a03000 	mov	r3, #0
8000633c:	e50b300c 	str	r3, [fp, #-12]
80006340:	e3a03001 	mov	r3, #1
80006344:	e50b3008 	str	r3, [fp, #-8]
80006348:	e51b3014 	ldr	r3, [fp, #-20]	; 0xffffffec
8000634c:	e3530001 	cmp	r3, #1
80006350:	1a000001 	bne	0x8000635c
80006354:	e3a03001 	mov	r3, #1
80006358:	ea000000 	b	0x80006360
8000635c:	e3a03000 	mov	r3, #0
80006360:	e50b300c 	str	r3, [fp, #-12]
80006364:	e51b3010 	ldr	r3, [fp, #-16]
80006368:	e2830f8b 	add	r0, r3, #556	; 0x22c
8000636c:	e51b300c 	ldr	r3, [fp, #-12]
80006370:	e3a02000 	mov	r2, #0
80006374:	e3a01001 	mov	r1, #1
80006378:	ebfffdd4 	bl	0x80005ad0
8000637c:	e51b3014 	ldr	r3, [fp, #-20]	; 0xffffffec
80006380:	e3530001 	cmp	r3, #1
80006384:	1a000007 	bne	0x800063a8
80006388:	e30f1fff 	movw	r1, #65535	; 0xffff
8000638c:	e51b0010 	ldr	r0, [fp, #-16]
80006390:	eb000008 	bl	0x800063b8
80006394:	e1a03000 	mov	r3, r0
80006398:	e3530000 	cmp	r3, #0
8000639c:	1a000001 	bne	0x800063a8
800063a0:	e3e03000 	mvn	r3, #0
800063a4:	e50b3008 	str	r3, [fp, #-8]
800063a8:	e51b3008 	ldr	r3, [fp, #-8]
800063ac:	e1a00003 	mov	r0, r3
800063b0:	e24bd004 	sub	sp, fp, #4
800063b4:	e8bd8800 	pop	{fp, pc}
800063b8:	e92d4800 	push	{fp, lr}
800063bc:	e28db004 	add	fp, sp, #4
800063c0:	e24dd010 	sub	sp, sp, #16
800063c4:	e50b0010 	str	r0, [fp, #-16]
800063c8:	e50b1014 	str	r1, [fp, #-20]	; 0xffffffec
800063cc:	e3a03000 	mov	r3, #0
800063d0:	e50b3008 	str	r3, [fp, #-8]
800063d4:	e51b3010 	ldr	r3, [fp, #-16]
800063d8:	e2833f8b 	add	r3, r3, #556	; 0x22c
800063dc:	e3a02001 	mov	r2, #1
800063e0:	e3a01002 	mov	r1, #2
800063e4:	e1a00003 	mov	r0, r3
800063e8:	ebfffdd6 	bl	0x80005b48
800063ec:	e1a03000 	mov	r3, r0
800063f0:	e3530001 	cmp	r3, #1
800063f4:	0a000002 	beq	0x80006404
800063f8:	e51b3014 	ldr	r3, [fp, #-20]	; 0xffffffec
800063fc:	e3530000 	cmp	r3, #0
80006400:	1a000002 	bne	0x80006410
80006404:	e3a03001 	mov	r3, #1
80006408:	e50b3008 	str	r3, [fp, #-8]
8000640c:	ea000004 	b	0x80006424
80006410:	e51b3014 	ldr	r3, [fp, #-20]	; 0xffffffec
80006414:	e2432001 	sub	r2, r3, #1
80006418:	e50b2014 	str	r2, [fp, #-20]	; 0xffffffec
8000641c:	e3530000 	cmp	r3, #0
80006420:	1affffeb 	bne	0x800063d4
80006424:	e51b3008 	ldr	r3, [fp, #-8]
80006428:	e1a00003 	mov	r0, r3
8000642c:	e24bd004 	sub	sp, fp, #4
80006430:	e8bd8800 	pop	{fp, pc}
80006434:	e92d4800 	push	{fp, lr}
80006438:	e28db004 	add	fp, sp, #4
8000643c:	e24dd010 	sub	sp, sp, #16
80006440:	e50b0010 	str	r0, [fp, #-16]
80006444:	e50b1014 	str	r1, [fp, #-20]	; 0xffffffec
80006448:	e51b3010 	ldr	r3, [fp, #-16]
8000644c:	e2833d09 	add	r3, r3, #576	; 0x240
80006450:	e1a00003 	mov	r0, r3
80006454:	ebfffd85 	bl	0x80005a70
80006458:	e50b0008 	str	r0, [fp, #-8]
8000645c:	e51b3008 	ldr	r3, [fp, #-8]
80006460:	e3c33407 	bic	r3, r3, #117440512	; 0x7000000
80006464:	e50b3008 	str	r3, [fp, #-8]
80006468:	e51b2008 	ldr	r2, [fp, #-8]
8000646c:	e51b3014 	ldr	r3, [fp, #-20]	; 0xffffffec
80006470:	e1823003 	orr	r3, r2, r3
80006474:	e50b3008 	str	r3, [fp, #-8]
80006478:	e51b3010 	ldr	r3, [fp, #-16]
8000647c:	e2833d09 	add	r3, r3, #576	; 0x240
80006480:	e51b1008 	ldr	r1, [fp, #-8]
80006484:	e1a00003 	mov	r0, r3
80006488:	ebfffd84 	bl	0x80005aa0
8000648c:	e320f000 	nop	{0}
80006490:	e24bd004 	sub	sp, fp, #4
80006494:	e8bd8800 	pop	{fp, pc}
80006498:	e92d4800 	push	{fp, lr}
8000649c:	e28db004 	add	fp, sp, #4
800064a0:	e24dd008 	sub	sp, sp, #8
800064a4:	e50b0008 	str	r0, [fp, #-8]
800064a8:	e51b3008 	ldr	r3, [fp, #-8]
800064ac:	e2833d09 	add	r3, r3, #576	; 0x240
800064b0:	e3a02015 	mov	r2, #21
800064b4:	e3a01602 	mov	r1, #2097152	; 0x200000
800064b8:	e1a00003 	mov	r0, r3
800064bc:	ebfffda1 	bl	0x80005b48
800064c0:	e1a03000 	mov	r3, r0
800064c4:	e1a00003 	mov	r0, r3
800064c8:	e24bd004 	sub	sp, fp, #4
800064cc:	e8bd8800 	pop	{fp, pc}
800064d0:	e92d4800 	push	{fp, lr}
800064d4:	e28db004 	add	fp, sp, #4
800064d8:	e24dd008 	sub	sp, sp, #8
800064dc:	e50b0008 	str	r0, [fp, #-8]
800064e0:	e51b3008 	ldr	r3, [fp, #-8]
800064e4:	e2833f91 	add	r3, r3, #580	; 0x244
800064e8:	e3a02000 	mov	r2, #0
800064ec:	e3a01001 	mov	r1, #1
800064f0:	e1a00003 	mov	r0, r3
800064f4:	ebfffd93 	bl	0x80005b48
800064f8:	e1a03000 	mov	r3, r0
800064fc:	e1a00003 	mov	r0, r3
80006500:	e24bd004 	sub	sp, fp, #4
80006504:	e8bd8800 	pop	{fp, pc}
80006508:	e92d4800 	push	{fp, lr}
8000650c:	e28db004 	add	fp, sp, #4
80006510:	e24dd008 	sub	sp, sp, #8
80006514:	e50b0008 	str	r0, [fp, #-8]
80006518:	e51b3008 	ldr	r3, [fp, #-8]
8000651c:	e2833f91 	add	r3, r3, #580	; 0x244
80006520:	e3a02001 	mov	r2, #1
80006524:	e3a01002 	mov	r1, #2
80006528:	e1a00003 	mov	r0, r3
8000652c:	ebfffd85 	bl	0x80005b48
80006530:	e1a03000 	mov	r3, r0
80006534:	e1a00003 	mov	r0, r3
80006538:	e24bd004 	sub	sp, fp, #4
8000653c:	e8bd8800 	pop	{fp, pc}
80006540:	e92d4800 	push	{fp, lr}
80006544:	e28db004 	add	fp, sp, #4
80006548:	e24dd008 	sub	sp, sp, #8
8000654c:	e50b0008 	str	r0, [fp, #-8]
80006550:	e51b3008 	ldr	r3, [fp, #-8]
80006554:	e2833f91 	add	r3, r3, #580	; 0x244
80006558:	e3a02002 	mov	r2, #2
8000655c:	e3a01004 	mov	r1, #4
80006560:	e1a00003 	mov	r0, r3
80006564:	ebfffd77 	bl	0x80005b48
80006568:	e1a03000 	mov	r3, r0
8000656c:	e1a00003 	mov	r0, r3
80006570:	e24bd004 	sub	sp, fp, #4
80006574:	e8bd8800 	pop	{fp, pc}
80006578:	e92d4800 	push	{fp, lr}
8000657c:	e28db004 	add	fp, sp, #4
80006580:	e24dd008 	sub	sp, sp, #8
80006584:	e50b0008 	str	r0, [fp, #-8]
80006588:	e50b100c 	str	r1, [fp, #-12]
8000658c:	e51b300c 	ldr	r3, [fp, #-12]
80006590:	e243300d 	sub	r3, r3, #13
80006594:	e203300f 	and	r3, r3, #15
80006598:	e50b300c 	str	r3, [fp, #-12]
8000659c:	e51b3008 	ldr	r3, [fp, #-8]
800065a0:	e2830f8b 	add	r0, r3, #556	; 0x22c
800065a4:	e51b300c 	ldr	r3, [fp, #-12]
800065a8:	e3a02010 	mov	r2, #16
800065ac:	e3a0180f 	mov	r1, #983040	; 0xf0000
800065b0:	ebfffd46 	bl	0x80005ad0
800065b4:	e320f000 	nop	{0}
800065b8:	e24bd004 	sub	sp, fp, #4
800065bc:	e8bd8800 	pop	{fp, pc}
800065c0:	e92d4800 	push	{fp, lr}
800065c4:	e28db004 	add	fp, sp, #4
800065c8:	e24dd018 	sub	sp, sp, #24
800065cc:	e50b0010 	str	r0, [fp, #-16]
800065d0:	e50b1014 	str	r1, [fp, #-20]	; 0xffffffec
800065d4:	e50b2018 	str	r2, [fp, #-24]	; 0xffffffe8
800065d8:	e50b301c 	str	r3, [fp, #-28]	; 0xffffffe4
800065dc:	e3a03000 	mov	r3, #0
800065e0:	e50b300c 	str	r3, [fp, #-12]
800065e4:	e3a03001 	mov	r3, #1
800065e8:	e50b3008 	str	r3, [fp, #-8]
800065ec:	e3a01001 	mov	r1, #1
800065f0:	e51b0010 	ldr	r0, [fp, #-16]
800065f4:	ebffff4a 	bl	0x80006324
800065f8:	e1a03000 	mov	r3, r0
800065fc:	e3530001 	cmp	r3, #1
80006600:	1a000041 	bne	0x8000670c
80006604:	e51b301c 	ldr	r3, [fp, #-28]	; 0xffffffe4
80006608:	e3530000 	cmp	r3, #0
8000660c:	1a000040 	bne	0x80006714
80006610:	e51b1018 	ldr	r1, [fp, #-24]	; 0xffffffe8
80006614:	e51b0014 	ldr	r0, [fp, #-20]	; 0xffffffec
80006618:	eb0015aa 	bl	0x8000bcc8
8000661c:	e1a03000 	mov	r3, r0
80006620:	e50b300c 	str	r3, [fp, #-12]
80006624:	e51b300c 	ldr	r3, [fp, #-12]
80006628:	e3530b01 	cmp	r3, #1024	; 0x400
8000662c:	3a000002 	bcc	0x8000663c
80006630:	e30033ff 	movw	r3, #1023	; 0x3ff
80006634:	e50b300c 	str	r3, [fp, #-12]
80006638:	ea00000e 	b	0x80006678
8000663c:	e51b300c 	ldr	r3, [fp, #-12]
80006640:	e3530000 	cmp	r3, #0
80006644:	1a00000b 	bne	0x80006678
80006648:	e3a03001 	mov	r3, #1
8000664c:	e50b300c 	str	r3, [fp, #-12]
80006650:	ea000008 	b	0x80006678
80006654:	e51b300c 	ldr	r3, [fp, #-12]
80006658:	e30023ff 	movw	r2, #1023	; 0x3ff
8000665c:	e1530002 	cmp	r3, r2
80006660:	1a000001 	bne	0x8000666c
80006664:	e3e03000 	mvn	r3, #0
80006668:	e50b3008 	str	r3, [fp, #-8]
8000666c:	e51b300c 	ldr	r3, [fp, #-12]
80006670:	e2833001 	add	r3, r3, #1
80006674:	e50b300c 	str	r3, [fp, #-12]
80006678:	e51b300c 	ldr	r3, [fp, #-12]
8000667c:	e1a01003 	mov	r1, r3
80006680:	e51b0014 	ldr	r0, [fp, #-20]	; 0xffffffec
80006684:	eb00158f 	bl	0x8000bcc8
80006688:	e1a03000 	mov	r3, r0
8000668c:	e1a02003 	mov	r2, r3
80006690:	e51b3018 	ldr	r3, [fp, #-24]	; 0xffffffe8
80006694:	e1520003 	cmp	r2, r3
80006698:	9a000002 	bls	0x800066a8
8000669c:	e51b3008 	ldr	r3, [fp, #-8]
800066a0:	e3530001 	cmp	r3, #1
800066a4:	0affffea 	beq	0x80006654
800066a8:	e51b3008 	ldr	r3, [fp, #-8]
800066ac:	e3530001 	cmp	r3, #1
800066b0:	1a000017 	bne	0x80006714
800066b4:	e51b3010 	ldr	r3, [fp, #-16]
800066b8:	e2830f8b 	add	r0, r3, #556	; 0x22c
800066bc:	e51b300c 	ldr	r3, [fp, #-12]
800066c0:	e3a02006 	mov	r2, #6
800066c4:	e30f1fc0 	movw	r1, #65472	; 0xffc0
800066c8:	ebfffd00 	bl	0x80005ad0
800066cc:	e30f1fff 	movw	r1, #65535	; 0xffff
800066d0:	e51b0010 	ldr	r0, [fp, #-16]
800066d4:	ebffff37 	bl	0x800063b8
800066d8:	e1a03000 	mov	r3, r0
800066dc:	e3530001 	cmp	r3, #1
800066e0:	1a000006 	bne	0x80006700
800066e4:	e51b3010 	ldr	r3, [fp, #-16]
800066e8:	e2830f8b 	add	r0, r3, #556	; 0x22c
800066ec:	e3a03001 	mov	r3, #1
800066f0:	e3a02002 	mov	r2, #2
800066f4:	e3a01004 	mov	r1, #4
800066f8:	ebfffcf4 	bl	0x80005ad0
800066fc:	ea000004 	b	0x80006714
80006700:	e3e03000 	mvn	r3, #0
80006704:	e50b3008 	str	r3, [fp, #-8]
80006708:	ea000001 	b	0x80006714
8000670c:	e3e03000 	mvn	r3, #0
80006710:	e50b3008 	str	r3, [fp, #-8]
80006714:	e51b3008 	ldr	r3, [fp, #-8]
80006718:	e1a00003 	mov	r0, r3
8000671c:	e24bd004 	sub	sp, fp, #4
80006720:	e8bd8800 	pop	{fp, pc}
80006724:	e92d4800 	push	{fp, lr}
80006728:	e28db004 	add	fp, sp, #4
8000672c:	e24dd010 	sub	sp, sp, #16
80006730:	e50b0010 	str	r0, [fp, #-16]
80006734:	e3a03000 	mov	r3, #0
80006738:	e50b3008 	str	r3, [fp, #-8]
8000673c:	e3a01001 	mov	r1, #1
80006740:	e51b0010 	ldr	r0, [fp, #-16]
80006744:	eb00001b 	bl	0x800067b8
80006748:	e51b3010 	ldr	r3, [fp, #-16]
8000674c:	e2830f4b 	add	r0, r3, #300	; 0x12c
80006750:	e3a03001 	mov	r3, #1
80006754:	e3a02001 	mov	r2, #1
80006758:	e3a01002 	mov	r1, #2
8000675c:	ebfffcdb 	bl	0x80005ad0
80006760:	e51b3010 	ldr	r3, [fp, #-16]
80006764:	e2833f83 	add	r3, r3, #524	; 0x20c
80006768:	e3a01000 	mov	r1, #0
8000676c:	e1a00003 	mov	r0, r3
80006770:	ebfffcca 	bl	0x80005aa0
80006774:	e30f1fff 	movw	r1, #65535	; 0xffff
80006778:	e51b0010 	ldr	r0, [fp, #-16]
8000677c:	eb000093 	bl	0x800069d0
80006780:	e50b0008 	str	r0, [fp, #-8]
80006784:	e51b3010 	ldr	r3, [fp, #-16]
80006788:	e2830f4b 	add	r0, r3, #300	; 0x12c
8000678c:	e3a03000 	mov	r3, #0
80006790:	e3a02001 	mov	r2, #1
80006794:	e3a01002 	mov	r1, #2
80006798:	ebfffccc 	bl	0x80005ad0
8000679c:	e3e01000 	mvn	r1, #0
800067a0:	e51b0010 	ldr	r0, [fp, #-16]
800067a4:	eb00007c 	bl	0x8000699c
800067a8:	e51b3008 	ldr	r3, [fp, #-8]
800067ac:	e1a00003 	mov	r0, r3
800067b0:	e24bd004 	sub	sp, fp, #4
800067b4:	e8bd8800 	pop	{fp, pc}
800067b8:	e92d4800 	push	{fp, lr}
800067bc:	e28db004 	add	fp, sp, #4
800067c0:	e24dd010 	sub	sp, sp, #16
800067c4:	e50b0010 	str	r0, [fp, #-16]
800067c8:	e50b1014 	str	r1, [fp, #-20]	; 0xffffffec
800067cc:	e51b3010 	ldr	r3, [fp, #-16]
800067d0:	e2833f8d 	add	r3, r3, #564	; 0x234
800067d4:	e1a00003 	mov	r0, r3
800067d8:	ebfffca4 	bl	0x80005a70
800067dc:	e50b0008 	str	r0, [fp, #-8]
800067e0:	e51b2008 	ldr	r2, [fp, #-8]
800067e4:	e51b3014 	ldr	r3, [fp, #-20]	; 0xffffffec
800067e8:	e1823003 	orr	r3, r2, r3
800067ec:	e50b3008 	str	r3, [fp, #-8]
800067f0:	e51b3010 	ldr	r3, [fp, #-16]
800067f4:	e2833f8d 	add	r3, r3, #564	; 0x234
800067f8:	e51b1008 	ldr	r1, [fp, #-8]
800067fc:	e1a00003 	mov	r0, r3
80006800:	ebfffca6 	bl	0x80005aa0
80006804:	e320f000 	nop	{0}
80006808:	e24bd004 	sub	sp, fp, #4
8000680c:	e8bd8800 	pop	{fp, pc}
80006810:	e92d4800 	push	{fp, lr}
80006814:	e28db004 	add	fp, sp, #4
80006818:	e24dd010 	sub	sp, sp, #16
8000681c:	e50b0010 	str	r0, [fp, #-16]
80006820:	e50b1014 	str	r1, [fp, #-20]	; 0xffffffec
80006824:	e51b3010 	ldr	r3, [fp, #-16]
80006828:	e2833f8d 	add	r3, r3, #564	; 0x234
8000682c:	e1a00003 	mov	r0, r3
80006830:	ebfffc8e 	bl	0x80005a70
80006834:	e50b0008 	str	r0, [fp, #-8]
80006838:	e51b3014 	ldr	r3, [fp, #-20]	; 0xffffffec
8000683c:	e1e03003 	mvn	r3, r3
80006840:	e51b2008 	ldr	r2, [fp, #-8]
80006844:	e0033002 	and	r3, r3, r2
80006848:	e50b3008 	str	r3, [fp, #-8]
8000684c:	e51b3010 	ldr	r3, [fp, #-16]
80006850:	e2833f8d 	add	r3, r3, #564	; 0x234
80006854:	e51b1008 	ldr	r1, [fp, #-8]
80006858:	e1a00003 	mov	r0, r3
8000685c:	ebfffc8f 	bl	0x80005aa0
80006860:	e320f000 	nop	{0}
80006864:	e24bd004 	sub	sp, fp, #4
80006868:	e8bd8800 	pop	{fp, pc}
8000686c:	e92d4800 	push	{fp, lr}
80006870:	e28db004 	add	fp, sp, #4
80006874:	e24dd010 	sub	sp, sp, #16
80006878:	e50b0010 	str	r0, [fp, #-16]
8000687c:	e50b1014 	str	r1, [fp, #-20]	; 0xffffffec
80006880:	e3a03000 	mov	r3, #0
80006884:	e50b3008 	str	r3, [fp, #-8]
80006888:	e51b3010 	ldr	r3, [fp, #-16]
8000688c:	e2833f8e 	add	r3, r3, #568	; 0x238
80006890:	e1a00003 	mov	r0, r3
80006894:	ebfffc75 	bl	0x80005a70
80006898:	e50b0008 	str	r0, [fp, #-8]
8000689c:	e51b2008 	ldr	r2, [fp, #-8]
800068a0:	e51b3014 	ldr	r3, [fp, #-20]	; 0xffffffec
800068a4:	e1823003 	orr	r3, r2, r3
800068a8:	e50b3008 	str	r3, [fp, #-8]
800068ac:	e51b3010 	ldr	r3, [fp, #-16]
800068b0:	e2833f8e 	add	r3, r3, #568	; 0x238
800068b4:	e51b1008 	ldr	r1, [fp, #-8]
800068b8:	e1a00003 	mov	r0, r3
800068bc:	ebfffc77 	bl	0x80005aa0
800068c0:	e51b1014 	ldr	r1, [fp, #-20]	; 0xffffffec
800068c4:	e51b0010 	ldr	r0, [fp, #-16]
800068c8:	ebffffba 	bl	0x800067b8
800068cc:	e320f000 	nop	{0}
800068d0:	e24bd004 	sub	sp, fp, #4
800068d4:	e8bd8800 	pop	{fp, pc}
800068d8:	e92d4800 	push	{fp, lr}
800068dc:	e28db004 	add	fp, sp, #4
800068e0:	e24dd010 	sub	sp, sp, #16
800068e4:	e50b0010 	str	r0, [fp, #-16]
800068e8:	e50b1014 	str	r1, [fp, #-20]	; 0xffffffec
800068ec:	e3a03000 	mov	r3, #0
800068f0:	e50b3008 	str	r3, [fp, #-8]
800068f4:	e51b3010 	ldr	r3, [fp, #-16]
800068f8:	e2833f8e 	add	r3, r3, #568	; 0x238
800068fc:	e1a00003 	mov	r0, r3
80006900:	ebfffc5a 	bl	0x80005a70
80006904:	e50b0008 	str	r0, [fp, #-8]
80006908:	e51b3014 	ldr	r3, [fp, #-20]	; 0xffffffec
8000690c:	e1e03003 	mvn	r3, r3
80006910:	e51b2008 	ldr	r2, [fp, #-8]
80006914:	e0033002 	and	r3, r3, r2
80006918:	e50b3008 	str	r3, [fp, #-8]
8000691c:	e51b3010 	ldr	r3, [fp, #-16]
80006920:	e2833f8e 	add	r3, r3, #568	; 0x238
80006924:	e51b1008 	ldr	r1, [fp, #-8]
80006928:	e1a00003 	mov	r0, r3
8000692c:	ebfffc5b 	bl	0x80005aa0
80006930:	e320f000 	nop	{0}
80006934:	e24bd004 	sub	sp, fp, #4
80006938:	e8bd8800 	pop	{fp, pc}
8000693c:	e92d4800 	push	{fp, lr}
80006940:	e28db004 	add	fp, sp, #4
80006944:	e24dd008 	sub	sp, sp, #8
80006948:	e50b0008 	str	r0, [fp, #-8]
8000694c:	e51b3008 	ldr	r3, [fp, #-8]
80006950:	e2833f8e 	add	r3, r3, #568	; 0x238
80006954:	e1a00003 	mov	r0, r3
80006958:	ebfffc44 	bl	0x80005a70
8000695c:	e1a03000 	mov	r3, r0
80006960:	e1a00003 	mov	r0, r3
80006964:	e24bd004 	sub	sp, fp, #4
80006968:	e8bd8800 	pop	{fp, pc}
8000696c:	e92d4800 	push	{fp, lr}
80006970:	e28db004 	add	fp, sp, #4
80006974:	e24dd008 	sub	sp, sp, #8
80006978:	e50b0008 	str	r0, [fp, #-8]
8000697c:	e51b3008 	ldr	r3, [fp, #-8]
80006980:	e2833e23 	add	r3, r3, #560	; 0x230
80006984:	e1a00003 	mov	r0, r3
80006988:	ebfffc38 	bl	0x80005a70
8000698c:	e1a03000 	mov	r3, r0
80006990:	e1a00003 	mov	r0, r3
80006994:	e24bd004 	sub	sp, fp, #4
80006998:	e8bd8800 	pop	{fp, pc}
8000699c:	e92d4800 	push	{fp, lr}
800069a0:	e28db004 	add	fp, sp, #4
800069a4:	e24dd008 	sub	sp, sp, #8
800069a8:	e50b0008 	str	r0, [fp, #-8]
800069ac:	e50b100c 	str	r1, [fp, #-12]
800069b0:	e51b3008 	ldr	r3, [fp, #-8]
800069b4:	e2833e23 	add	r3, r3, #560	; 0x230
800069b8:	e51b100c 	ldr	r1, [fp, #-12]
800069bc:	e1a00003 	mov	r0, r3
800069c0:	ebfffc36 	bl	0x80005aa0
800069c4:	e320f000 	nop	{0}
800069c8:	e24bd004 	sub	sp, fp, #4
800069cc:	e8bd8800 	pop	{fp, pc}
800069d0:	e92d4800 	push	{fp, lr}
800069d4:	e28db004 	add	fp, sp, #4
800069d8:	e24dd010 	sub	sp, sp, #16
800069dc:	e50b0010 	str	r0, [fp, #-16]
800069e0:	e50b1014 	str	r1, [fp, #-20]	; 0xffffffec
800069e4:	e3a03000 	mov	r3, #0
800069e8:	e50b3008 	str	r3, [fp, #-8]
800069ec:	e51b3010 	ldr	r3, [fp, #-16]
800069f0:	e2833e23 	add	r3, r3, #560	; 0x230
800069f4:	e3a02000 	mov	r2, #0
800069f8:	e3a01001 	mov	r1, #1
800069fc:	e1a00003 	mov	r0, r3
80006a00:	ebfffc50 	bl	0x80005b48
80006a04:	e1a03000 	mov	r3, r0
80006a08:	e3530001 	cmp	r3, #1
80006a0c:	0a000002 	beq	0x80006a1c
80006a10:	e51b3014 	ldr	r3, [fp, #-20]	; 0xffffffec
80006a14:	e3530000 	cmp	r3, #0
80006a18:	1a000002 	bne	0x80006a28
80006a1c:	e3a03001 	mov	r3, #1
80006a20:	e50b3008 	str	r3, [fp, #-8]
80006a24:	ea000004 	b	0x80006a3c
80006a28:	e51b3014 	ldr	r3, [fp, #-20]	; 0xffffffec
80006a2c:	e2432001 	sub	r2, r3, #1
80006a30:	e50b2014 	str	r2, [fp, #-20]	; 0xffffffec
80006a34:	e3530000 	cmp	r3, #0
80006a38:	1affffeb 	bne	0x800069ec
80006a3c:	e51b3008 	ldr	r3, [fp, #-8]
80006a40:	e1a00003 	mov	r0, r3
80006a44:	e24bd004 	sub	sp, fp, #4
80006a48:	e8bd8800 	pop	{fp, pc}
80006a4c:	e92d4800 	push	{fp, lr}
80006a50:	e28db004 	add	fp, sp, #4
80006a54:	e24dd010 	sub	sp, sp, #16
80006a58:	e50b0010 	str	r0, [fp, #-16]
80006a5c:	e50b1014 	str	r1, [fp, #-20]	; 0xffffffec
80006a60:	e3a03000 	mov	r3, #0
80006a64:	e50b3008 	str	r3, [fp, #-8]
80006a68:	e51b3010 	ldr	r3, [fp, #-16]
80006a6c:	e2833e23 	add	r3, r3, #560	; 0x230
80006a70:	e3a02001 	mov	r2, #1
80006a74:	e3a01002 	mov	r1, #2
80006a78:	e1a00003 	mov	r0, r3
80006a7c:	ebfffc31 	bl	0x80005b48
80006a80:	e1a03000 	mov	r3, r0
80006a84:	e3530001 	cmp	r3, #1
80006a88:	0a000002 	beq	0x80006a98
80006a8c:	e51b3014 	ldr	r3, [fp, #-20]	; 0xffffffec
80006a90:	e3530000 	cmp	r3, #0
80006a94:	1a000002 	bne	0x80006aa4
80006a98:	e3a03001 	mov	r3, #1
80006a9c:	e50b3008 	str	r3, [fp, #-8]
80006aa0:	ea000004 	b	0x80006ab8
80006aa4:	e51b3014 	ldr	r3, [fp, #-20]	; 0xffffffec
80006aa8:	e2432001 	sub	r2, r3, #1
80006aac:	e50b2014 	str	r2, [fp, #-20]	; 0xffffffec
80006ab0:	e3530000 	cmp	r3, #0
80006ab4:	1affffeb 	bne	0x80006a68
80006ab8:	e51b3008 	ldr	r3, [fp, #-8]
80006abc:	e1a00003 	mov	r0, r3
80006ac0:	e24bd004 	sub	sp, fp, #4
80006ac4:	e8bd8800 	pop	{fp, pc}
80006ac8:	e92d4800 	push	{fp, lr}
80006acc:	e28db004 	add	fp, sp, #4
80006ad0:	e24dd008 	sub	sp, sp, #8
80006ad4:	e50b0008 	str	r0, [fp, #-8]
80006ad8:	e50b100c 	str	r1, [fp, #-12]
80006adc:	e51b3008 	ldr	r3, [fp, #-8]
80006ae0:	e2830f81 	add	r0, r3, #516	; 0x204
80006ae4:	e51b300c 	ldr	r3, [fp, #-12]
80006ae8:	e3a02000 	mov	r2, #0
80006aec:	e3001fff 	movw	r1, #4095	; 0xfff
80006af0:	ebfffbf6 	bl	0x80005ad0
80006af4:	e320f000 	nop	{0}
80006af8:	e24bd004 	sub	sp, fp, #4
80006afc:	e8bd8800 	pop	{fp, pc}
80006b00:	e92d4800 	push	{fp, lr}
80006b04:	e28db004 	add	fp, sp, #4
80006b08:	e24dd008 	sub	sp, sp, #8
80006b0c:	e50b0008 	str	r0, [fp, #-8]
80006b10:	e51b3008 	ldr	r3, [fp, #-8]
80006b14:	e2833f81 	add	r3, r3, #516	; 0x204
80006b18:	e3a02000 	mov	r2, #0
80006b1c:	e3001fff 	movw	r1, #4095	; 0xfff
80006b20:	e1a00003 	mov	r0, r3
80006b24:	ebfffc07 	bl	0x80005b48
80006b28:	e1a03000 	mov	r3, r0
80006b2c:	e1a00003 	mov	r0, r3
80006b30:	e24bd004 	sub	sp, fp, #4
80006b34:	e8bd8800 	pop	{fp, pc}
80006b38:	e92d4800 	push	{fp, lr}
80006b3c:	e28db004 	add	fp, sp, #4
80006b40:	e24dd008 	sub	sp, sp, #8
80006b44:	e50b0008 	str	r0, [fp, #-8]
80006b48:	e51b3008 	ldr	r3, [fp, #-8]
80006b4c:	e2833f81 	add	r3, r3, #516	; 0x204
80006b50:	e3a02010 	mov	r2, #16
80006b54:	e3a01000 	mov	r1, #0
80006b58:	e34f1fff 	movt	r1, #65535	; 0xffff
80006b5c:	e1a00003 	mov	r0, r3
80006b60:	ebfffbf8 	bl	0x80005b48
80006b64:	e1a03000 	mov	r3, r0
80006b68:	e1a00003 	mov	r0, r3
80006b6c:	e24bd004 	sub	sp, fp, #4
80006b70:	e8bd8800 	pop	{fp, pc}
80006b74:	e92d4800 	push	{fp, lr}
80006b78:	e28db004 	add	fp, sp, #4
80006b7c:	e24dd010 	sub	sp, sp, #16
80006b80:	e50b0010 	str	r0, [fp, #-16]
80006b84:	e50b1014 	str	r1, [fp, #-20]	; 0xffffffec
80006b88:	e3a03000 	mov	r3, #0
80006b8c:	e50b3008 	str	r3, [fp, #-8]
80006b90:	e51b3008 	ldr	r3, [fp, #-8]
80006b94:	e3c3243f 	bic	r2, r3, #1056964608	; 0x3f000000
80006b98:	e51b3014 	ldr	r3, [fp, #-20]	; 0xffffffec
80006b9c:	e5933000 	ldr	r3, [r3]
80006ba0:	e1a03c03 	lsl	r3, r3, #24
80006ba4:	e203343f 	and	r3, r3, #1056964608	; 0x3f000000
80006ba8:	e1823003 	orr	r3, r2, r3
80006bac:	e50b3008 	str	r3, [fp, #-8]
80006bb0:	e51b3008 	ldr	r3, [fp, #-8]
80006bb4:	e3c32503 	bic	r2, r3, #12582912	; 0xc00000
80006bb8:	e51b3014 	ldr	r3, [fp, #-20]	; 0xffffffec
80006bbc:	e5933004 	ldr	r3, [r3, #4]
80006bc0:	e1a03b03 	lsl	r3, r3, #22
80006bc4:	e2033503 	and	r3, r3, #12582912	; 0xc00000
80006bc8:	e1823003 	orr	r3, r2, r3
80006bcc:	e50b3008 	str	r3, [fp, #-8]
80006bd0:	e51b3008 	ldr	r3, [fp, #-8]
80006bd4:	e3c32803 	bic	r2, r3, #196608	; 0x30000
80006bd8:	e51b3014 	ldr	r3, [fp, #-20]	; 0xffffffec
80006bdc:	e5933008 	ldr	r3, [r3, #8]
80006be0:	e1a03803 	lsl	r3, r3, #16
80006be4:	e2033803 	and	r3, r3, #196608	; 0x30000
80006be8:	e1823003 	orr	r3, r2, r3
80006bec:	e50b3008 	str	r3, [fp, #-8]
80006bf0:	e51b3008 	ldr	r3, [fp, #-8]
80006bf4:	e3c32010 	bic	r2, r3, #16
80006bf8:	e51b3014 	ldr	r3, [fp, #-20]	; 0xffffffec
80006bfc:	e593300c 	ldr	r3, [r3, #12]
80006c00:	e1a03203 	lsl	r3, r3, #4
80006c04:	e2033010 	and	r3, r3, #16
80006c08:	e1823003 	orr	r3, r2, r3
80006c0c:	e50b3008 	str	r3, [fp, #-8]
80006c10:	e51b3014 	ldr	r3, [fp, #-20]	; 0xffffffec
80006c14:	e5933014 	ldr	r3, [r3, #20]
80006c18:	e3530001 	cmp	r3, #1
80006c1c:	1a000008 	bne	0x80006c44
80006c20:	e51b3008 	ldr	r3, [fp, #-8]
80006c24:	e3833602 	orr	r3, r3, #2097152	; 0x200000
80006c28:	e50b3008 	str	r3, [fp, #-8]
80006c2c:	e51b3008 	ldr	r3, [fp, #-8]
80006c30:	e3833020 	orr	r3, r3, #32
80006c34:	e50b3008 	str	r3, [fp, #-8]
80006c38:	e51b3008 	ldr	r3, [fp, #-8]
80006c3c:	e3833002 	orr	r3, r3, #2
80006c40:	e50b3008 	str	r3, [fp, #-8]
80006c44:	e51b3014 	ldr	r3, [fp, #-20]	; 0xffffffec
80006c48:	e593301c 	ldr	r3, [r3, #28]
80006c4c:	e3530001 	cmp	r3, #1
80006c50:	1a000002 	bne	0x80006c60
80006c54:	e51b3008 	ldr	r3, [fp, #-8]
80006c58:	e3833001 	orr	r3, r3, #1
80006c5c:	e50b3008 	str	r3, [fp, #-8]
80006c60:	e51b3010 	ldr	r3, [fp, #-16]
80006c64:	e2830f81 	add	r0, r3, #516	; 0x204
80006c68:	e51b3014 	ldr	r3, [fp, #-20]	; 0xffffffec
80006c6c:	e5933018 	ldr	r3, [r3, #24]
80006c70:	e3a02010 	mov	r2, #16
80006c74:	e3a01000 	mov	r1, #0
80006c78:	e34f1fff 	movt	r1, #65535	; 0xffff
80006c7c:	ebfffb93 	bl	0x80005ad0
80006c80:	e51b3010 	ldr	r3, [fp, #-16]
80006c84:	e2832f82 	add	r2, r3, #520	; 0x208
80006c88:	e51b3014 	ldr	r3, [fp, #-20]	; 0xffffffec
80006c8c:	e5933010 	ldr	r3, [r3, #16]
80006c90:	e1a01003 	mov	r1, r3
80006c94:	e1a00002 	mov	r0, r2
80006c98:	ebfffb80 	bl	0x80005aa0
80006c9c:	e51b3010 	ldr	r3, [fp, #-16]
80006ca0:	e2833f83 	add	r3, r3, #524	; 0x20c
80006ca4:	e51b1008 	ldr	r1, [fp, #-8]
80006ca8:	e1a00003 	mov	r0, r3
80006cac:	ebfffb7b 	bl	0x80005aa0
80006cb0:	e320f000 	nop	{0}
80006cb4:	e24bd004 	sub	sp, fp, #4
80006cb8:	e8bd8800 	pop	{fp, pc}
80006cbc:	e92d4810 	push	{r4, fp, lr}
80006cc0:	e28db008 	add	fp, sp, #8
80006cc4:	e24dd00c 	sub	sp, sp, #12
80006cc8:	e50b0010 	str	r0, [fp, #-16]
80006ccc:	e50b1014 	str	r1, [fp, #-20]	; 0xffffffec
80006cd0:	e51b3010 	ldr	r3, [fp, #-16]
80006cd4:	e2833e21 	add	r3, r3, #528	; 0x210
80006cd8:	e1a00003 	mov	r0, r3
80006cdc:	ebfffb63 	bl	0x80005a70
80006ce0:	e1a02000 	mov	r2, r0
80006ce4:	e51b3014 	ldr	r3, [fp, #-20]	; 0xffffffec
80006ce8:	e5832000 	str	r2, [r3]
80006cec:	e51b3014 	ldr	r3, [fp, #-20]	; 0xffffffec
80006cf0:	e2834004 	add	r4, r3, #4
80006cf4:	e51b3010 	ldr	r3, [fp, #-16]
80006cf8:	e2833f85 	add	r3, r3, #532	; 0x214
80006cfc:	e1a00003 	mov	r0, r3
80006d00:	ebfffb5a 	bl	0x80005a70
80006d04:	e1a03000 	mov	r3, r0
80006d08:	e5843000 	str	r3, [r4]
80006d0c:	e51b3014 	ldr	r3, [fp, #-20]	; 0xffffffec
80006d10:	e2834008 	add	r4, r3, #8
80006d14:	e51b3010 	ldr	r3, [fp, #-16]
80006d18:	e2833f86 	add	r3, r3, #536	; 0x218
80006d1c:	e1a00003 	mov	r0, r3
80006d20:	ebfffb52 	bl	0x80005a70
80006d24:	e1a03000 	mov	r3, r0
80006d28:	e5843000 	str	r3, [r4]
80006d2c:	e51b3014 	ldr	r3, [fp, #-20]	; 0xffffffec
80006d30:	e283400c 	add	r4, r3, #12
80006d34:	e51b3010 	ldr	r3, [fp, #-16]
80006d38:	e2833f87 	add	r3, r3, #540	; 0x21c
80006d3c:	e1a00003 	mov	r0, r3
80006d40:	ebfffb4a 	bl	0x80005a70
80006d44:	e1a03000 	mov	r3, r0
80006d48:	e5843000 	str	r3, [r4]
80006d4c:	e320f000 	nop	{0}
80006d50:	e24bd008 	sub	sp, fp, #8
80006d54:	e8bd8810 	pop	{r4, fp, pc}
80006d58:	e92d4810 	push	{r4, fp, lr}
80006d5c:	e28db008 	add	fp, sp, #8
80006d60:	e24dd01c 	sub	sp, sp, #28
80006d64:	e50b0018 	str	r0, [fp, #-24]	; 0xffffffe8
80006d68:	e50b101c 	str	r1, [fp, #-28]	; 0xffffffe4
80006d6c:	e50b2020 	str	r2, [fp, #-32]	; 0xffffffe0
80006d70:	e3a03000 	mov	r3, #0
80006d74:	e50b3010 	str	r3, [fp, #-16]
80006d78:	ea00000c 	b	0x80006db0
80006d7c:	e51b3010 	ldr	r3, [fp, #-16]
80006d80:	e1a03103 	lsl	r3, r3, #2
80006d84:	e51b201c 	ldr	r2, [fp, #-28]	; 0xffffffe4
80006d88:	e0824003 	add	r4, r2, r3
80006d8c:	e51b3018 	ldr	r3, [fp, #-24]	; 0xffffffe8
80006d90:	e2833e22 	add	r3, r3, #544	; 0x220
80006d94:	e1a00003 	mov	r0, r3
80006d98:	ebfffb34 	bl	0x80005a70
80006d9c:	e1a03000 	mov	r3, r0
80006da0:	e5843000 	str	r3, [r4]
80006da4:	e51b3010 	ldr	r3, [fp, #-16]
80006da8:	e2833001 	add	r3, r3, #1
80006dac:	e50b3010 	str	r3, [fp, #-16]
80006db0:	e51b3020 	ldr	r3, [fp, #-32]	; 0xffffffe0
80006db4:	e1a02123 	lsr	r2, r3, #2
80006db8:	e51b3010 	ldr	r3, [fp, #-16]
80006dbc:	e1520003 	cmp	r2, r3
80006dc0:	8affffed 	bhi	0x80006d7c
80006dc4:	e320f000 	nop	{0}
80006dc8:	e24bd008 	sub	sp, fp, #8
80006dcc:	e8bd8810 	pop	{r4, fp, pc}
80006dd0:	e92d4800 	push	{fp, lr}
80006dd4:	e28db004 	add	fp, sp, #4
80006dd8:	e24dd018 	sub	sp, sp, #24
80006ddc:	e50b0010 	str	r0, [fp, #-16]
80006de0:	e50b1014 	str	r1, [fp, #-20]	; 0xffffffec
80006de4:	e50b2018 	str	r2, [fp, #-24]	; 0xffffffe8
80006de8:	e3a03000 	mov	r3, #0
80006dec:	e50b3008 	str	r3, [fp, #-8]
80006df0:	ea00000b 	b	0x80006e24
80006df4:	e51b3010 	ldr	r3, [fp, #-16]
80006df8:	e2830e22 	add	r0, r3, #544	; 0x220
80006dfc:	e51b3008 	ldr	r3, [fp, #-8]
80006e00:	e1a03103 	lsl	r3, r3, #2
80006e04:	e51b2014 	ldr	r2, [fp, #-20]	; 0xffffffec
80006e08:	e0823003 	add	r3, r2, r3
80006e0c:	e5933000 	ldr	r3, [r3]
80006e10:	e1a01003 	mov	r1, r3
80006e14:	ebfffb21 	bl	0x80005aa0
80006e18:	e51b3008 	ldr	r3, [fp, #-8]
80006e1c:	e2833001 	add	r3, r3, #1
80006e20:	e50b3008 	str	r3, [fp, #-8]
80006e24:	e51b3018 	ldr	r3, [fp, #-24]	; 0xffffffe8
80006e28:	e1a02123 	lsr	r2, r3, #2
80006e2c:	e51b3008 	ldr	r3, [fp, #-8]
80006e30:	e1520003 	cmp	r2, r3
80006e34:	8affffee 	bhi	0x80006df4
80006e38:	e320f000 	nop	{0}
80006e3c:	e24bd004 	sub	sp, fp, #4
80006e40:	e8bd8800 	pop	{fp, pc}
80006e44:	e92d4800 	push	{fp, lr}
80006e48:	e28db004 	add	fp, sp, #4
80006e4c:	e24dd008 	sub	sp, sp, #8
80006e50:	e50b0008 	str	r0, [fp, #-8]
80006e54:	e51b3008 	ldr	r3, [fp, #-8]
80006e58:	e2833f89 	add	r3, r3, #548	; 0x224
80006e5c:	e3a02018 	mov	r2, #24
80006e60:	e3a01401 	mov	r1, #16777216	; 0x1000000
80006e64:	e1a00003 	mov	r0, r3
80006e68:	ebfffb36 	bl	0x80005b48
80006e6c:	e1a03000 	mov	r3, r0
80006e70:	e1a00003 	mov	r0, r3
80006e74:	e24bd004 	sub	sp, fp, #4
80006e78:	e8bd8800 	pop	{fp, pc}
80006e7c:	e92d4800 	push	{fp, lr}
80006e80:	e28db004 	add	fp, sp, #4
80006e84:	e24dd008 	sub	sp, sp, #8
80006e88:	e50b0008 	str	r0, [fp, #-8]
80006e8c:	e51b3008 	ldr	r3, [fp, #-8]
80006e90:	e2833f89 	add	r3, r3, #548	; 0x224
80006e94:	e3a02014 	mov	r2, #20
80006e98:	e3a0160f 	mov	r1, #15728640	; 0xf00000
80006e9c:	e1a00003 	mov	r0, r3
80006ea0:	ebfffb28 	bl	0x80005b48
80006ea4:	e1a03000 	mov	r3, r0
80006ea8:	e1a00003 	mov	r0, r3
80006eac:	e24bd004 	sub	sp, fp, #4
80006eb0:	e8bd8800 	pop	{fp, pc}
80006eb4:	e92d4800 	push	{fp, lr}
80006eb8:	e28db004 	add	fp, sp, #4
80006ebc:	e24dd008 	sub	sp, sp, #8
80006ec0:	e50b0008 	str	r0, [fp, #-8]
80006ec4:	e51b3008 	ldr	r3, [fp, #-8]
80006ec8:	e2833f89 	add	r3, r3, #548	; 0x224
80006ecc:	e3a02012 	mov	r2, #18
80006ed0:	e3a01701 	mov	r1, #262144	; 0x40000
80006ed4:	e1a00003 	mov	r0, r3
80006ed8:	ebfffb1a 	bl	0x80005b48
80006edc:	e1a03000 	mov	r3, r0
80006ee0:	e1a00003 	mov	r0, r3
80006ee4:	e24bd004 	sub	sp, fp, #4
80006ee8:	e8bd8800 	pop	{fp, pc}
80006eec:	e92d4800 	push	{fp, lr}
80006ef0:	e28db004 	add	fp, sp, #4
80006ef4:	e24dd008 	sub	sp, sp, #8
80006ef8:	e50b0008 	str	r0, [fp, #-8]
80006efc:	e51b3008 	ldr	r3, [fp, #-8]
80006f00:	e2833f89 	add	r3, r3, #548	; 0x224
80006f04:	e3a02013 	mov	r2, #19
80006f08:	e3a01702 	mov	r1, #524288	; 0x80000
80006f0c:	e1a00003 	mov	r0, r3
80006f10:	ebfffb0c 	bl	0x80005b48
80006f14:	e1a03000 	mov	r3, r0
80006f18:	e1a00003 	mov	r0, r3
80006f1c:	e24bd004 	sub	sp, fp, #4
80006f20:	e8bd8800 	pop	{fp, pc}
80006f24:	e92d4800 	push	{fp, lr}
80006f28:	e28db004 	add	fp, sp, #4
80006f2c:	e24dd008 	sub	sp, sp, #8
80006f30:	e50b0008 	str	r0, [fp, #-8]
80006f34:	e50b100c 	str	r1, [fp, #-12]
80006f38:	e51b3008 	ldr	r3, [fp, #-8]
80006f3c:	e2833d09 	add	r3, r3, #576	; 0x240
80006f40:	e1a00003 	mov	r0, r3
80006f44:	ebfffac9 	bl	0x80005a70
80006f48:	e1a02000 	mov	r2, r0
80006f4c:	e51b300c 	ldr	r3, [fp, #-12]
80006f50:	e5832000 	str	r2, [r3]
80006f54:	e51b3008 	ldr	r3, [fp, #-8]
80006f58:	e2833e11 	add	r3, r3, #272	; 0x110
80006f5c:	e1a00003 	mov	r0, r3
80006f60:	ebfffac2 	bl	0x80005a70
80006f64:	e1a02000 	mov	r2, r0
80006f68:	e51b300c 	ldr	r3, [fp, #-12]
80006f6c:	e5832004 	str	r2, [r3, #4]
80006f70:	e51b3008 	ldr	r3, [fp, #-8]
80006f74:	e2833f4b 	add	r3, r3, #300	; 0x12c
80006f78:	e1a00003 	mov	r0, r3
80006f7c:	ebfffabb 	bl	0x80005a70
80006f80:	e1a02000 	mov	r2, r0
80006f84:	e51b300c 	ldr	r3, [fp, #-12]
80006f88:	e5832008 	str	r2, [r3, #8]
80006f8c:	e51b3008 	ldr	r3, [fp, #-8]
80006f90:	e2833f8b 	add	r3, r3, #556	; 0x22c
80006f94:	e1a00003 	mov	r0, r3
80006f98:	ebfffab4 	bl	0x80005a70
80006f9c:	e1a02000 	mov	r2, r0
80006fa0:	e51b300c 	ldr	r3, [fp, #-12]
80006fa4:	e5832010 	str	r2, [r3, #16]
80006fa8:	e51b3008 	ldr	r3, [fp, #-8]
80006fac:	e2833f89 	add	r3, r3, #548	; 0x224
80006fb0:	e1a00003 	mov	r0, r3
80006fb4:	ebfffaad 	bl	0x80005a70
80006fb8:	e1a02000 	mov	r2, r0
80006fbc:	e51b300c 	ldr	r3, [fp, #-12]
80006fc0:	e5832014 	str	r2, [r3, #20]
80006fc4:	e51b3008 	ldr	r3, [fp, #-8]
80006fc8:	e2833f8a 	add	r3, r3, #552	; 0x228
80006fcc:	e1a00003 	mov	r0, r3
80006fd0:	ebfffaa6 	bl	0x80005a70
80006fd4:	e1a02000 	mov	r2, r0
80006fd8:	e51b300c 	ldr	r3, [fp, #-12]
80006fdc:	e583200c 	str	r2, [r3, #12]
80006fe0:	e320f000 	nop	{0}
80006fe4:	e24bd004 	sub	sp, fp, #4
80006fe8:	e8bd8800 	pop	{fp, pc}
80006fec:	e92d4800 	push	{fp, lr}
80006ff0:	e28db004 	add	fp, sp, #4
80006ff4:	e24dd008 	sub	sp, sp, #8
80006ff8:	e50b0008 	str	r0, [fp, #-8]
80006ffc:	e50b100c 	str	r1, [fp, #-12]
80007000:	e51b3008 	ldr	r3, [fp, #-8]
80007004:	e2832e11 	add	r2, r3, #272	; 0x110
80007008:	e51b300c 	ldr	r3, [fp, #-12]
8000700c:	e5933004 	ldr	r3, [r3, #4]
80007010:	e1a01003 	mov	r1, r3
80007014:	e1a00002 	mov	r0, r2
80007018:	ebfffaa0 	bl	0x80005aa0
8000701c:	e51b3008 	ldr	r3, [fp, #-8]
80007020:	e2832f8b 	add	r2, r3, #556	; 0x22c
80007024:	e51b300c 	ldr	r3, [fp, #-12]
80007028:	e5933010 	ldr	r3, [r3, #16]
8000702c:	e1a01003 	mov	r1, r3
80007030:	e1a00002 	mov	r0, r2
80007034:	ebfffa99 	bl	0x80005aa0
80007038:	e51b3008 	ldr	r3, [fp, #-8]
8000703c:	e2832d09 	add	r2, r3, #576	; 0x240
80007040:	e51b300c 	ldr	r3, [fp, #-12]
80007044:	e5933000 	ldr	r3, [r3]
80007048:	e1a01003 	mov	r1, r3
8000704c:	e1a00002 	mov	r0, r2
80007050:	ebfffa92 	bl	0x80005aa0
80007054:	e51b3008 	ldr	r3, [fp, #-8]
80007058:	e2832f4b 	add	r2, r3, #300	; 0x12c
8000705c:	e51b300c 	ldr	r3, [fp, #-12]
80007060:	e5933008 	ldr	r3, [r3, #8]
80007064:	e1a01003 	mov	r1, r3
80007068:	e1a00002 	mov	r0, r2
8000706c:	ebfffa8b 	bl	0x80005aa0
80007070:	e51b3008 	ldr	r3, [fp, #-8]
80007074:	e2832f8a 	add	r2, r3, #552	; 0x228
80007078:	e51b300c 	ldr	r3, [fp, #-12]
8000707c:	e593300c 	ldr	r3, [r3, #12]
80007080:	e1a01003 	mov	r1, r3
80007084:	e1a00002 	mov	r0, r2
80007088:	ebfffa84 	bl	0x80005aa0
8000708c:	e51b3008 	ldr	r3, [fp, #-8]
80007090:	e2832f89 	add	r2, r3, #548	; 0x224
80007094:	e51b300c 	ldr	r3, [fp, #-12]
80007098:	e5933014 	ldr	r3, [r3, #20]
8000709c:	e1a01003 	mov	r1, r3
800070a0:	e1a00002 	mov	r0, r2
800070a4:	ebfffa7d 	bl	0x80005aa0
800070a8:	e320f000 	nop	{0}
800070ac:	e24bd004 	sub	sp, fp, #4
800070b0:	e8bd8800 	pop	{fp, pc}
800070b4:	e52db004 	push	{fp}		; (str fp, [sp, #-4]!)
800070b8:	e28db000 	add	fp, sp, #0
800070bc:	e24dd00c 	sub	sp, sp, #12
800070c0:	e50b0008 	str	r0, [fp, #-8]
800070c4:	e51b3008 	ldr	r3, [fp, #-8]
800070c8:	e3530000 	cmp	r3, #0
800070cc:	1a000007 	bne	0x800070f0
800070d0:	e3a03e97 	mov	r3, #2416	; 0x970
800070d4:	e34434e1 	movt	r3, #17633	; 0x44e1
800070d8:	e3a02030 	mov	r2, #48	; 0x30
800070dc:	e5832000 	str	r2, [r3]
800070e0:	e3003974 	movw	r3, #2420	; 0x974
800070e4:	e34434e1 	movt	r3, #17633	; 0x44e1
800070e8:	e3a02010 	mov	r2, #16
800070ec:	e5832000 	str	r2, [r3]
800070f0:	e320f000 	nop	{0}
800070f4:	e28bd000 	add	sp, fp, #0
800070f8:	e49db004 	pop	{fp}		; (ldr fp, [sp], #4)
800070fc:	e12fff1e 	bx	lr
80007100:	e52db004 	push	{fp}		; (str fp, [sp, #-4]!)
80007104:	e28db000 	add	fp, sp, #0
80007108:	e3a030e0 	mov	r3, #224	; 0xe0
8000710c:	e34434e0 	movt	r3, #17632	; 0x44e0
80007110:	e3a020e0 	mov	r2, #224	; 0xe0
80007114:	e34424e0 	movt	r2, #17632	; 0x44e0
80007118:	e5922000 	ldr	r2, [r2]
8000711c:	e3822002 	orr	r2, r2, #2
80007120:	e5832000 	str	r2, [r3]
80007124:	e320f000 	nop	{0}
80007128:	e3a030e0 	mov	r3, #224	; 0xe0
8000712c:	e34434e0 	movt	r3, #17632	; 0x44e0
80007130:	e5933000 	ldr	r3, [r3]
80007134:	e2033003 	and	r3, r3, #3
80007138:	e3530002 	cmp	r3, #2
8000713c:	1afffff9 	bne	0x80007128
80007140:	e3a030dc 	mov	r3, #220	; 0xdc
80007144:	e34434e0 	movt	r3, #17632	; 0x44e0
80007148:	e3a020dc 	mov	r2, #220	; 0xdc
8000714c:	e34424e0 	movt	r2, #17632	; 0x44e0
80007150:	e5922000 	ldr	r2, [r2]
80007154:	e3822002 	orr	r2, r2, #2
80007158:	e5832000 	str	r2, [r3]
8000715c:	e320f000 	nop	{0}
80007160:	e3a030dc 	mov	r3, #220	; 0xdc
80007164:	e34434e0 	movt	r3, #17632	; 0x44e0
80007168:	e5933000 	ldr	r3, [r3]
8000716c:	e2033003 	and	r3, r3, #3
80007170:	e3530002 	cmp	r3, #2
80007174:	1afffff9 	bne	0x80007160
80007178:	e3a0300c 	mov	r3, #12
8000717c:	e34434e0 	movt	r3, #17632	; 0x44e0
80007180:	e3a0200c 	mov	r2, #12
80007184:	e34424e0 	movt	r2, #17632	; 0x44e0
80007188:	e5922000 	ldr	r2, [r2]
8000718c:	e3822002 	orr	r2, r2, #2
80007190:	e5832000 	str	r2, [r3]
80007194:	e320f000 	nop	{0}
80007198:	e3a0300c 	mov	r3, #12
8000719c:	e34434e0 	movt	r3, #17632	; 0x44e0
800071a0:	e5933000 	ldr	r3, [r3]
800071a4:	e2033003 	and	r3, r3, #3
800071a8:	e3530002 	cmp	r3, #2
800071ac:	1afffff9 	bne	0x80007198
800071b0:	e3a03f4b 	mov	r3, #300	; 0x12c
800071b4:	e34434e0 	movt	r3, #17632	; 0x44e0
800071b8:	e3a02f4b 	mov	r2, #300	; 0x12c
800071bc:	e34424e0 	movt	r2, #17632	; 0x44e0
800071c0:	e5922000 	ldr	r2, [r2]
800071c4:	e3822002 	orr	r2, r2, #2
800071c8:	e5832000 	str	r2, [r3]
800071cc:	e320f000 	nop	{0}
800071d0:	e3a03f4b 	mov	r3, #300	; 0x12c
800071d4:	e34434e0 	movt	r3, #17632	; 0x44e0
800071d8:	e5933000 	ldr	r3, [r3]
800071dc:	e2033003 	and	r3, r3, #3
800071e0:	e3530002 	cmp	r3, #2
800071e4:	1afffff9 	bne	0x800071d0
800071e8:	e3a03004 	mov	r3, #4
800071ec:	e34434e0 	movt	r3, #17632	; 0x44e0
800071f0:	e3a02004 	mov	r2, #4
800071f4:	e34424e0 	movt	r2, #17632	; 0x44e0
800071f8:	e5922000 	ldr	r2, [r2]
800071fc:	e3822002 	orr	r2, r2, #2
80007200:	e5832000 	str	r2, [r3]
80007204:	e320f000 	nop	{0}
80007208:	e3a03004 	mov	r3, #4
8000720c:	e34434e0 	movt	r3, #17632	; 0x44e0
80007210:	e5933000 	ldr	r3, [r3]
80007214:	e2033003 	and	r3, r3, #3
80007218:	e3530002 	cmp	r3, #2
8000721c:	1afffff9 	bne	0x80007208
80007220:	e320f000 	nop	{0}
80007224:	e3a030e0 	mov	r3, #224	; 0xe0
80007228:	e34434e0 	movt	r3, #17632	; 0x44e0
8000722c:	e5933000 	ldr	r3, [r3]
80007230:	e2033803 	and	r3, r3, #196608	; 0x30000
80007234:	e3530000 	cmp	r3, #0
80007238:	1afffff9 	bne	0x80007224
8000723c:	e320f000 	nop	{0}
80007240:	e3a030dc 	mov	r3, #220	; 0xdc
80007244:	e34434e0 	movt	r3, #17632	; 0x44e0
80007248:	e5933000 	ldr	r3, [r3]
8000724c:	e2033803 	and	r3, r3, #196608	; 0x30000
80007250:	e3530000 	cmp	r3, #0
80007254:	1afffff9 	bne	0x80007240
80007258:	e320f000 	nop	{0}
8000725c:	e3a0300c 	mov	r3, #12
80007260:	e34434e0 	movt	r3, #17632	; 0x44e0
80007264:	e5933000 	ldr	r3, [r3]
80007268:	e2033010 	and	r3, r3, #16
8000726c:	e3530010 	cmp	r3, #16
80007270:	1afffff9 	bne	0x8000725c
80007274:	e320f000 	nop	{0}
80007278:	e3a03f4b 	mov	r3, #300	; 0x12c
8000727c:	e34434e0 	movt	r3, #17632	; 0x44e0
80007280:	e5933000 	ldr	r3, [r3]
80007284:	e2033010 	and	r3, r3, #16
80007288:	e3530010 	cmp	r3, #16
8000728c:	1afffff9 	bne	0x80007278
80007290:	e320f000 	nop	{0}
80007294:	e3a03004 	mov	r3, #4
80007298:	e34434e0 	movt	r3, #17632	; 0x44e0
8000729c:	e5933000 	ldr	r3, [r3]
800072a0:	e2033008 	and	r3, r3, #8
800072a4:	e3530008 	cmp	r3, #8
800072a8:	1afffff9 	bne	0x80007294
800072ac:	e3003404 	movw	r3, #1028	; 0x404
800072b0:	e34434e0 	movt	r3, #17632	; 0x44e0
800072b4:	e3002404 	movw	r2, #1028	; 0x404
800072b8:	e34424e0 	movt	r2, #17632	; 0x44e0
800072bc:	e5922000 	ldr	r2, [r2]
800072c0:	e3822002 	orr	r2, r2, #2
800072c4:	e5832000 	str	r2, [r3]
800072c8:	e320f000 	nop	{0}
800072cc:	e3003404 	movw	r3, #1028	; 0x404
800072d0:	e34434e0 	movt	r3, #17632	; 0x44e0
800072d4:	e5933000 	ldr	r3, [r3]
800072d8:	e2033003 	and	r3, r3, #3
800072dc:	e3530002 	cmp	r3, #2
800072e0:	1afffff9 	bne	0x800072cc
800072e4:	e3a03b01 	mov	r3, #1024	; 0x400
800072e8:	e34434e0 	movt	r3, #17632	; 0x44e0
800072ec:	e3a02b01 	mov	r2, #1024	; 0x400
800072f0:	e34424e0 	movt	r2, #17632	; 0x44e0
800072f4:	e5922000 	ldr	r2, [r2]
800072f8:	e3822002 	orr	r2, r2, #2
800072fc:	e5832000 	str	r2, [r3]
80007300:	e320f000 	nop	{0}
80007304:	e3a03b01 	mov	r3, #1024	; 0x400
80007308:	e34434e0 	movt	r3, #17632	; 0x44e0
8000730c:	e5933000 	ldr	r3, [r3]
80007310:	e2033003 	and	r3, r3, #3
80007314:	e3530002 	cmp	r3, #2
80007318:	1afffff9 	bne	0x80007304
8000731c:	e3003418 	movw	r3, #1048	; 0x418
80007320:	e34434e0 	movt	r3, #17632	; 0x44e0
80007324:	e3002418 	movw	r2, #1048	; 0x418
80007328:	e34424e0 	movt	r2, #17632	; 0x44e0
8000732c:	e5922000 	ldr	r2, [r2]
80007330:	e3822002 	orr	r2, r2, #2
80007334:	e5832000 	str	r2, [r3]
80007338:	e320f000 	nop	{0}
8000733c:	e3003418 	movw	r3, #1048	; 0x418
80007340:	e34434e0 	movt	r3, #17632	; 0x44e0
80007344:	e5933000 	ldr	r3, [r3]
80007348:	e2033003 	and	r3, r3, #3
8000734c:	e3530002 	cmp	r3, #2
80007350:	1afffff9 	bne	0x8000733c
80007354:	e30034b4 	movw	r3, #1204	; 0x4b4
80007358:	e34434e0 	movt	r3, #17632	; 0x44e0
8000735c:	e30024b4 	movw	r2, #1204	; 0x4b4
80007360:	e34424e0 	movt	r2, #17632	; 0x44e0
80007364:	e5922000 	ldr	r2, [r2]
80007368:	e3822002 	orr	r2, r2, #2
8000736c:	e5832000 	str	r2, [r3]
80007370:	e320f000 	nop	{0}
80007374:	e30034b4 	movw	r3, #1204	; 0x4b4
80007378:	e34434e0 	movt	r3, #17632	; 0x44e0
8000737c:	e5933000 	ldr	r3, [r3]
80007380:	e2033003 	and	r3, r3, #3
80007384:	e3530002 	cmp	r3, #2
80007388:	1afffff9 	bne	0x80007374
8000738c:	e320f000 	nop	{0}
80007390:	e3003404 	movw	r3, #1028	; 0x404
80007394:	e34434e0 	movt	r3, #17632	; 0x44e0
80007398:	e5933000 	ldr	r3, [r3]
8000739c:	e2033803 	and	r3, r3, #196608	; 0x30000
800073a0:	e3530000 	cmp	r3, #0
800073a4:	1afffff9 	bne	0x80007390
800073a8:	e320f000 	nop	{0}
800073ac:	e3003418 	movw	r3, #1048	; 0x418
800073b0:	e34434e0 	movt	r3, #17632	; 0x44e0
800073b4:	e5933000 	ldr	r3, [r3]
800073b8:	e2033008 	and	r3, r3, #8
800073bc:	e3530008 	cmp	r3, #8
800073c0:	1afffff9 	bne	0x800073ac
800073c4:	e320f000 	nop	{0}
800073c8:	e300340c 	movw	r3, #1036	; 0x40c
800073cc:	e34434e0 	movt	r3, #17632	; 0x44e0
800073d0:	e5933000 	ldr	r3, [r3]
800073d4:	e2033803 	and	r3, r3, #196608	; 0x30000
800073d8:	e3530000 	cmp	r3, #0
800073dc:	1afffff9 	bne	0x800073c8
800073e0:	e320f000 	nop	{0}
800073e4:	e3a03b01 	mov	r3, #1024	; 0x400
800073e8:	e34434e0 	movt	r3, #17632	; 0x44e0
800073ec:	e5933000 	ldr	r3, [r3]
800073f0:	e2033004 	and	r3, r3, #4
800073f4:	e3530004 	cmp	r3, #4
800073f8:	1afffff9 	bne	0x800073e4
800073fc:	e320f000 	nop	{0}
80007400:	e30034cc 	movw	r3, #1228	; 0x4cc
80007404:	e34434e0 	movt	r3, #17632	; 0x44e0
80007408:	e5933000 	ldr	r3, [r3]
8000740c:	e2033004 	and	r3, r3, #4
80007410:	e3530004 	cmp	r3, #4
80007414:	1afffff9 	bne	0x80007400
80007418:	e320f000 	nop	{0}
8000741c:	e3a03b01 	mov	r3, #1024	; 0x400
80007420:	e34434e0 	movt	r3, #17632	; 0x44e0
80007424:	e5933000 	ldr	r3, [r3]
80007428:	e2033a01 	and	r3, r3, #4096	; 0x1000
8000742c:	e3530a01 	cmp	r3, #4096	; 0x1000
80007430:	1afffff9 	bne	0x8000741c
80007434:	e320f000 	nop	{0}
80007438:	e30034b4 	movw	r3, #1204	; 0x4b4
8000743c:	e34434e0 	movt	r3, #17632	; 0x44e0
80007440:	e5933000 	ldr	r3, [r3]
80007444:	e2033803 	and	r3, r3, #196608	; 0x30000
80007448:	e3530000 	cmp	r3, #0
8000744c:	1afffff9 	bne	0x80007438
80007450:	e320f000 	nop	{0}
80007454:	e28bd000 	add	sp, fp, #0
80007458:	e49db004 	pop	{fp}		; (ldr fp, [sp], #4)
8000745c:	e12fff1e 	bx	lr
80007460:	e52db004 	push	{fp}		; (str fp, [sp, #-4]!)
80007464:	e28db000 	add	fp, sp, #0
80007468:	e24dd014 	sub	sp, sp, #20
8000746c:	e50b0010 	str	r0, [fp, #-16]
80007470:	e50b1014 	str	r1, [fp, #-20]	; 0xffffffec
80007474:	e3a03000 	mov	r3, #0
80007478:	e50b3008 	str	r3, [fp, #-8]
8000747c:	e51b3010 	ldr	r3, [fp, #-16]
80007480:	e2833020 	add	r3, r3, #32
80007484:	e5933000 	ldr	r3, [r3]
80007488:	e2033007 	and	r3, r3, #7
8000748c:	e50b3008 	str	r3, [fp, #-8]
80007490:	e51b3010 	ldr	r3, [fp, #-16]
80007494:	e2833020 	add	r3, r3, #32
80007498:	e1a02003 	mov	r2, r3
8000749c:	e51b3010 	ldr	r3, [fp, #-16]
800074a0:	e2833020 	add	r3, r3, #32
800074a4:	e5933000 	ldr	r3, [r3]
800074a8:	e3c33007 	bic	r3, r3, #7
800074ac:	e5823000 	str	r3, [r2]
800074b0:	e51b3010 	ldr	r3, [fp, #-16]
800074b4:	e2833020 	add	r3, r3, #32
800074b8:	e1a01003 	mov	r1, r3
800074bc:	e51b3010 	ldr	r3, [fp, #-16]
800074c0:	e2833020 	add	r3, r3, #32
800074c4:	e5932000 	ldr	r2, [r3]
800074c8:	e51b3014 	ldr	r3, [fp, #-20]	; 0xffffffec
800074cc:	e2033007 	and	r3, r3, #7
800074d0:	e1823003 	orr	r3, r2, r3
800074d4:	e5813000 	str	r3, [r1]
800074d8:	e51b3008 	ldr	r3, [fp, #-8]
800074dc:	e1a00003 	mov	r0, r3
800074e0:	e28bd000 	add	sp, fp, #0
800074e4:	e49db004 	pop	{fp}		; (ldr fp, [sp], #4)
800074e8:	e12fff1e 	bx	lr
800074ec:	e92d4800 	push	{fp, lr}
800074f0:	e28db004 	add	fp, sp, #4
800074f4:	e24dd018 	sub	sp, sp, #24
800074f8:	e50b0010 	str	r0, [fp, #-16]
800074fc:	e50b1014 	str	r1, [fp, #-20]	; 0xffffffec
80007500:	e50b2018 	str	r2, [fp, #-24]	; 0xffffffe8
80007504:	e50b301c 	str	r3, [fp, #-28]	; 0xffffffe4
80007508:	e3a03000 	mov	r3, #0
8000750c:	e50b3008 	str	r3, [fp, #-8]
80007510:	e51b3018 	ldr	r3, [fp, #-24]	; 0xffffffe8
80007514:	e2033007 	and	r3, r3, #7
80007518:	e50b3018 	str	r3, [fp, #-24]	; 0xffffffe8
8000751c:	e51b3018 	ldr	r3, [fp, #-24]	; 0xffffffe8
80007520:	e3530005 	cmp	r3, #5
80007524:	979ff103 	ldrls	pc, [pc, r3, lsl #2]
80007528:	ea000022 	b	0x800075b8
8000752c:	80007544 	andhi	r7, r0, r4, asr #10
80007530:	80007544 	andhi	r7, r0, r4, asr #10
80007534:	800075b8 			; <UNDEFINED> instruction: 0x800075b8
80007538:	80007564 	andhi	r7, r0, r4, ror #10
8000753c:	80007588 	andhi	r7, r0, r8, lsl #11
80007540:	800075ac 	andhi	r7, r0, ip, lsr #11
80007544:	e51b3014 	ldr	r3, [fp, #-20]	; 0xffffffec
80007548:	e1a03203 	lsl	r3, r3, #4
8000754c:	e1a01003 	mov	r1, r3
80007550:	e51b0010 	ldr	r0, [fp, #-16]
80007554:	eb0011db 	bl	0x8000bcc8
80007558:	e1a03000 	mov	r3, r0
8000755c:	e50b3008 	str	r3, [fp, #-8]
80007560:	ea000015 	b	0x800075bc
80007564:	e51b3014 	ldr	r3, [fp, #-20]	; 0xffffffec
80007568:	e3a0200d 	mov	r2, #13
8000756c:	e0030392 	mul	r3, r2, r3
80007570:	e1a01003 	mov	r1, r3
80007574:	e51b0010 	ldr	r0, [fp, #-16]
80007578:	eb0011d2 	bl	0x8000bcc8
8000757c:	e1a03000 	mov	r3, r0
80007580:	e50b3008 	str	r3, [fp, #-8]
80007584:	ea00000c 	b	0x800075bc
80007588:	e51b301c 	ldr	r3, [fp, #-28]	; 0xffffffe4
8000758c:	e51b2014 	ldr	r2, [fp, #-20]	; 0xffffffec
80007590:	e0030392 	mul	r3, r2, r3
80007594:	e1a01003 	mov	r1, r3
80007598:	e51b0010 	ldr	r0, [fp, #-16]
8000759c:	eb0011c9 	bl	0x8000bcc8
800075a0:	e1a03000 	mov	r3, r0
800075a4:	e50b3008 	str	r3, [fp, #-8]
800075a8:	ea000003 	b	0x800075bc
800075ac:	e3a03000 	mov	r3, #0
800075b0:	e50b3008 	str	r3, [fp, #-8]
800075b4:	ea000000 	b	0x800075bc
800075b8:	e320f000 	nop	{0}
800075bc:	e51b3008 	ldr	r3, [fp, #-8]
800075c0:	e1a00003 	mov	r0, r3
800075c4:	e24bd004 	sub	sp, fp, #4
800075c8:	e8bd8800 	pop	{fp, pc}
800075cc:	e92d4800 	push	{fp, lr}
800075d0:	e28db004 	add	fp, sp, #4
800075d4:	e24dd020 	sub	sp, sp, #32
800075d8:	e50b0020 	str	r0, [fp, #-32]	; 0xffffffe0
800075dc:	e50b1024 	str	r1, [fp, #-36]	; 0xffffffdc
800075e0:	e3a03000 	mov	r3, #0
800075e4:	e50b300c 	str	r3, [fp, #-12]
800075e8:	e3a03000 	mov	r3, #0
800075ec:	e50b3010 	str	r3, [fp, #-16]
800075f0:	e3a03000 	mov	r3, #0
800075f4:	e50b3014 	str	r3, [fp, #-20]	; 0xffffffec
800075f8:	e3a03000 	mov	r3, #0
800075fc:	e50b3018 	str	r3, [fp, #-24]	; 0xffffffe8
80007600:	e3a03000 	mov	r3, #0
80007604:	e50b3008 	str	r3, [fp, #-8]
80007608:	e3a010bf 	mov	r1, #191	; 0xbf
8000760c:	e51b0020 	ldr	r0, [fp, #-32]	; 0xffffffe0
80007610:	eb00008a 	bl	0x80007840
80007614:	e1a03000 	mov	r3, r0
80007618:	e50b3014 	str	r3, [fp, #-20]	; 0xffffffec
8000761c:	e51b3020 	ldr	r3, [fp, #-32]	; 0xffffffe0
80007620:	e2833008 	add	r3, r3, #8
80007624:	e5933000 	ldr	r3, [r3]
80007628:	e2033010 	and	r3, r3, #16
8000762c:	e50b300c 	str	r3, [fp, #-12]
80007630:	e51b3020 	ldr	r3, [fp, #-32]	; 0xffffffe0
80007634:	e2833008 	add	r3, r3, #8
80007638:	e1a02003 	mov	r2, r3
8000763c:	e51b3020 	ldr	r3, [fp, #-32]	; 0xffffffe0
80007640:	e2833008 	add	r3, r3, #8
80007644:	e5933000 	ldr	r3, [r3]
80007648:	e3833010 	orr	r3, r3, #16
8000764c:	e5823000 	str	r3, [r2]
80007650:	e3a0107f 	mov	r1, #127	; 0x7f
80007654:	e51b0020 	ldr	r0, [fp, #-32]	; 0xffffffe0
80007658:	eb000078 	bl	0x80007840
8000765c:	e51b3020 	ldr	r3, [fp, #-32]	; 0xffffffe0
80007660:	e2833004 	add	r3, r3, #4
80007664:	e5933000 	ldr	r3, [r3]
80007668:	e2033010 	and	r3, r3, #16
8000766c:	e50b3010 	str	r3, [fp, #-16]
80007670:	e51b3020 	ldr	r3, [fp, #-32]	; 0xffffffe0
80007674:	e2833004 	add	r3, r3, #4
80007678:	e1a02003 	mov	r2, r3
8000767c:	e51b3020 	ldr	r3, [fp, #-32]	; 0xffffffe0
80007680:	e2833004 	add	r3, r3, #4
80007684:	e5933000 	ldr	r3, [r3]
80007688:	e3c33010 	bic	r3, r3, #16
8000768c:	e5823000 	str	r3, [r2]
80007690:	e3a010bf 	mov	r1, #191	; 0xbf
80007694:	e51b0020 	ldr	r0, [fp, #-32]	; 0xffffffe0
80007698:	eb000068 	bl	0x80007840
8000769c:	e51b3020 	ldr	r3, [fp, #-32]	; 0xffffffe0
800076a0:	e5933000 	ldr	r3, [r3]
800076a4:	e6ef3073 	uxtb	r3, r3
800076a8:	e50b3008 	str	r3, [fp, #-8]
800076ac:	e51b3020 	ldr	r3, [fp, #-32]	; 0xffffffe0
800076b0:	e2833004 	add	r3, r3, #4
800076b4:	e5933000 	ldr	r3, [r3]
800076b8:	e1a03403 	lsl	r3, r3, #8
800076bc:	e2033c3f 	and	r3, r3, #16128	; 0x3f00
800076c0:	e51b2008 	ldr	r2, [fp, #-8]
800076c4:	e1823003 	orr	r3, r2, r3
800076c8:	e50b3008 	str	r3, [fp, #-8]
800076cc:	e3a01007 	mov	r1, #7
800076d0:	e51b0020 	ldr	r0, [fp, #-32]	; 0xffffffe0
800076d4:	ebffff61 	bl	0x80007460
800076d8:	e1a03000 	mov	r3, r0
800076dc:	e50b3018 	str	r3, [fp, #-24]	; 0xffffffe8
800076e0:	e51b3020 	ldr	r3, [fp, #-32]	; 0xffffffe0
800076e4:	e51b2024 	ldr	r2, [fp, #-36]	; 0xffffffdc
800076e8:	e6ef2072 	uxtb	r2, r2
800076ec:	e5832000 	str	r2, [r3]
800076f0:	e51b3020 	ldr	r3, [fp, #-32]	; 0xffffffe0
800076f4:	e2833004 	add	r3, r3, #4
800076f8:	e1a02003 	mov	r2, r3
800076fc:	e51b3024 	ldr	r3, [fp, #-36]	; 0xffffffdc
80007700:	e1a03423 	lsr	r3, r3, #8
80007704:	e203303f 	and	r3, r3, #63	; 0x3f
80007708:	e5823000 	str	r3, [r2]
8000770c:	e51b3018 	ldr	r3, [fp, #-24]	; 0xffffffe8
80007710:	e1a01003 	mov	r1, r3
80007714:	e51b0020 	ldr	r0, [fp, #-32]	; 0xffffffe0
80007718:	ebffff50 	bl	0x80007460
8000771c:	e3a0107f 	mov	r1, #127	; 0x7f
80007720:	e51b0020 	ldr	r0, [fp, #-32]	; 0xffffffe0
80007724:	eb000045 	bl	0x80007840
80007728:	e51b3010 	ldr	r3, [fp, #-16]
8000772c:	e51b2020 	ldr	r2, [fp, #-32]	; 0xffffffe0
80007730:	e2822004 	add	r2, r2, #4
80007734:	e1a01002 	mov	r1, r2
80007738:	e51b2020 	ldr	r2, [fp, #-32]	; 0xffffffe0
8000773c:	e2822004 	add	r2, r2, #4
80007740:	e5922000 	ldr	r2, [r2]
80007744:	e1823003 	orr	r3, r2, r3
80007748:	e5813000 	str	r3, [r1]
8000774c:	e3a010bf 	mov	r1, #191	; 0xbf
80007750:	e51b0020 	ldr	r0, [fp, #-32]	; 0xffffffe0
80007754:	eb000039 	bl	0x80007840
80007758:	e51b3020 	ldr	r3, [fp, #-32]	; 0xffffffe0
8000775c:	e2833008 	add	r3, r3, #8
80007760:	e1a02003 	mov	r2, r3
80007764:	e51b3020 	ldr	r3, [fp, #-32]	; 0xffffffe0
80007768:	e2833008 	add	r3, r3, #8
8000776c:	e5933000 	ldr	r3, [r3]
80007770:	e3c33010 	bic	r3, r3, #16
80007774:	e5823000 	str	r3, [r2]
80007778:	e51b300c 	ldr	r3, [fp, #-12]
8000777c:	e51b2020 	ldr	r2, [fp, #-32]	; 0xffffffe0
80007780:	e2822008 	add	r2, r2, #8
80007784:	e1a01002 	mov	r1, r2
80007788:	e51b2020 	ldr	r2, [fp, #-32]	; 0xffffffe0
8000778c:	e2822008 	add	r2, r2, #8
80007790:	e5922000 	ldr	r2, [r2]
80007794:	e1823003 	orr	r3, r2, r3
80007798:	e5813000 	str	r3, [r1]
8000779c:	e51b3020 	ldr	r3, [fp, #-32]	; 0xffffffe0
800077a0:	e283300c 	add	r3, r3, #12
800077a4:	e1a02003 	mov	r2, r3
800077a8:	e51b3014 	ldr	r3, [fp, #-20]	; 0xffffffec
800077ac:	e5823000 	str	r3, [r2]
800077b0:	e51b3008 	ldr	r3, [fp, #-8]
800077b4:	e1a00003 	mov	r0, r3
800077b8:	e24bd004 	sub	sp, fp, #4
800077bc:	e8bd8800 	pop	{fp, pc}
800077c0:	e52db004 	push	{fp}		; (str fp, [sp, #-4]!)
800077c4:	e28db000 	add	fp, sp, #0
800077c8:	e24dd00c 	sub	sp, sp, #12
800077cc:	e50b0008 	str	r0, [fp, #-8]
800077d0:	e51b3008 	ldr	r3, [fp, #-8]
800077d4:	e283300c 	add	r3, r3, #12
800077d8:	e1a02003 	mov	r2, r3
800077dc:	e51b3008 	ldr	r3, [fp, #-8]
800077e0:	e283300c 	add	r3, r3, #12
800077e4:	e5933000 	ldr	r3, [r3]
800077e8:	e3833080 	orr	r3, r3, #128	; 0x80
800077ec:	e5823000 	str	r3, [r2]
800077f0:	e320f000 	nop	{0}
800077f4:	e28bd000 	add	sp, fp, #0
800077f8:	e49db004 	pop	{fp}		; (ldr fp, [sp], #4)
800077fc:	e12fff1e 	bx	lr
80007800:	e52db004 	push	{fp}		; (str fp, [sp, #-4]!)
80007804:	e28db000 	add	fp, sp, #0
80007808:	e24dd00c 	sub	sp, sp, #12
8000780c:	e50b0008 	str	r0, [fp, #-8]
80007810:	e51b3008 	ldr	r3, [fp, #-8]
80007814:	e283300c 	add	r3, r3, #12
80007818:	e1a02003 	mov	r2, r3
8000781c:	e51b3008 	ldr	r3, [fp, #-8]
80007820:	e283300c 	add	r3, r3, #12
80007824:	e5933000 	ldr	r3, [r3]
80007828:	e3c33080 	bic	r3, r3, #128	; 0x80
8000782c:	e5823000 	str	r3, [r2]
80007830:	e320f000 	nop	{0}
80007834:	e28bd000 	add	sp, fp, #0
80007838:	e49db004 	pop	{fp}		; (ldr fp, [sp], #4)
8000783c:	e12fff1e 	bx	lr
80007840:	e52db004 	push	{fp}		; (str fp, [sp, #-4]!)
80007844:	e28db000 	add	fp, sp, #0
80007848:	e24dd014 	sub	sp, sp, #20
8000784c:	e50b0010 	str	r0, [fp, #-16]
80007850:	e50b1014 	str	r1, [fp, #-20]	; 0xffffffec
80007854:	e3a03000 	mov	r3, #0
80007858:	e50b3008 	str	r3, [fp, #-8]
8000785c:	e51b3010 	ldr	r3, [fp, #-16]
80007860:	e283300c 	add	r3, r3, #12
80007864:	e5933000 	ldr	r3, [r3]
80007868:	e50b3008 	str	r3, [fp, #-8]
8000786c:	e51b3014 	ldr	r3, [fp, #-20]	; 0xffffffec
80007870:	e3530080 	cmp	r3, #128	; 0x80
80007874:	0a000004 	beq	0x8000788c
80007878:	e35300bf 	cmp	r3, #191	; 0xbf
8000787c:	0a000002 	beq	0x8000788c
80007880:	e353007f 	cmp	r3, #127	; 0x7f
80007884:	0a000007 	beq	0x800078a8
80007888:	ea00000f 	b	0x800078cc
8000788c:	e51b3010 	ldr	r3, [fp, #-16]
80007890:	e283300c 	add	r3, r3, #12
80007894:	e1a02003 	mov	r2, r3
80007898:	e51b3014 	ldr	r3, [fp, #-20]	; 0xffffffec
8000789c:	e6ef3073 	uxtb	r3, r3
800078a0:	e5823000 	str	r3, [r2]
800078a4:	ea000008 	b	0x800078cc
800078a8:	e51b3010 	ldr	r3, [fp, #-16]
800078ac:	e283300c 	add	r3, r3, #12
800078b0:	e1a02003 	mov	r2, r3
800078b4:	e51b3010 	ldr	r3, [fp, #-16]
800078b8:	e283300c 	add	r3, r3, #12
800078bc:	e5933000 	ldr	r3, [r3]
800078c0:	e203307f 	and	r3, r3, #127	; 0x7f
800078c4:	e5823000 	str	r3, [r2]
800078c8:	e320f000 	nop	{0}
800078cc:	e51b3008 	ldr	r3, [fp, #-8]
800078d0:	e1a00003 	mov	r0, r3
800078d4:	e28bd000 	add	sp, fp, #0
800078d8:	e49db004 	pop	{fp}		; (ldr fp, [sp], #4)
800078dc:	e12fff1e 	bx	lr
800078e0:	e52db004 	push	{fp}		; (str fp, [sp, #-4]!)
800078e4:	e28db000 	add	fp, sp, #0
800078e8:	e24dd00c 	sub	sp, sp, #12
800078ec:	e50b0008 	str	r0, [fp, #-8]
800078f0:	e50b100c 	str	r1, [fp, #-12]
800078f4:	e51b3008 	ldr	r3, [fp, #-8]
800078f8:	e283300c 	add	r3, r3, #12
800078fc:	e1a02003 	mov	r2, r3
80007900:	e51b300c 	ldr	r3, [fp, #-12]
80007904:	e5823000 	str	r3, [r2]
80007908:	e320f000 	nop	{0}
8000790c:	e28bd000 	add	sp, fp, #0
80007910:	e49db004 	pop	{fp}		; (ldr fp, [sp], #4)
80007914:	e12fff1e 	bx	lr
80007918:	e52db004 	push	{fp}		; (str fp, [sp, #-4]!)
8000791c:	e28db000 	add	fp, sp, #0
80007920:	e24dd00c 	sub	sp, sp, #12
80007924:	e50b0008 	str	r0, [fp, #-8]
80007928:	e50b100c 	str	r1, [fp, #-12]
8000792c:	e51b3008 	ldr	r3, [fp, #-8]
80007930:	e283300c 	add	r3, r3, #12
80007934:	e1a02003 	mov	r2, r3
80007938:	e51b3008 	ldr	r3, [fp, #-8]
8000793c:	e283300c 	add	r3, r3, #12
80007940:	e5933000 	ldr	r3, [r3]
80007944:	e3c33040 	bic	r3, r3, #64	; 0x40
80007948:	e5823000 	str	r3, [r2]
8000794c:	e51b3008 	ldr	r3, [fp, #-8]
80007950:	e283300c 	add	r3, r3, #12
80007954:	e1a01003 	mov	r1, r3
80007958:	e51b3008 	ldr	r3, [fp, #-8]
8000795c:	e283300c 	add	r3, r3, #12
80007960:	e5932000 	ldr	r2, [r3]
80007964:	e51b300c 	ldr	r3, [fp, #-12]
80007968:	e2033040 	and	r3, r3, #64	; 0x40
8000796c:	e1823003 	orr	r3, r2, r3
80007970:	e5813000 	str	r3, [r1]
80007974:	e320f000 	nop	{0}
80007978:	e28bd000 	add	sp, fp, #0
8000797c:	e49db004 	pop	{fp}		; (ldr fp, [sp], #4)
80007980:	e12fff1e 	bx	lr
80007984:	e52db004 	push	{fp}		; (str fp, [sp, #-4]!)
80007988:	e28db000 	add	fp, sp, #0
8000798c:	e24dd014 	sub	sp, sp, #20
80007990:	e50b0008 	str	r0, [fp, #-8]
80007994:	e50b100c 	str	r1, [fp, #-12]
80007998:	e50b2010 	str	r2, [fp, #-16]
8000799c:	e51b3008 	ldr	r3, [fp, #-8]
800079a0:	e283300c 	add	r3, r3, #12
800079a4:	e1a02003 	mov	r2, r3
800079a8:	e51b3008 	ldr	r3, [fp, #-8]
800079ac:	e283300c 	add	r3, r3, #12
800079b0:	e5933000 	ldr	r3, [r3]
800079b4:	e3c33007 	bic	r3, r3, #7
800079b8:	e5823000 	str	r3, [r2]
800079bc:	e51b3008 	ldr	r3, [fp, #-8]
800079c0:	e283300c 	add	r3, r3, #12
800079c4:	e1a01003 	mov	r1, r3
800079c8:	e51b3008 	ldr	r3, [fp, #-8]
800079cc:	e283300c 	add	r3, r3, #12
800079d0:	e5932000 	ldr	r2, [r3]
800079d4:	e51b300c 	ldr	r3, [fp, #-12]
800079d8:	e2033007 	and	r3, r3, #7
800079dc:	e1823003 	orr	r3, r2, r3
800079e0:	e5813000 	str	r3, [r1]
800079e4:	e51b3008 	ldr	r3, [fp, #-8]
800079e8:	e283300c 	add	r3, r3, #12
800079ec:	e1a02003 	mov	r2, r3
800079f0:	e51b3008 	ldr	r3, [fp, #-8]
800079f4:	e283300c 	add	r3, r3, #12
800079f8:	e5933000 	ldr	r3, [r3]
800079fc:	e3c33038 	bic	r3, r3, #56	; 0x38
80007a00:	e5823000 	str	r3, [r2]
80007a04:	e51b3008 	ldr	r3, [fp, #-8]
80007a08:	e283300c 	add	r3, r3, #12
80007a0c:	e1a01003 	mov	r1, r3
80007a10:	e51b3008 	ldr	r3, [fp, #-8]
80007a14:	e283300c 	add	r3, r3, #12
80007a18:	e5932000 	ldr	r2, [r3]
80007a1c:	e51b3010 	ldr	r3, [fp, #-16]
80007a20:	e2033038 	and	r3, r3, #56	; 0x38
80007a24:	e1823003 	orr	r3, r2, r3
80007a28:	e5813000 	str	r3, [r1]
80007a2c:	e320f000 	nop	{0}
80007a30:	e28bd000 	add	sp, fp, #0
80007a34:	e49db004 	pop	{fp}		; (ldr fp, [sp], #4)
80007a38:	e12fff1e 	bx	lr
80007a3c:	e52db004 	push	{fp}		; (str fp, [sp, #-4]!)
80007a40:	e28db000 	add	fp, sp, #0
80007a44:	e24dd00c 	sub	sp, sp, #12
80007a48:	e50b0008 	str	r0, [fp, #-8]
80007a4c:	e50b100c 	str	r1, [fp, #-12]
80007a50:	e51b3008 	ldr	r3, [fp, #-8]
80007a54:	e283300c 	add	r3, r3, #12
80007a58:	e1a02003 	mov	r2, r3
80007a5c:	e51b3008 	ldr	r3, [fp, #-8]
80007a60:	e283300c 	add	r3, r3, #12
80007a64:	e5933000 	ldr	r3, [r3]
80007a68:	e3c33038 	bic	r3, r3, #56	; 0x38
80007a6c:	e5823000 	str	r3, [r2]
80007a70:	e51b3008 	ldr	r3, [fp, #-8]
80007a74:	e283300c 	add	r3, r3, #12
80007a78:	e1a01003 	mov	r1, r3
80007a7c:	e51b3008 	ldr	r3, [fp, #-8]
80007a80:	e283300c 	add	r3, r3, #12
80007a84:	e5932000 	ldr	r2, [r3]
80007a88:	e51b300c 	ldr	r3, [fp, #-12]
80007a8c:	e2033038 	and	r3, r3, #56	; 0x38
80007a90:	e1823003 	orr	r3, r2, r3
80007a94:	e5813000 	str	r3, [r1]
80007a98:	e320f000 	nop	{0}
80007a9c:	e28bd000 	add	sp, fp, #0
80007aa0:	e49db004 	pop	{fp}		; (ldr fp, [sp], #4)
80007aa4:	e12fff1e 	bx	lr
80007aa8:	e52db004 	push	{fp}		; (str fp, [sp, #-4]!)
80007aac:	e28db000 	add	fp, sp, #0
80007ab0:	e24dd00c 	sub	sp, sp, #12
80007ab4:	e50b0008 	str	r0, [fp, #-8]
80007ab8:	e51b3008 	ldr	r3, [fp, #-8]
80007abc:	e283300c 	add	r3, r3, #12
80007ac0:	e5933000 	ldr	r3, [r3]
80007ac4:	e2033038 	and	r3, r3, #56	; 0x38
80007ac8:	e1a00003 	mov	r0, r3
80007acc:	e28bd000 	add	sp, fp, #0
80007ad0:	e49db004 	pop	{fp}		; (ldr fp, [sp], #4)
80007ad4:	e12fff1e 	bx	lr
80007ad8:	e92d4800 	push	{fp, lr}
80007adc:	e28db004 	add	fp, sp, #4
80007ae0:	e24dd038 	sub	sp, sp, #56	; 0x38
80007ae4:	e50b0038 	str	r0, [fp, #-56]	; 0xffffffc8
80007ae8:	e50b103c 	str	r1, [fp, #-60]	; 0xffffffc4
80007aec:	e51b303c 	ldr	r3, [fp, #-60]	; 0xffffffc4
80007af0:	e1a03d23 	lsr	r3, r3, #26
80007af4:	e203300f 	and	r3, r3, #15
80007af8:	e50b300c 	str	r3, [fp, #-12]
80007afc:	e51b303c 	ldr	r3, [fp, #-60]	; 0xffffffc4
80007b00:	e1a03b23 	lsr	r3, r3, #22
80007b04:	e203300f 	and	r3, r3, #15
80007b08:	e50b3010 	str	r3, [fp, #-16]
80007b0c:	e51b303c 	ldr	r3, [fp, #-60]	; 0xffffffc4
80007b10:	e1a03723 	lsr	r3, r3, #14
80007b14:	e6ef3073 	uxtb	r3, r3
80007b18:	e50b3014 	str	r3, [fp, #-20]	; 0xffffffec
80007b1c:	e51b303c 	ldr	r3, [fp, #-60]	; 0xffffffc4
80007b20:	e1a03323 	lsr	r3, r3, #6
80007b24:	e6ef3073 	uxtb	r3, r3
80007b28:	e50b3018 	str	r3, [fp, #-24]	; 0xffffffe8
80007b2c:	e51b303c 	ldr	r3, [fp, #-60]	; 0xffffffc4
80007b30:	e1a032a3 	lsr	r3, r3, #5
80007b34:	e2033001 	and	r3, r3, #1
80007b38:	e50b301c 	str	r3, [fp, #-28]	; 0xffffffe4
80007b3c:	e51b303c 	ldr	r3, [fp, #-60]	; 0xffffffc4
80007b40:	e1a03223 	lsr	r3, r3, #4
80007b44:	e2033001 	and	r3, r3, #1
80007b48:	e50b3020 	str	r3, [fp, #-32]	; 0xffffffe0
80007b4c:	e51b303c 	ldr	r3, [fp, #-60]	; 0xffffffc4
80007b50:	e1a031a3 	lsr	r3, r3, #3
80007b54:	e2033001 	and	r3, r3, #1
80007b58:	e50b3024 	str	r3, [fp, #-36]	; 0xffffffdc
80007b5c:	e51b303c 	ldr	r3, [fp, #-60]	; 0xffffffc4
80007b60:	e2033007 	and	r3, r3, #7
80007b64:	e50b3028 	str	r3, [fp, #-40]	; 0xffffffd8
80007b68:	e3a03000 	mov	r3, #0
80007b6c:	e50b302c 	str	r3, [fp, #-44]	; 0xffffffd4
80007b70:	e3a03000 	mov	r3, #0
80007b74:	e50b3030 	str	r3, [fp, #-48]	; 0xffffffd0
80007b78:	e3a03000 	mov	r3, #0
80007b7c:	e50b3034 	str	r3, [fp, #-52]	; 0xffffffcc
80007b80:	e3a03000 	mov	r3, #0
80007b84:	e50b3008 	str	r3, [fp, #-8]
80007b88:	e51b0038 	ldr	r0, [fp, #-56]	; 0xffffffc8
80007b8c:	eb00015a 	bl	0x800080fc
80007b90:	e50b002c 	str	r0, [fp, #-44]	; 0xffffffd4
80007b94:	e51b0038 	ldr	r0, [fp, #-56]	; 0xffffffc8
80007b98:	eb0001e6 	bl	0x80008338
80007b9c:	e50b0030 	str	r0, [fp, #-48]	; 0xffffffd0
80007ba0:	e51b3008 	ldr	r3, [fp, #-8]
80007ba4:	e3833001 	orr	r3, r3, #1
80007ba8:	e50b3008 	str	r3, [fp, #-8]
80007bac:	e51b3010 	ldr	r3, [fp, #-16]
80007bb0:	e3530001 	cmp	r3, #1
80007bb4:	0a000030 	beq	0x80007c7c
80007bb8:	e51b3038 	ldr	r3, [fp, #-56]	; 0xffffffc8
80007bbc:	e2833040 	add	r3, r3, #64	; 0x40
80007bc0:	e1a02003 	mov	r2, r3
80007bc4:	e51b3038 	ldr	r3, [fp, #-56]	; 0xffffffc8
80007bc8:	e2833040 	add	r3, r3, #64	; 0x40
80007bcc:	e5933000 	ldr	r3, [r3]
80007bd0:	e3c33080 	bic	r3, r3, #128	; 0x80
80007bd4:	e5823000 	str	r3, [r2]
80007bd8:	e51b3038 	ldr	r3, [fp, #-56]	; 0xffffffc8
80007bdc:	e283301c 	add	r3, r3, #28
80007be0:	e1a02003 	mov	r2, r3
80007be4:	e51b3038 	ldr	r3, [fp, #-56]	; 0xffffffc8
80007be8:	e283301c 	add	r3, r3, #28
80007bec:	e5933000 	ldr	r3, [r3]
80007bf0:	e3c330f0 	bic	r3, r3, #240	; 0xf0
80007bf4:	e5823000 	str	r3, [r2]
80007bf8:	e51b3008 	ldr	r3, [fp, #-8]
80007bfc:	e3c330c0 	bic	r3, r3, #192	; 0xc0
80007c00:	e50b3008 	str	r3, [fp, #-8]
80007c04:	e51b3018 	ldr	r3, [fp, #-24]	; 0xffffffe8
80007c08:	e3530000 	cmp	r3, #0
80007c0c:	0a000008 	beq	0x80007c34
80007c10:	e51b3018 	ldr	r3, [fp, #-24]	; 0xffffffe8
80007c14:	e3530040 	cmp	r3, #64	; 0x40
80007c18:	0a000005 	beq	0x80007c34
80007c1c:	e51b3018 	ldr	r3, [fp, #-24]	; 0xffffffe8
80007c20:	e3530080 	cmp	r3, #128	; 0x80
80007c24:	0a000002 	beq	0x80007c34
80007c28:	e51b3018 	ldr	r3, [fp, #-24]	; 0xffffffe8
80007c2c:	e35300c0 	cmp	r3, #192	; 0xc0
80007c30:	1a000005 	bne	0x80007c4c
80007c34:	e51b3018 	ldr	r3, [fp, #-24]	; 0xffffffe8
80007c38:	e20330c0 	and	r3, r3, #192	; 0xc0
80007c3c:	e51b2008 	ldr	r2, [fp, #-8]
80007c40:	e1823003 	orr	r3, r2, r3
80007c44:	e50b3008 	str	r3, [fp, #-8]
80007c48:	ea00002a 	b	0x80007cf8
80007c4c:	e51b3038 	ldr	r3, [fp, #-56]	; 0xffffffc8
80007c50:	e283301c 	add	r3, r3, #28
80007c54:	e1a01003 	mov	r1, r3
80007c58:	e51b3038 	ldr	r3, [fp, #-56]	; 0xffffffc8
80007c5c:	e283301c 	add	r3, r3, #28
80007c60:	e5932000 	ldr	r2, [r3]
80007c64:	e51b3018 	ldr	r3, [fp, #-24]	; 0xffffffe8
80007c68:	e1a03203 	lsl	r3, r3, #4
80007c6c:	e6ef3073 	uxtb	r3, r3
80007c70:	e1823003 	orr	r3, r2, r3
80007c74:	e5813000 	str	r3, [r1]
80007c78:	ea00001e 	b	0x80007cf8
80007c7c:	e51b3018 	ldr	r3, [fp, #-24]	; 0xffffffe8
80007c80:	e203303f 	and	r3, r3, #63	; 0x3f
80007c84:	e50b3018 	str	r3, [fp, #-24]	; 0xffffffe8
80007c88:	e51b3018 	ldr	r3, [fp, #-24]	; 0xffffffe8
80007c8c:	e1a03123 	lsr	r3, r3, #2
80007c90:	e203300f 	and	r3, r3, #15
80007c94:	e50b3034 	str	r3, [fp, #-52]	; 0xffffffcc
80007c98:	e51b3018 	ldr	r3, [fp, #-24]	; 0xffffffe8
80007c9c:	e1a03303 	lsl	r3, r3, #6
80007ca0:	e6ef3073 	uxtb	r3, r3
80007ca4:	e51b2008 	ldr	r2, [fp, #-8]
80007ca8:	e1823003 	orr	r3, r2, r3
80007cac:	e50b3008 	str	r3, [fp, #-8]
80007cb0:	e51b3038 	ldr	r3, [fp, #-56]	; 0xffffffc8
80007cb4:	e2833040 	add	r3, r3, #64	; 0x40
80007cb8:	e1a02003 	mov	r2, r3
80007cbc:	e51b3038 	ldr	r3, [fp, #-56]	; 0xffffffc8
80007cc0:	e2833040 	add	r3, r3, #64	; 0x40
80007cc4:	e5933000 	ldr	r3, [r3]
80007cc8:	e3833080 	orr	r3, r3, #128	; 0x80
80007ccc:	e5823000 	str	r3, [r2]
80007cd0:	e51b3038 	ldr	r3, [fp, #-56]	; 0xffffffc8
80007cd4:	e283301c 	add	r3, r3, #28
80007cd8:	e1a01003 	mov	r1, r3
80007cdc:	e51b3038 	ldr	r3, [fp, #-56]	; 0xffffffc8
80007ce0:	e283301c 	add	r3, r3, #28
80007ce4:	e5932000 	ldr	r2, [r3]
80007ce8:	e51b3034 	ldr	r3, [fp, #-52]	; 0xffffffcc
80007cec:	e1a03203 	lsl	r3, r3, #4
80007cf0:	e1823003 	orr	r3, r2, r3
80007cf4:	e5813000 	str	r3, [r1]
80007cf8:	e51b300c 	ldr	r3, [fp, #-12]
80007cfc:	e3530001 	cmp	r3, #1
80007d00:	0a00002f 	beq	0x80007dc4
80007d04:	e51b3038 	ldr	r3, [fp, #-56]	; 0xffffffc8
80007d08:	e2833040 	add	r3, r3, #64	; 0x40
80007d0c:	e1a02003 	mov	r2, r3
80007d10:	e51b3038 	ldr	r3, [fp, #-56]	; 0xffffffc8
80007d14:	e2833040 	add	r3, r3, #64	; 0x40
80007d18:	e5933000 	ldr	r3, [r3]
80007d1c:	e3c33040 	bic	r3, r3, #64	; 0x40
80007d20:	e5823000 	str	r3, [r2]
80007d24:	e51b3038 	ldr	r3, [fp, #-56]	; 0xffffffc8
80007d28:	e283301c 	add	r3, r3, #28
80007d2c:	e1a02003 	mov	r2, r3
80007d30:	e51b3038 	ldr	r3, [fp, #-56]	; 0xffffffc8
80007d34:	e283301c 	add	r3, r3, #28
80007d38:	e5933000 	ldr	r3, [r3]
80007d3c:	e3c3300f 	bic	r3, r3, #15
80007d40:	e5823000 	str	r3, [r2]
80007d44:	e51b3008 	ldr	r3, [fp, #-8]
80007d48:	e3c33030 	bic	r3, r3, #48	; 0x30
80007d4c:	e50b3008 	str	r3, [fp, #-8]
80007d50:	e51b3014 	ldr	r3, [fp, #-20]	; 0xffffffec
80007d54:	e3530000 	cmp	r3, #0
80007d58:	0a000008 	beq	0x80007d80
80007d5c:	e51b3014 	ldr	r3, [fp, #-20]	; 0xffffffec
80007d60:	e3530010 	cmp	r3, #16
80007d64:	0a000005 	beq	0x80007d80
80007d68:	e51b3014 	ldr	r3, [fp, #-20]	; 0xffffffec
80007d6c:	e3530020 	cmp	r3, #32
80007d70:	0a000002 	beq	0x80007d80
80007d74:	e51b3014 	ldr	r3, [fp, #-20]	; 0xffffffec
80007d78:	e3530030 	cmp	r3, #48	; 0x30
80007d7c:	1a000005 	bne	0x80007d98
80007d80:	e51b3014 	ldr	r3, [fp, #-20]	; 0xffffffec
80007d84:	e2033030 	and	r3, r3, #48	; 0x30
80007d88:	e51b2008 	ldr	r2, [fp, #-8]
80007d8c:	e1823003 	orr	r3, r2, r3
80007d90:	e50b3008 	str	r3, [fp, #-8]
80007d94:	ea000028 	b	0x80007e3c
80007d98:	e51b3038 	ldr	r3, [fp, #-56]	; 0xffffffc8
80007d9c:	e283301c 	add	r3, r3, #28
80007da0:	e1a01003 	mov	r1, r3
80007da4:	e51b3038 	ldr	r3, [fp, #-56]	; 0xffffffc8
80007da8:	e283301c 	add	r3, r3, #28
80007dac:	e5932000 	ldr	r2, [r3]
80007db0:	e51b3014 	ldr	r3, [fp, #-20]	; 0xffffffec
80007db4:	e203300f 	and	r3, r3, #15
80007db8:	e1823003 	orr	r3, r2, r3
80007dbc:	e5813000 	str	r3, [r1]
80007dc0:	ea00001d 	b	0x80007e3c
80007dc4:	e51b3014 	ldr	r3, [fp, #-20]	; 0xffffffec
80007dc8:	e203303f 	and	r3, r3, #63	; 0x3f
80007dcc:	e50b3014 	str	r3, [fp, #-20]	; 0xffffffec
80007dd0:	e51b3014 	ldr	r3, [fp, #-20]	; 0xffffffec
80007dd4:	e1a03123 	lsr	r3, r3, #2
80007dd8:	e203300f 	and	r3, r3, #15
80007ddc:	e50b3034 	str	r3, [fp, #-52]	; 0xffffffcc
80007de0:	e51b3014 	ldr	r3, [fp, #-20]	; 0xffffffec
80007de4:	e1a03203 	lsl	r3, r3, #4
80007de8:	e2033030 	and	r3, r3, #48	; 0x30
80007dec:	e51b2008 	ldr	r2, [fp, #-8]
80007df0:	e1823003 	orr	r3, r2, r3
80007df4:	e50b3008 	str	r3, [fp, #-8]
80007df8:	e51b3038 	ldr	r3, [fp, #-56]	; 0xffffffc8
80007dfc:	e2833040 	add	r3, r3, #64	; 0x40
80007e00:	e1a02003 	mov	r2, r3
80007e04:	e51b3038 	ldr	r3, [fp, #-56]	; 0xffffffc8
80007e08:	e2833040 	add	r3, r3, #64	; 0x40
80007e0c:	e5933000 	ldr	r3, [r3]
80007e10:	e3833040 	orr	r3, r3, #64	; 0x40
80007e14:	e5823000 	str	r3, [r2]
80007e18:	e51b3038 	ldr	r3, [fp, #-56]	; 0xffffffc8
80007e1c:	e283301c 	add	r3, r3, #28
80007e20:	e1a01003 	mov	r1, r3
80007e24:	e51b3038 	ldr	r3, [fp, #-56]	; 0xffffffc8
80007e28:	e283301c 	add	r3, r3, #28
80007e2c:	e5932000 	ldr	r2, [r3]
80007e30:	e51b3034 	ldr	r3, [fp, #-52]	; 0xffffffcc
80007e34:	e1823003 	orr	r3, r2, r3
80007e38:	e5813000 	str	r3, [r1]
80007e3c:	e51b3024 	ldr	r3, [fp, #-36]	; 0xffffffdc
80007e40:	e3530000 	cmp	r3, #0
80007e44:	1a000013 	bne	0x80007e98
80007e48:	e51b3038 	ldr	r3, [fp, #-56]	; 0xffffffc8
80007e4c:	e2833040 	add	r3, r3, #64	; 0x40
80007e50:	e1a02003 	mov	r2, r3
80007e54:	e51b3038 	ldr	r3, [fp, #-56]	; 0xffffffc8
80007e58:	e2833040 	add	r3, r3, #64	; 0x40
80007e5c:	e5933000 	ldr	r3, [r3]
80007e60:	e3c33001 	bic	r3, r3, #1
80007e64:	e5823000 	str	r3, [r2]
80007e68:	e51b3028 	ldr	r3, [fp, #-40]	; 0xffffffd8
80007e6c:	e2033001 	and	r3, r3, #1
80007e70:	e50b3028 	str	r3, [fp, #-40]	; 0xffffffd8
80007e74:	e51b3008 	ldr	r3, [fp, #-8]
80007e78:	e3c33008 	bic	r3, r3, #8
80007e7c:	e50b3008 	str	r3, [fp, #-8]
80007e80:	e51b3028 	ldr	r3, [fp, #-40]	; 0xffffffd8
80007e84:	e1a03183 	lsl	r3, r3, #3
80007e88:	e51b2008 	ldr	r2, [fp, #-8]
80007e8c:	e1823003 	orr	r3, r2, r3
80007e90:	e50b3008 	str	r3, [fp, #-8]
80007e94:	ea00001c 	b	0x80007f0c
80007e98:	e51b3028 	ldr	r3, [fp, #-40]	; 0xffffffd8
80007e9c:	e2033003 	and	r3, r3, #3
80007ea0:	e50b3028 	str	r3, [fp, #-40]	; 0xffffffd8
80007ea4:	e51b3038 	ldr	r3, [fp, #-56]	; 0xffffffc8
80007ea8:	e2833040 	add	r3, r3, #64	; 0x40
80007eac:	e1a02003 	mov	r2, r3
80007eb0:	e51b3038 	ldr	r3, [fp, #-56]	; 0xffffffc8
80007eb4:	e2833040 	add	r3, r3, #64	; 0x40
80007eb8:	e5933000 	ldr	r3, [r3]
80007ebc:	e3833001 	orr	r3, r3, #1
80007ec0:	e5823000 	str	r3, [r2]
80007ec4:	e51b3038 	ldr	r3, [fp, #-56]	; 0xffffffc8
80007ec8:	e2833040 	add	r3, r3, #64	; 0x40
80007ecc:	e1a02003 	mov	r2, r3
80007ed0:	e51b3038 	ldr	r3, [fp, #-56]	; 0xffffffc8
80007ed4:	e2833040 	add	r3, r3, #64	; 0x40
80007ed8:	e5933000 	ldr	r3, [r3]
80007edc:	e3c33006 	bic	r3, r3, #6
80007ee0:	e5823000 	str	r3, [r2]
80007ee4:	e51b3038 	ldr	r3, [fp, #-56]	; 0xffffffc8
80007ee8:	e2833040 	add	r3, r3, #64	; 0x40
80007eec:	e1a01003 	mov	r1, r3
80007ef0:	e51b3038 	ldr	r3, [fp, #-56]	; 0xffffffc8
80007ef4:	e2833040 	add	r3, r3, #64	; 0x40
80007ef8:	e5932000 	ldr	r2, [r3]
80007efc:	e51b3028 	ldr	r3, [fp, #-40]	; 0xffffffd8
80007f00:	e1a03083 	lsl	r3, r3, #1
80007f04:	e1823003 	orr	r3, r2, r3
80007f08:	e5813000 	str	r3, [r1]
80007f0c:	e51b3020 	ldr	r3, [fp, #-32]	; 0xffffffe0
80007f10:	e1a03083 	lsl	r3, r3, #1
80007f14:	e51b2008 	ldr	r2, [fp, #-8]
80007f18:	e1823003 	orr	r3, r2, r3
80007f1c:	e50b3008 	str	r3, [fp, #-8]
80007f20:	e51b301c 	ldr	r3, [fp, #-28]	; 0xffffffe4
80007f24:	e1a03103 	lsl	r3, r3, #2
80007f28:	e51b2008 	ldr	r2, [fp, #-8]
80007f2c:	e1823003 	orr	r3, r2, r3
80007f30:	e50b3008 	str	r3, [fp, #-8]
80007f34:	e51b1008 	ldr	r1, [fp, #-8]
80007f38:	e51b0038 	ldr	r0, [fp, #-56]	; 0xffffffc8
80007f3c:	eb000045 	bl	0x80008058
80007f40:	e51b1030 	ldr	r1, [fp, #-48]	; 0xffffffd0
80007f44:	e51b0038 	ldr	r0, [fp, #-56]	; 0xffffffc8
80007f48:	eb00018a 	bl	0x80008578
80007f4c:	e51b102c 	ldr	r1, [fp, #-44]	; 0xffffffd4
80007f50:	e51b0038 	ldr	r0, [fp, #-56]	; 0xffffffc8
80007f54:	eb00008a 	bl	0x80008184
80007f58:	e51b3008 	ldr	r3, [fp, #-8]
80007f5c:	e1a00003 	mov	r0, r3
80007f60:	e24bd004 	sub	sp, fp, #4
80007f64:	e8bd8800 	pop	{fp, pc}
80007f68:	e52db004 	push	{fp}		; (str fp, [sp, #-4]!)
80007f6c:	e28db000 	add	fp, sp, #0
80007f70:	e24dd00c 	sub	sp, sp, #12
80007f74:	e50b0008 	str	r0, [fp, #-8]
80007f78:	e50b100c 	str	r1, [fp, #-12]
80007f7c:	e51b3008 	ldr	r3, [fp, #-8]
80007f80:	e2833040 	add	r3, r3, #64	; 0x40
80007f84:	e1a02003 	mov	r2, r3
80007f88:	e51b3008 	ldr	r3, [fp, #-8]
80007f8c:	e2833040 	add	r3, r3, #64	; 0x40
80007f90:	e5933000 	ldr	r3, [r3]
80007f94:	e3833001 	orr	r3, r3, #1
80007f98:	e5823000 	str	r3, [r2]
80007f9c:	e51b3008 	ldr	r3, [fp, #-8]
80007fa0:	e2833040 	add	r3, r3, #64	; 0x40
80007fa4:	e1a02003 	mov	r2, r3
80007fa8:	e51b3008 	ldr	r3, [fp, #-8]
80007fac:	e2833040 	add	r3, r3, #64	; 0x40
80007fb0:	e5933000 	ldr	r3, [r3]
80007fb4:	e3c33006 	bic	r3, r3, #6
80007fb8:	e5823000 	str	r3, [r2]
80007fbc:	e51b3008 	ldr	r3, [fp, #-8]
80007fc0:	e2833040 	add	r3, r3, #64	; 0x40
80007fc4:	e1a01003 	mov	r1, r3
80007fc8:	e51b3008 	ldr	r3, [fp, #-8]
80007fcc:	e2833040 	add	r3, r3, #64	; 0x40
80007fd0:	e5932000 	ldr	r2, [r3]
80007fd4:	e51b300c 	ldr	r3, [fp, #-12]
80007fd8:	e1a03083 	lsl	r3, r3, #1
80007fdc:	e2033006 	and	r3, r3, #6
80007fe0:	e1823003 	orr	r3, r2, r3
80007fe4:	e5813000 	str	r3, [r1]
80007fe8:	e320f000 	nop	{0}
80007fec:	e28bd000 	add	sp, fp, #0
80007ff0:	e49db004 	pop	{fp}		; (ldr fp, [sp], #4)
80007ff4:	e12fff1e 	bx	lr
80007ff8:	e52db004 	push	{fp}		; (str fp, [sp, #-4]!)
80007ffc:	e28db000 	add	fp, sp, #0
80008000:	e24dd00c 	sub	sp, sp, #12
80008004:	e50b0008 	str	r0, [fp, #-8]
80008008:	e51b3008 	ldr	r3, [fp, #-8]
8000800c:	e2833040 	add	r3, r3, #64	; 0x40
80008010:	e1a02003 	mov	r2, r3
80008014:	e51b3008 	ldr	r3, [fp, #-8]
80008018:	e2833040 	add	r3, r3, #64	; 0x40
8000801c:	e5933000 	ldr	r3, [r3]
80008020:	e3833001 	orr	r3, r3, #1
80008024:	e5823000 	str	r3, [r2]
80008028:	e51b3008 	ldr	r3, [fp, #-8]
8000802c:	e2833040 	add	r3, r3, #64	; 0x40
80008030:	e1a02003 	mov	r2, r3
80008034:	e51b3008 	ldr	r3, [fp, #-8]
80008038:	e2833040 	add	r3, r3, #64	; 0x40
8000803c:	e5933000 	ldr	r3, [r3]
80008040:	e3c33006 	bic	r3, r3, #6
80008044:	e5823000 	str	r3, [r2]
80008048:	e320f000 	nop	{0}
8000804c:	e28bd000 	add	sp, fp, #0
80008050:	e49db004 	pop	{fp}		; (ldr fp, [sp], #4)
80008054:	e12fff1e 	bx	lr
80008058:	e92d4800 	push	{fp, lr}
8000805c:	e28db004 	add	fp, sp, #4
80008060:	e24dd018 	sub	sp, sp, #24
80008064:	e50b0018 	str	r0, [fp, #-24]	; 0xffffffe8
80008068:	e50b101c 	str	r1, [fp, #-28]	; 0xffffffe4
8000806c:	e3a03000 	mov	r3, #0
80008070:	e50b3008 	str	r3, [fp, #-8]
80008074:	e3a03000 	mov	r3, #0
80008078:	e50b300c 	str	r3, [fp, #-12]
8000807c:	e3a03000 	mov	r3, #0
80008080:	e50b3010 	str	r3, [fp, #-16]
80008084:	e3a01080 	mov	r1, #128	; 0x80
80008088:	e51b0018 	ldr	r0, [fp, #-24]	; 0xffffffe8
8000808c:	ebfffdeb 	bl	0x80007840
80008090:	e50b0010 	str	r0, [fp, #-16]
80008094:	e3a01000 	mov	r1, #0
80008098:	e51b0018 	ldr	r0, [fp, #-24]	; 0xffffffe8
8000809c:	ebfffd4a 	bl	0x800075cc
800080a0:	e50b0008 	str	r0, [fp, #-8]
800080a4:	e51b0018 	ldr	r0, [fp, #-24]	; 0xffffffe8
800080a8:	eb000013 	bl	0x800080fc
800080ac:	e50b000c 	str	r0, [fp, #-12]
800080b0:	e51b3018 	ldr	r3, [fp, #-24]	; 0xffffffe8
800080b4:	e2833008 	add	r3, r3, #8
800080b8:	e1a02003 	mov	r2, r3
800080bc:	e51b301c 	ldr	r3, [fp, #-28]	; 0xffffffe4
800080c0:	e5823000 	str	r3, [r2]
800080c4:	e51b100c 	ldr	r1, [fp, #-12]
800080c8:	e51b0018 	ldr	r0, [fp, #-24]	; 0xffffffe8
800080cc:	eb00002c 	bl	0x80008184
800080d0:	e51b1008 	ldr	r1, [fp, #-8]
800080d4:	e51b0018 	ldr	r0, [fp, #-24]	; 0xffffffe8
800080d8:	ebfffd3b 	bl	0x800075cc
800080dc:	e51b3018 	ldr	r3, [fp, #-24]	; 0xffffffe8
800080e0:	e283300c 	add	r3, r3, #12
800080e4:	e1a02003 	mov	r2, r3
800080e8:	e51b3010 	ldr	r3, [fp, #-16]
800080ec:	e5823000 	str	r3, [r2]
800080f0:	e320f000 	nop	{0}
800080f4:	e24bd004 	sub	sp, fp, #4
800080f8:	e8bd8800 	pop	{fp, pc}
800080fc:	e92d4800 	push	{fp, lr}
80008100:	e28db004 	add	fp, sp, #4
80008104:	e24dd010 	sub	sp, sp, #16
80008108:	e50b0010 	str	r0, [fp, #-16]
8000810c:	e3a03000 	mov	r3, #0
80008110:	e50b3008 	str	r3, [fp, #-8]
80008114:	e3a03000 	mov	r3, #0
80008118:	e50b300c 	str	r3, [fp, #-12]
8000811c:	e3a010bf 	mov	r1, #191	; 0xbf
80008120:	e51b0010 	ldr	r0, [fp, #-16]
80008124:	ebfffdc5 	bl	0x80007840
80008128:	e50b000c 	str	r0, [fp, #-12]
8000812c:	e51b3010 	ldr	r3, [fp, #-16]
80008130:	e2833008 	add	r3, r3, #8
80008134:	e5933000 	ldr	r3, [r3]
80008138:	e2033010 	and	r3, r3, #16
8000813c:	e50b3008 	str	r3, [fp, #-8]
80008140:	e51b3010 	ldr	r3, [fp, #-16]
80008144:	e2833008 	add	r3, r3, #8
80008148:	e1a02003 	mov	r2, r3
8000814c:	e51b3010 	ldr	r3, [fp, #-16]
80008150:	e2833008 	add	r3, r3, #8
80008154:	e5933000 	ldr	r3, [r3]
80008158:	e3833010 	orr	r3, r3, #16
8000815c:	e5823000 	str	r3, [r2]
80008160:	e51b3010 	ldr	r3, [fp, #-16]
80008164:	e283300c 	add	r3, r3, #12
80008168:	e1a02003 	mov	r2, r3
8000816c:	e51b300c 	ldr	r3, [fp, #-12]
80008170:	e5823000 	str	r3, [r2]
80008174:	e51b3008 	ldr	r3, [fp, #-8]
80008178:	e1a00003 	mov	r0, r3
8000817c:	e24bd004 	sub	sp, fp, #4
80008180:	e8bd8800 	pop	{fp, pc}
80008184:	e92d4800 	push	{fp, lr}
80008188:	e28db004 	add	fp, sp, #4
8000818c:	e24dd010 	sub	sp, sp, #16
80008190:	e50b0010 	str	r0, [fp, #-16]
80008194:	e50b1014 	str	r1, [fp, #-20]	; 0xffffffec
80008198:	e3a03000 	mov	r3, #0
8000819c:	e50b3008 	str	r3, [fp, #-8]
800081a0:	e3a010bf 	mov	r1, #191	; 0xbf
800081a4:	e51b0010 	ldr	r0, [fp, #-16]
800081a8:	ebfffda4 	bl	0x80007840
800081ac:	e50b0008 	str	r0, [fp, #-8]
800081b0:	e51b3010 	ldr	r3, [fp, #-16]
800081b4:	e2833008 	add	r3, r3, #8
800081b8:	e1a02003 	mov	r2, r3
800081bc:	e51b3010 	ldr	r3, [fp, #-16]
800081c0:	e2833008 	add	r3, r3, #8
800081c4:	e5933000 	ldr	r3, [r3]
800081c8:	e3c33010 	bic	r3, r3, #16
800081cc:	e5823000 	str	r3, [r2]
800081d0:	e51b3010 	ldr	r3, [fp, #-16]
800081d4:	e2833008 	add	r3, r3, #8
800081d8:	e1a01003 	mov	r1, r3
800081dc:	e51b3010 	ldr	r3, [fp, #-16]
800081e0:	e2833008 	add	r3, r3, #8
800081e4:	e5932000 	ldr	r2, [r3]
800081e8:	e51b3014 	ldr	r3, [fp, #-20]	; 0xffffffec
800081ec:	e2033010 	and	r3, r3, #16
800081f0:	e1823003 	orr	r3, r2, r3
800081f4:	e5813000 	str	r3, [r1]
800081f8:	e51b3010 	ldr	r3, [fp, #-16]
800081fc:	e283300c 	add	r3, r3, #12
80008200:	e1a02003 	mov	r2, r3
80008204:	e51b3008 	ldr	r3, [fp, #-8]
80008208:	e5823000 	str	r3, [r2]
8000820c:	e320f000 	nop	{0}
80008210:	e24bd004 	sub	sp, fp, #4
80008214:	e8bd8800 	pop	{fp, pc}
80008218:	e92d4800 	push	{fp, lr}
8000821c:	e28db004 	add	fp, sp, #4
80008220:	e24dd018 	sub	sp, sp, #24
80008224:	e50b0018 	str	r0, [fp, #-24]	; 0xffffffe8
80008228:	e3a03000 	mov	r3, #0
8000822c:	e50b3008 	str	r3, [fp, #-8]
80008230:	e3a03000 	mov	r3, #0
80008234:	e50b300c 	str	r3, [fp, #-12]
80008238:	e3a03000 	mov	r3, #0
8000823c:	e50b3010 	str	r3, [fp, #-16]
80008240:	e3a010bf 	mov	r1, #191	; 0xbf
80008244:	e51b0018 	ldr	r0, [fp, #-24]	; 0xffffffe8
80008248:	ebfffd7c 	bl	0x80007840
8000824c:	e50b0010 	str	r0, [fp, #-16]
80008250:	e51b3018 	ldr	r3, [fp, #-24]	; 0xffffffe8
80008254:	e2833008 	add	r3, r3, #8
80008258:	e5933000 	ldr	r3, [r3]
8000825c:	e2033010 	and	r3, r3, #16
80008260:	e50b3008 	str	r3, [fp, #-8]
80008264:	e51b3018 	ldr	r3, [fp, #-24]	; 0xffffffe8
80008268:	e2833008 	add	r3, r3, #8
8000826c:	e1a02003 	mov	r2, r3
80008270:	e51b3018 	ldr	r3, [fp, #-24]	; 0xffffffe8
80008274:	e2833008 	add	r3, r3, #8
80008278:	e5933000 	ldr	r3, [r3]
8000827c:	e3833010 	orr	r3, r3, #16
80008280:	e5823000 	str	r3, [r2]
80008284:	e3a01080 	mov	r1, #128	; 0x80
80008288:	e51b0018 	ldr	r0, [fp, #-24]	; 0xffffffe8
8000828c:	ebfffd6b 	bl	0x80007840
80008290:	e51b3018 	ldr	r3, [fp, #-24]	; 0xffffffe8
80008294:	e2833010 	add	r3, r3, #16
80008298:	e5933000 	ldr	r3, [r3]
8000829c:	e2033040 	and	r3, r3, #64	; 0x40
800082a0:	e50b300c 	str	r3, [fp, #-12]
800082a4:	e51b3018 	ldr	r3, [fp, #-24]	; 0xffffffe8
800082a8:	e2833010 	add	r3, r3, #16
800082ac:	e1a02003 	mov	r2, r3
800082b0:	e51b3018 	ldr	r3, [fp, #-24]	; 0xffffffe8
800082b4:	e2833010 	add	r3, r3, #16
800082b8:	e5933000 	ldr	r3, [r3]
800082bc:	e3c33040 	bic	r3, r3, #64	; 0x40
800082c0:	e5823000 	str	r3, [r2]
800082c4:	e3a010bf 	mov	r1, #191	; 0xbf
800082c8:	e51b0018 	ldr	r0, [fp, #-24]	; 0xffffffe8
800082cc:	ebfffd5b 	bl	0x80007840
800082d0:	e51b3018 	ldr	r3, [fp, #-24]	; 0xffffffe8
800082d4:	e2833008 	add	r3, r3, #8
800082d8:	e1a02003 	mov	r2, r3
800082dc:	e51b3018 	ldr	r3, [fp, #-24]	; 0xffffffe8
800082e0:	e2833008 	add	r3, r3, #8
800082e4:	e5933000 	ldr	r3, [r3]
800082e8:	e3c33010 	bic	r3, r3, #16
800082ec:	e5823000 	str	r3, [r2]
800082f0:	e51b3018 	ldr	r3, [fp, #-24]	; 0xffffffe8
800082f4:	e2833008 	add	r3, r3, #8
800082f8:	e1a01003 	mov	r1, r3
800082fc:	e51b3018 	ldr	r3, [fp, #-24]	; 0xffffffe8
80008300:	e2833008 	add	r3, r3, #8
80008304:	e5932000 	ldr	r2, [r3]
80008308:	e51b3008 	ldr	r3, [fp, #-8]
8000830c:	e1823003 	orr	r3, r2, r3
80008310:	e5813000 	str	r3, [r1]
80008314:	e51b3018 	ldr	r3, [fp, #-24]	; 0xffffffe8
80008318:	e283300c 	add	r3, r3, #12
8000831c:	e1a02003 	mov	r2, r3
80008320:	e51b3010 	ldr	r3, [fp, #-16]
80008324:	e5823000 	str	r3, [r2]
80008328:	e51b300c 	ldr	r3, [fp, #-12]
8000832c:	e1a00003 	mov	r0, r3
80008330:	e24bd004 	sub	sp, fp, #4
80008334:	e8bd8800 	pop	{fp, pc}
80008338:	e92d4800 	push	{fp, lr}
8000833c:	e28db004 	add	fp, sp, #4
80008340:	e24dd018 	sub	sp, sp, #24
80008344:	e50b0018 	str	r0, [fp, #-24]	; 0xffffffe8
80008348:	e3a03000 	mov	r3, #0
8000834c:	e50b3008 	str	r3, [fp, #-8]
80008350:	e3a03000 	mov	r3, #0
80008354:	e50b300c 	str	r3, [fp, #-12]
80008358:	e3a03000 	mov	r3, #0
8000835c:	e50b3010 	str	r3, [fp, #-16]
80008360:	e3a010bf 	mov	r1, #191	; 0xbf
80008364:	e51b0018 	ldr	r0, [fp, #-24]	; 0xffffffe8
80008368:	ebfffd34 	bl	0x80007840
8000836c:	e50b0010 	str	r0, [fp, #-16]
80008370:	e51b3018 	ldr	r3, [fp, #-24]	; 0xffffffe8
80008374:	e2833008 	add	r3, r3, #8
80008378:	e5933000 	ldr	r3, [r3]
8000837c:	e2033010 	and	r3, r3, #16
80008380:	e50b3008 	str	r3, [fp, #-8]
80008384:	e51b3018 	ldr	r3, [fp, #-24]	; 0xffffffe8
80008388:	e2833008 	add	r3, r3, #8
8000838c:	e1a02003 	mov	r2, r3
80008390:	e51b3018 	ldr	r3, [fp, #-24]	; 0xffffffe8
80008394:	e2833008 	add	r3, r3, #8
80008398:	e5933000 	ldr	r3, [r3]
8000839c:	e3833010 	orr	r3, r3, #16
800083a0:	e5823000 	str	r3, [r2]
800083a4:	e3a01080 	mov	r1, #128	; 0x80
800083a8:	e51b0018 	ldr	r0, [fp, #-24]	; 0xffffffe8
800083ac:	ebfffd23 	bl	0x80007840
800083b0:	e51b3018 	ldr	r3, [fp, #-24]	; 0xffffffe8
800083b4:	e2833010 	add	r3, r3, #16
800083b8:	e5933000 	ldr	r3, [r3]
800083bc:	e2033040 	and	r3, r3, #64	; 0x40
800083c0:	e50b300c 	str	r3, [fp, #-12]
800083c4:	e51b3018 	ldr	r3, [fp, #-24]	; 0xffffffe8
800083c8:	e2833010 	add	r3, r3, #16
800083cc:	e1a02003 	mov	r2, r3
800083d0:	e51b3018 	ldr	r3, [fp, #-24]	; 0xffffffe8
800083d4:	e2833010 	add	r3, r3, #16
800083d8:	e5933000 	ldr	r3, [r3]
800083dc:	e3833040 	orr	r3, r3, #64	; 0x40
800083e0:	e5823000 	str	r3, [r2]
800083e4:	e3a010bf 	mov	r1, #191	; 0xbf
800083e8:	e51b0018 	ldr	r0, [fp, #-24]	; 0xffffffe8
800083ec:	ebfffd13 	bl	0x80007840
800083f0:	e51b3018 	ldr	r3, [fp, #-24]	; 0xffffffe8
800083f4:	e2833008 	add	r3, r3, #8
800083f8:	e1a02003 	mov	r2, r3
800083fc:	e51b3018 	ldr	r3, [fp, #-24]	; 0xffffffe8
80008400:	e2833008 	add	r3, r3, #8
80008404:	e5933000 	ldr	r3, [r3]
80008408:	e3c33010 	bic	r3, r3, #16
8000840c:	e5823000 	str	r3, [r2]
80008410:	e51b3018 	ldr	r3, [fp, #-24]	; 0xffffffe8
80008414:	e2833008 	add	r3, r3, #8
80008418:	e1a01003 	mov	r1, r3
8000841c:	e51b3018 	ldr	r3, [fp, #-24]	; 0xffffffe8
80008420:	e2833008 	add	r3, r3, #8
80008424:	e5932000 	ldr	r2, [r3]
80008428:	e51b3008 	ldr	r3, [fp, #-8]
8000842c:	e1823003 	orr	r3, r2, r3
80008430:	e5813000 	str	r3, [r1]
80008434:	e51b3018 	ldr	r3, [fp, #-24]	; 0xffffffe8
80008438:	e283300c 	add	r3, r3, #12
8000843c:	e1a02003 	mov	r2, r3
80008440:	e51b3010 	ldr	r3, [fp, #-16]
80008444:	e5823000 	str	r3, [r2]
80008448:	e51b300c 	ldr	r3, [fp, #-12]
8000844c:	e1a00003 	mov	r0, r3
80008450:	e24bd004 	sub	sp, fp, #4
80008454:	e8bd8800 	pop	{fp, pc}
80008458:	e92d4800 	push	{fp, lr}
8000845c:	e28db004 	add	fp, sp, #4
80008460:	e24dd018 	sub	sp, sp, #24
80008464:	e50b0018 	str	r0, [fp, #-24]	; 0xffffffe8
80008468:	e3a03000 	mov	r3, #0
8000846c:	e50b3008 	str	r3, [fp, #-8]
80008470:	e3a03000 	mov	r3, #0
80008474:	e50b300c 	str	r3, [fp, #-12]
80008478:	e3a03000 	mov	r3, #0
8000847c:	e50b3010 	str	r3, [fp, #-16]
80008480:	e3a010bf 	mov	r1, #191	; 0xbf
80008484:	e51b0018 	ldr	r0, [fp, #-24]	; 0xffffffe8
80008488:	ebfffcec 	bl	0x80007840
8000848c:	e50b0010 	str	r0, [fp, #-16]
80008490:	e51b3018 	ldr	r3, [fp, #-24]	; 0xffffffe8
80008494:	e2833008 	add	r3, r3, #8
80008498:	e5933000 	ldr	r3, [r3]
8000849c:	e2033010 	and	r3, r3, #16
800084a0:	e50b3008 	str	r3, [fp, #-8]
800084a4:	e51b3018 	ldr	r3, [fp, #-24]	; 0xffffffe8
800084a8:	e2833008 	add	r3, r3, #8
800084ac:	e1a02003 	mov	r2, r3
800084b0:	e51b3018 	ldr	r3, [fp, #-24]	; 0xffffffe8
800084b4:	e2833008 	add	r3, r3, #8
800084b8:	e5933000 	ldr	r3, [r3]
800084bc:	e3833010 	orr	r3, r3, #16
800084c0:	e5823000 	str	r3, [r2]
800084c4:	e3a01080 	mov	r1, #128	; 0x80
800084c8:	e51b0018 	ldr	r0, [fp, #-24]	; 0xffffffe8
800084cc:	ebfffcdb 	bl	0x80007840
800084d0:	e51b3018 	ldr	r3, [fp, #-24]	; 0xffffffe8
800084d4:	e2833010 	add	r3, r3, #16
800084d8:	e5933000 	ldr	r3, [r3]
800084dc:	e2033040 	and	r3, r3, #64	; 0x40
800084e0:	e50b300c 	str	r3, [fp, #-12]
800084e4:	e51b3018 	ldr	r3, [fp, #-24]	; 0xffffffe8
800084e8:	e2833010 	add	r3, r3, #16
800084ec:	e1a02003 	mov	r2, r3
800084f0:	e51b3018 	ldr	r3, [fp, #-24]	; 0xffffffe8
800084f4:	e2833010 	add	r3, r3, #16
800084f8:	e5933000 	ldr	r3, [r3]
800084fc:	e3c33040 	bic	r3, r3, #64	; 0x40
80008500:	e5823000 	str	r3, [r2]
80008504:	e3a010bf 	mov	r1, #191	; 0xbf
80008508:	e51b0018 	ldr	r0, [fp, #-24]	; 0xffffffe8
8000850c:	ebfffccb 	bl	0x80007840
80008510:	e51b3018 	ldr	r3, [fp, #-24]	; 0xffffffe8
80008514:	e2833008 	add	r3, r3, #8
80008518:	e1a02003 	mov	r2, r3
8000851c:	e51b3018 	ldr	r3, [fp, #-24]	; 0xffffffe8
80008520:	e2833008 	add	r3, r3, #8
80008524:	e5933000 	ldr	r3, [r3]
80008528:	e3c33010 	bic	r3, r3, #16
8000852c:	e5823000 	str	r3, [r2]
80008530:	e51b3018 	ldr	r3, [fp, #-24]	; 0xffffffe8
80008534:	e2833008 	add	r3, r3, #8
80008538:	e1a01003 	mov	r1, r3
8000853c:	e51b3018 	ldr	r3, [fp, #-24]	; 0xffffffe8
80008540:	e2833008 	add	r3, r3, #8
80008544:	e5932000 	ldr	r2, [r3]
80008548:	e51b3008 	ldr	r3, [fp, #-8]
8000854c:	e1823003 	orr	r3, r2, r3
80008550:	e5813000 	str	r3, [r1]
80008554:	e51b3018 	ldr	r3, [fp, #-24]	; 0xffffffe8
80008558:	e283300c 	add	r3, r3, #12
8000855c:	e1a02003 	mov	r2, r3
80008560:	e51b3010 	ldr	r3, [fp, #-16]
80008564:	e5823000 	str	r3, [r2]
80008568:	e51b300c 	ldr	r3, [fp, #-12]
8000856c:	e1a00003 	mov	r0, r3
80008570:	e24bd004 	sub	sp, fp, #4
80008574:	e8bd8800 	pop	{fp, pc}
80008578:	e92d4800 	push	{fp, lr}
8000857c:	e28db004 	add	fp, sp, #4
80008580:	e24dd010 	sub	sp, sp, #16
80008584:	e50b0010 	str	r0, [fp, #-16]
80008588:	e50b1014 	str	r1, [fp, #-20]	; 0xffffffec
8000858c:	e3a03000 	mov	r3, #0
80008590:	e50b3008 	str	r3, [fp, #-8]
80008594:	e3a03000 	mov	r3, #0
80008598:	e50b300c 	str	r3, [fp, #-12]
8000859c:	e3a010bf 	mov	r1, #191	; 0xbf
800085a0:	e51b0010 	ldr	r0, [fp, #-16]
800085a4:	ebfffca5 	bl	0x80007840
800085a8:	e50b000c 	str	r0, [fp, #-12]
800085ac:	e51b3010 	ldr	r3, [fp, #-16]
800085b0:	e2833008 	add	r3, r3, #8
800085b4:	e5933000 	ldr	r3, [r3]
800085b8:	e2033010 	and	r3, r3, #16
800085bc:	e50b3008 	str	r3, [fp, #-8]
800085c0:	e51b3010 	ldr	r3, [fp, #-16]
800085c4:	e2833008 	add	r3, r3, #8
800085c8:	e1a02003 	mov	r2, r3
800085cc:	e51b3010 	ldr	r3, [fp, #-16]
800085d0:	e2833008 	add	r3, r3, #8
800085d4:	e5933000 	ldr	r3, [r3]
800085d8:	e3833010 	orr	r3, r3, #16
800085dc:	e5823000 	str	r3, [r2]
800085e0:	e3a01080 	mov	r1, #128	; 0x80
800085e4:	e51b0010 	ldr	r0, [fp, #-16]
800085e8:	ebfffc94 	bl	0x80007840
800085ec:	e51b3010 	ldr	r3, [fp, #-16]
800085f0:	e2833010 	add	r3, r3, #16
800085f4:	e1a02003 	mov	r2, r3
800085f8:	e51b3010 	ldr	r3, [fp, #-16]
800085fc:	e2833010 	add	r3, r3, #16
80008600:	e5933000 	ldr	r3, [r3]
80008604:	e3c33040 	bic	r3, r3, #64	; 0x40
80008608:	e5823000 	str	r3, [r2]
8000860c:	e51b3010 	ldr	r3, [fp, #-16]
80008610:	e2833010 	add	r3, r3, #16
80008614:	e1a01003 	mov	r1, r3
80008618:	e51b3010 	ldr	r3, [fp, #-16]
8000861c:	e2833010 	add	r3, r3, #16
80008620:	e5932000 	ldr	r2, [r3]
80008624:	e51b3014 	ldr	r3, [fp, #-20]	; 0xffffffec
80008628:	e2033040 	and	r3, r3, #64	; 0x40
8000862c:	e1823003 	orr	r3, r2, r3
80008630:	e5813000 	str	r3, [r1]
80008634:	e3a010bf 	mov	r1, #191	; 0xbf
80008638:	e51b0010 	ldr	r0, [fp, #-16]
8000863c:	ebfffc7f 	bl	0x80007840
80008640:	e51b3010 	ldr	r3, [fp, #-16]
80008644:	e2833008 	add	r3, r3, #8
80008648:	e1a02003 	mov	r2, r3
8000864c:	e51b3010 	ldr	r3, [fp, #-16]
80008650:	e2833008 	add	r3, r3, #8
80008654:	e5933000 	ldr	r3, [r3]
80008658:	e3c33010 	bic	r3, r3, #16
8000865c:	e5823000 	str	r3, [r2]
80008660:	e51b3010 	ldr	r3, [fp, #-16]
80008664:	e2833008 	add	r3, r3, #8
80008668:	e1a01003 	mov	r1, r3
8000866c:	e51b3010 	ldr	r3, [fp, #-16]
80008670:	e2833008 	add	r3, r3, #8
80008674:	e5932000 	ldr	r2, [r3]
80008678:	e51b3008 	ldr	r3, [fp, #-8]
8000867c:	e1823003 	orr	r3, r2, r3
80008680:	e5813000 	str	r3, [r1]
80008684:	e51b3010 	ldr	r3, [fp, #-16]
80008688:	e283300c 	add	r3, r3, #12
8000868c:	e1a02003 	mov	r2, r3
80008690:	e51b300c 	ldr	r3, [fp, #-12]
80008694:	e5823000 	str	r3, [r2]
80008698:	e320f000 	nop	{0}
8000869c:	e24bd004 	sub	sp, fp, #4
800086a0:	e8bd8800 	pop	{fp, pc}
800086a4:	e92d4800 	push	{fp, lr}
800086a8:	e28db004 	add	fp, sp, #4
800086ac:	e24dd010 	sub	sp, sp, #16
800086b0:	e50b0010 	str	r0, [fp, #-16]
800086b4:	e50b1014 	str	r1, [fp, #-20]	; 0xffffffec
800086b8:	e3a03000 	mov	r3, #0
800086bc:	e50b3008 	str	r3, [fp, #-8]
800086c0:	e3a03000 	mov	r3, #0
800086c4:	e50b300c 	str	r3, [fp, #-12]
800086c8:	e3a010bf 	mov	r1, #191	; 0xbf
800086cc:	e51b0010 	ldr	r0, [fp, #-16]
800086d0:	ebfffc5a 	bl	0x80007840
800086d4:	e50b000c 	str	r0, [fp, #-12]
800086d8:	e51b3010 	ldr	r3, [fp, #-16]
800086dc:	e2833008 	add	r3, r3, #8
800086e0:	e5933000 	ldr	r3, [r3]
800086e4:	e2033010 	and	r3, r3, #16
800086e8:	e50b3008 	str	r3, [fp, #-8]
800086ec:	e51b3010 	ldr	r3, [fp, #-16]
800086f0:	e2833008 	add	r3, r3, #8
800086f4:	e1a02003 	mov	r2, r3
800086f8:	e51b3010 	ldr	r3, [fp, #-16]
800086fc:	e2833008 	add	r3, r3, #8
80008700:	e5933000 	ldr	r3, [r3]
80008704:	e3833010 	orr	r3, r3, #16
80008708:	e5823000 	str	r3, [r2]
8000870c:	e3a0107f 	mov	r1, #127	; 0x7f
80008710:	e51b0010 	ldr	r0, [fp, #-16]
80008714:	ebfffc49 	bl	0x80007840
80008718:	e51b3010 	ldr	r3, [fp, #-16]
8000871c:	e2833004 	add	r3, r3, #4
80008720:	e1a01003 	mov	r1, r3
80008724:	e51b3010 	ldr	r3, [fp, #-16]
80008728:	e2833004 	add	r3, r3, #4
8000872c:	e5932000 	ldr	r2, [r3]
80008730:	e51b3014 	ldr	r3, [fp, #-20]	; 0xffffffec
80008734:	e20330f0 	and	r3, r3, #240	; 0xf0
80008738:	e1823003 	orr	r3, r2, r3
8000873c:	e5813000 	str	r3, [r1]
80008740:	e3a010bf 	mov	r1, #191	; 0xbf
80008744:	e51b0010 	ldr	r0, [fp, #-16]
80008748:	ebfffc3c 	bl	0x80007840
8000874c:	e51b3010 	ldr	r3, [fp, #-16]
80008750:	e2833008 	add	r3, r3, #8
80008754:	e1a02003 	mov	r2, r3
80008758:	e51b3010 	ldr	r3, [fp, #-16]
8000875c:	e2833008 	add	r3, r3, #8
80008760:	e5933000 	ldr	r3, [r3]
80008764:	e3c33010 	bic	r3, r3, #16
80008768:	e5823000 	str	r3, [r2]
8000876c:	e51b3010 	ldr	r3, [fp, #-16]
80008770:	e2833008 	add	r3, r3, #8
80008774:	e1a01003 	mov	r1, r3
80008778:	e51b3010 	ldr	r3, [fp, #-16]
8000877c:	e2833008 	add	r3, r3, #8
80008780:	e5932000 	ldr	r2, [r3]
80008784:	e51b3008 	ldr	r3, [fp, #-8]
80008788:	e1823003 	orr	r3, r2, r3
8000878c:	e5813000 	str	r3, [r1]
80008790:	e51b3010 	ldr	r3, [fp, #-16]
80008794:	e283300c 	add	r3, r3, #12
80008798:	e1a02003 	mov	r2, r3
8000879c:	e51b300c 	ldr	r3, [fp, #-12]
800087a0:	e5823000 	str	r3, [r2]
800087a4:	e51b3010 	ldr	r3, [fp, #-16]
800087a8:	e2833004 	add	r3, r3, #4
800087ac:	e1a01003 	mov	r1, r3
800087b0:	e51b3010 	ldr	r3, [fp, #-16]
800087b4:	e2833004 	add	r3, r3, #4
800087b8:	e5932000 	ldr	r2, [r3]
800087bc:	e51b3014 	ldr	r3, [fp, #-20]	; 0xffffffec
800087c0:	e203300f 	and	r3, r3, #15
800087c4:	e1823003 	orr	r3, r2, r3
800087c8:	e5813000 	str	r3, [r1]
800087cc:	e320f000 	nop	{0}
800087d0:	e24bd004 	sub	sp, fp, #4
800087d4:	e8bd8800 	pop	{fp, pc}
800087d8:	e92d4800 	push	{fp, lr}
800087dc:	e28db004 	add	fp, sp, #4
800087e0:	e24dd010 	sub	sp, sp, #16
800087e4:	e50b0010 	str	r0, [fp, #-16]
800087e8:	e50b1014 	str	r1, [fp, #-20]	; 0xffffffec
800087ec:	e3a03000 	mov	r3, #0
800087f0:	e50b3008 	str	r3, [fp, #-8]
800087f4:	e3a03000 	mov	r3, #0
800087f8:	e50b300c 	str	r3, [fp, #-12]
800087fc:	e3a010bf 	mov	r1, #191	; 0xbf
80008800:	e51b0010 	ldr	r0, [fp, #-16]
80008804:	ebfffc0d 	bl	0x80007840
80008808:	e50b000c 	str	r0, [fp, #-12]
8000880c:	e51b3010 	ldr	r3, [fp, #-16]
80008810:	e2833008 	add	r3, r3, #8
80008814:	e5933000 	ldr	r3, [r3]
80008818:	e2033010 	and	r3, r3, #16
8000881c:	e50b3008 	str	r3, [fp, #-8]
80008820:	e51b3010 	ldr	r3, [fp, #-16]
80008824:	e2833008 	add	r3, r3, #8
80008828:	e1a02003 	mov	r2, r3
8000882c:	e51b3010 	ldr	r3, [fp, #-16]
80008830:	e2833008 	add	r3, r3, #8
80008834:	e5933000 	ldr	r3, [r3]
80008838:	e3833010 	orr	r3, r3, #16
8000883c:	e5823000 	str	r3, [r2]
80008840:	e3a0107f 	mov	r1, #127	; 0x7f
80008844:	e51b0010 	ldr	r0, [fp, #-16]
80008848:	ebfffbfc 	bl	0x80007840
8000884c:	e51b3010 	ldr	r3, [fp, #-16]
80008850:	e2833004 	add	r3, r3, #4
80008854:	e1a01003 	mov	r1, r3
80008858:	e51b3010 	ldr	r3, [fp, #-16]
8000885c:	e2833004 	add	r3, r3, #4
80008860:	e5932000 	ldr	r2, [r3]
80008864:	e51b3014 	ldr	r3, [fp, #-20]	; 0xffffffec
80008868:	e6ef3073 	uxtb	r3, r3
8000886c:	e1e03003 	mvn	r3, r3
80008870:	e0033002 	and	r3, r3, r2
80008874:	e5813000 	str	r3, [r1]
80008878:	e3a010bf 	mov	r1, #191	; 0xbf
8000887c:	e51b0010 	ldr	r0, [fp, #-16]
80008880:	ebfffbee 	bl	0x80007840
80008884:	e51b3010 	ldr	r3, [fp, #-16]
80008888:	e2833008 	add	r3, r3, #8
8000888c:	e1a02003 	mov	r2, r3
80008890:	e51b3010 	ldr	r3, [fp, #-16]
80008894:	e2833008 	add	r3, r3, #8
80008898:	e5933000 	ldr	r3, [r3]
8000889c:	e3c33010 	bic	r3, r3, #16
800088a0:	e5823000 	str	r3, [r2]
800088a4:	e51b3010 	ldr	r3, [fp, #-16]
800088a8:	e2833008 	add	r3, r3, #8
800088ac:	e1a01003 	mov	r1, r3
800088b0:	e51b3010 	ldr	r3, [fp, #-16]
800088b4:	e2833008 	add	r3, r3, #8
800088b8:	e5932000 	ldr	r2, [r3]
800088bc:	e51b3008 	ldr	r3, [fp, #-8]
800088c0:	e1823003 	orr	r3, r2, r3
800088c4:	e5813000 	str	r3, [r1]
800088c8:	e51b3010 	ldr	r3, [fp, #-16]
800088cc:	e283300c 	add	r3, r3, #12
800088d0:	e1a02003 	mov	r2, r3
800088d4:	e51b300c 	ldr	r3, [fp, #-12]
800088d8:	e5823000 	str	r3, [r2]
800088dc:	e320f000 	nop	{0}
800088e0:	e24bd004 	sub	sp, fp, #4
800088e4:	e8bd8800 	pop	{fp, pc}
800088e8:	e92d4800 	push	{fp, lr}
800088ec:	e28db004 	add	fp, sp, #4
800088f0:	e24dd010 	sub	sp, sp, #16
800088f4:	e50b0010 	str	r0, [fp, #-16]
800088f8:	e3a03000 	mov	r3, #0
800088fc:	e50b300c 	str	r3, [fp, #-12]
80008900:	e3a03000 	mov	r3, #0
80008904:	e50b3008 	str	r3, [fp, #-8]
80008908:	e3a0107f 	mov	r1, #127	; 0x7f
8000890c:	e51b0010 	ldr	r0, [fp, #-16]
80008910:	ebfffbca 	bl	0x80007840
80008914:	e50b000c 	str	r0, [fp, #-12]
80008918:	e51b3010 	ldr	r3, [fp, #-16]
8000891c:	e2833014 	add	r3, r3, #20
80008920:	e5933000 	ldr	r3, [r3]
80008924:	e2033060 	and	r3, r3, #96	; 0x60
80008928:	e3530000 	cmp	r3, #0
8000892c:	0a000001 	beq	0x80008938
80008930:	e3a03001 	mov	r3, #1
80008934:	e50b3008 	str	r3, [fp, #-8]
80008938:	e51b3010 	ldr	r3, [fp, #-16]
8000893c:	e283300c 	add	r3, r3, #12
80008940:	e1a02003 	mov	r2, r3
80008944:	e51b300c 	ldr	r3, [fp, #-12]
80008948:	e5823000 	str	r3, [r2]
8000894c:	e51b3008 	ldr	r3, [fp, #-8]
80008950:	e1a00003 	mov	r0, r3
80008954:	e24bd004 	sub	sp, fp, #4
80008958:	e8bd8800 	pop	{fp, pc}
8000895c:	e92d4800 	push	{fp, lr}
80008960:	e28db004 	add	fp, sp, #4
80008964:	e24dd010 	sub	sp, sp, #16
80008968:	e50b0010 	str	r0, [fp, #-16]
8000896c:	e3a03000 	mov	r3, #0
80008970:	e50b300c 	str	r3, [fp, #-12]
80008974:	e3a03000 	mov	r3, #0
80008978:	e50b3008 	str	r3, [fp, #-8]
8000897c:	e3a0107f 	mov	r1, #127	; 0x7f
80008980:	e51b0010 	ldr	r0, [fp, #-16]
80008984:	ebfffbad 	bl	0x80007840
80008988:	e50b000c 	str	r0, [fp, #-12]
8000898c:	e51b3010 	ldr	r3, [fp, #-16]
80008990:	e2833014 	add	r3, r3, #20
80008994:	e5933000 	ldr	r3, [r3]
80008998:	e2033001 	and	r3, r3, #1
8000899c:	e3530000 	cmp	r3, #0
800089a0:	0a000001 	beq	0x800089ac
800089a4:	e3a03001 	mov	r3, #1
800089a8:	e50b3008 	str	r3, [fp, #-8]
800089ac:	e51b3010 	ldr	r3, [fp, #-16]
800089b0:	e283300c 	add	r3, r3, #12
800089b4:	e1a02003 	mov	r2, r3
800089b8:	e51b300c 	ldr	r3, [fp, #-12]
800089bc:	e5823000 	str	r3, [r2]
800089c0:	e51b3008 	ldr	r3, [fp, #-8]
800089c4:	e1a00003 	mov	r0, r3
800089c8:	e24bd004 	sub	sp, fp, #4
800089cc:	e8bd8800 	pop	{fp, pc}
800089d0:	e92d4800 	push	{fp, lr}
800089d4:	e28db004 	add	fp, sp, #4
800089d8:	e24dd010 	sub	sp, sp, #16
800089dc:	e50b0010 	str	r0, [fp, #-16]
800089e0:	e1a03001 	mov	r3, r1
800089e4:	e54b3011 	strb	r3, [fp, #-17]	; 0xffffffef
800089e8:	e3a03000 	mov	r3, #0
800089ec:	e50b300c 	str	r3, [fp, #-12]
800089f0:	e3a03000 	mov	r3, #0
800089f4:	e50b3008 	str	r3, [fp, #-8]
800089f8:	e3a0107f 	mov	r1, #127	; 0x7f
800089fc:	e51b0010 	ldr	r0, [fp, #-16]
80008a00:	ebfffb8e 	bl	0x80007840
80008a04:	e50b000c 	str	r0, [fp, #-12]
80008a08:	e51b3010 	ldr	r3, [fp, #-16]
80008a0c:	e2833014 	add	r3, r3, #20
80008a10:	e5933000 	ldr	r3, [r3]
80008a14:	e2033060 	and	r3, r3, #96	; 0x60
80008a18:	e3530000 	cmp	r3, #0
80008a1c:	0a000004 	beq	0x80008a34
80008a20:	e51b3010 	ldr	r3, [fp, #-16]
80008a24:	e55b2011 	ldrb	r2, [fp, #-17]	; 0xffffffef
80008a28:	e5832000 	str	r2, [r3]
80008a2c:	e3a03001 	mov	r3, #1
80008a30:	e50b3008 	str	r3, [fp, #-8]
80008a34:	e51b3010 	ldr	r3, [fp, #-16]
80008a38:	e283300c 	add	r3, r3, #12
80008a3c:	e1a02003 	mov	r2, r3
80008a40:	e51b300c 	ldr	r3, [fp, #-12]
80008a44:	e5823000 	str	r3, [r2]
80008a48:	e51b3008 	ldr	r3, [fp, #-8]
80008a4c:	e1a00003 	mov	r0, r3
80008a50:	e24bd004 	sub	sp, fp, #4
80008a54:	e8bd8800 	pop	{fp, pc}
80008a58:	e92d4800 	push	{fp, lr}
80008a5c:	e28db004 	add	fp, sp, #4
80008a60:	e24dd010 	sub	sp, sp, #16
80008a64:	e50b0010 	str	r0, [fp, #-16]
80008a68:	e3a03000 	mov	r3, #0
80008a6c:	e50b300c 	str	r3, [fp, #-12]
80008a70:	e3e03000 	mvn	r3, #0
80008a74:	e54b3005 	strb	r3, [fp, #-5]
80008a78:	e3a0107f 	mov	r1, #127	; 0x7f
80008a7c:	e51b0010 	ldr	r0, [fp, #-16]
80008a80:	ebfffb6e 	bl	0x80007840
80008a84:	e50b000c 	str	r0, [fp, #-12]
80008a88:	e51b3010 	ldr	r3, [fp, #-16]
80008a8c:	e2833014 	add	r3, r3, #20
80008a90:	e5933000 	ldr	r3, [r3]
80008a94:	e2033001 	and	r3, r3, #1
80008a98:	e3530000 	cmp	r3, #0
80008a9c:	0a000002 	beq	0x80008aac
80008aa0:	e51b3010 	ldr	r3, [fp, #-16]
80008aa4:	e5933000 	ldr	r3, [r3]
80008aa8:	e54b3005 	strb	r3, [fp, #-5]
80008aac:	e51b3010 	ldr	r3, [fp, #-16]
80008ab0:	e283300c 	add	r3, r3, #12
80008ab4:	e1a02003 	mov	r2, r3
80008ab8:	e51b300c 	ldr	r3, [fp, #-12]
80008abc:	e5823000 	str	r3, [r2]
80008ac0:	e15b30d5 	ldrsb	r3, [fp, #-5]
80008ac4:	e1a00003 	mov	r0, r3
80008ac8:	e24bd004 	sub	sp, fp, #4
80008acc:	e8bd8800 	pop	{fp, pc}
80008ad0:	e92d4800 	push	{fp, lr}
80008ad4:	e28db004 	add	fp, sp, #4
80008ad8:	e24dd010 	sub	sp, sp, #16
80008adc:	e50b0010 	str	r0, [fp, #-16]
80008ae0:	e3a03000 	mov	r3, #0
80008ae4:	e50b3008 	str	r3, [fp, #-8]
80008ae8:	e3a03000 	mov	r3, #0
80008aec:	e54b3009 	strb	r3, [fp, #-9]
80008af0:	e3a0107f 	mov	r1, #127	; 0x7f
80008af4:	e51b0010 	ldr	r0, [fp, #-16]
80008af8:	ebfffb50 	bl	0x80007840
80008afc:	e50b0008 	str	r0, [fp, #-8]
80008b00:	e320f000 	nop	{0}
80008b04:	e51b3010 	ldr	r3, [fp, #-16]
80008b08:	e2833014 	add	r3, r3, #20
80008b0c:	e5933000 	ldr	r3, [r3]
80008b10:	e2033001 	and	r3, r3, #1
80008b14:	e3530000 	cmp	r3, #0
80008b18:	0afffff9 	beq	0x80008b04
80008b1c:	e51b3010 	ldr	r3, [fp, #-16]
80008b20:	e5933000 	ldr	r3, [r3]
80008b24:	e54b3009 	strb	r3, [fp, #-9]
80008b28:	e51b3010 	ldr	r3, [fp, #-16]
80008b2c:	e283300c 	add	r3, r3, #12
80008b30:	e1a02003 	mov	r2, r3
80008b34:	e51b3008 	ldr	r3, [fp, #-8]
80008b38:	e5823000 	str	r3, [r2]
80008b3c:	e15b30d9 	ldrsb	r3, [fp, #-9]
80008b40:	e1a00003 	mov	r0, r3
80008b44:	e24bd004 	sub	sp, fp, #4
80008b48:	e8bd8800 	pop	{fp, pc}
80008b4c:	e92d4800 	push	{fp, lr}
80008b50:	e28db004 	add	fp, sp, #4
80008b54:	e24dd010 	sub	sp, sp, #16
80008b58:	e50b0010 	str	r0, [fp, #-16]
80008b5c:	e50b1014 	str	r1, [fp, #-20]	; 0xffffffec
80008b60:	e3a03000 	mov	r3, #0
80008b64:	e50b300c 	str	r3, [fp, #-12]
80008b68:	e3e03000 	mvn	r3, #0
80008b6c:	e50b3008 	str	r3, [fp, #-8]
80008b70:	e3a0107f 	mov	r1, #127	; 0x7f
80008b74:	e51b0010 	ldr	r0, [fp, #-16]
80008b78:	ebfffb30 	bl	0x80007840
80008b7c:	e50b000c 	str	r0, [fp, #-12]
80008b80:	ea000002 	b	0x80008b90
80008b84:	e51b3014 	ldr	r3, [fp, #-20]	; 0xffffffec
80008b88:	e2433001 	sub	r3, r3, #1
80008b8c:	e50b3014 	str	r3, [fp, #-20]	; 0xffffffec
80008b90:	e51b3010 	ldr	r3, [fp, #-16]
80008b94:	e2833014 	add	r3, r3, #20
80008b98:	e5933000 	ldr	r3, [r3]
80008b9c:	e2033001 	and	r3, r3, #1
80008ba0:	e3530000 	cmp	r3, #0
80008ba4:	1a000002 	bne	0x80008bb4
80008ba8:	e51b3014 	ldr	r3, [fp, #-20]	; 0xffffffec
80008bac:	e3530000 	cmp	r3, #0
80008bb0:	1afffff3 	bne	0x80008b84
80008bb4:	e51b3014 	ldr	r3, [fp, #-20]	; 0xffffffec
80008bb8:	e3530000 	cmp	r3, #0
80008bbc:	0a000003 	beq	0x80008bd0
80008bc0:	e51b3010 	ldr	r3, [fp, #-16]
80008bc4:	e5933000 	ldr	r3, [r3]
80008bc8:	e6ef3073 	uxtb	r3, r3
80008bcc:	e50b3008 	str	r3, [fp, #-8]
80008bd0:	e51b3010 	ldr	r3, [fp, #-16]
80008bd4:	e283300c 	add	r3, r3, #12
80008bd8:	e1a02003 	mov	r2, r3
80008bdc:	e51b300c 	ldr	r3, [fp, #-12]
80008be0:	e5823000 	str	r3, [r2]
80008be4:	e51b3008 	ldr	r3, [fp, #-8]
80008be8:	e1a00003 	mov	r0, r3
80008bec:	e24bd004 	sub	sp, fp, #4
80008bf0:	e8bd8800 	pop	{fp, pc}
80008bf4:	e92d4800 	push	{fp, lr}
80008bf8:	e28db004 	add	fp, sp, #4
80008bfc:	e24dd010 	sub	sp, sp, #16
80008c00:	e50b0010 	str	r0, [fp, #-16]
80008c04:	e1a03001 	mov	r3, r1
80008c08:	e54b3011 	strb	r3, [fp, #-17]	; 0xffffffef
80008c0c:	e3a03000 	mov	r3, #0
80008c10:	e50b3008 	str	r3, [fp, #-8]
80008c14:	e3a0107f 	mov	r1, #127	; 0x7f
80008c18:	e51b0010 	ldr	r0, [fp, #-16]
80008c1c:	ebfffb07 	bl	0x80007840
80008c20:	e50b0008 	str	r0, [fp, #-8]
80008c24:	e320f000 	nop	{0}
80008c28:	e51b3010 	ldr	r3, [fp, #-16]
80008c2c:	e2833014 	add	r3, r3, #20
80008c30:	e5933000 	ldr	r3, [r3]
80008c34:	e2033060 	and	r3, r3, #96	; 0x60
80008c38:	e3530060 	cmp	r3, #96	; 0x60
80008c3c:	1afffff9 	bne	0x80008c28
80008c40:	e51b3010 	ldr	r3, [fp, #-16]
80008c44:	e55b2011 	ldrb	r2, [fp, #-17]	; 0xffffffef
80008c48:	e5832000 	str	r2, [r3]
80008c4c:	e51b3010 	ldr	r3, [fp, #-16]
80008c50:	e283300c 	add	r3, r3, #12
80008c54:	e1a02003 	mov	r2, r3
80008c58:	e51b3008 	ldr	r3, [fp, #-8]
80008c5c:	e5823000 	str	r3, [r2]
80008c60:	e320f000 	nop	{0}
80008c64:	e24bd004 	sub	sp, fp, #4
80008c68:	e8bd8800 	pop	{fp, pc}
80008c6c:	e52db004 	push	{fp}		; (str fp, [sp, #-4]!)
80008c70:	e28db000 	add	fp, sp, #0
80008c74:	e24dd00c 	sub	sp, sp, #12
80008c78:	e50b0008 	str	r0, [fp, #-8]
80008c7c:	e1a03001 	mov	r3, r1
80008c80:	e54b3009 	strb	r3, [fp, #-9]
80008c84:	e51b3008 	ldr	r3, [fp, #-8]
80008c88:	e55b2009 	ldrb	r2, [fp, #-9]
80008c8c:	e5832000 	str	r2, [r3]
80008c90:	e320f000 	nop	{0}
80008c94:	e28bd000 	add	sp, fp, #0
80008c98:	e49db004 	pop	{fp}		; (ldr fp, [sp], #4)
80008c9c:	e12fff1e 	bx	lr
80008ca0:	e52db004 	push	{fp}		; (str fp, [sp, #-4]!)
80008ca4:	e28db000 	add	fp, sp, #0
80008ca8:	e24dd00c 	sub	sp, sp, #12
80008cac:	e50b0008 	str	r0, [fp, #-8]
80008cb0:	e51b3008 	ldr	r3, [fp, #-8]
80008cb4:	e5933000 	ldr	r3, [r3]
80008cb8:	e6af3073 	sxtb	r3, r3
80008cbc:	e1a00003 	mov	r0, r3
80008cc0:	e28bd000 	add	sp, fp, #0
80008cc4:	e49db004 	pop	{fp}		; (ldr fp, [sp], #4)
80008cc8:	e12fff1e 	bx	lr
80008ccc:	e52db004 	push	{fp}		; (str fp, [sp, #-4]!)
80008cd0:	e28db000 	add	fp, sp, #0
80008cd4:	e24dd01c 	sub	sp, sp, #28
80008cd8:	e50b0010 	str	r0, [fp, #-16]
80008cdc:	e50b1014 	str	r1, [fp, #-20]	; 0xffffffec
80008ce0:	e50b2018 	str	r2, [fp, #-24]	; 0xffffffe8
80008ce4:	e3a03000 	mov	r3, #0
80008ce8:	e50b3008 	str	r3, [fp, #-8]
80008cec:	e3a03000 	mov	r3, #0
80008cf0:	e50b3008 	str	r3, [fp, #-8]
80008cf4:	ea000008 	b	0x80008d1c
80008cf8:	e51b2010 	ldr	r2, [fp, #-16]
80008cfc:	e51b3014 	ldr	r3, [fp, #-20]	; 0xffffffec
80008d00:	e2831001 	add	r1, r3, #1
80008d04:	e50b1014 	str	r1, [fp, #-20]	; 0xffffffec
80008d08:	e5d33000 	ldrb	r3, [r3]
80008d0c:	e5823000 	str	r3, [r2]
80008d10:	e51b3008 	ldr	r3, [fp, #-8]
80008d14:	e2833001 	add	r3, r3, #1
80008d18:	e50b3008 	str	r3, [fp, #-8]
80008d1c:	e51b2008 	ldr	r2, [fp, #-8]
80008d20:	e51b3018 	ldr	r3, [fp, #-24]	; 0xffffffe8
80008d24:	e1520003 	cmp	r2, r3
80008d28:	3afffff2 	bcc	0x80008cf8
80008d2c:	e51b3008 	ldr	r3, [fp, #-8]
80008d30:	e1a00003 	mov	r0, r3
80008d34:	e28bd000 	add	sp, fp, #0
80008d38:	e49db004 	pop	{fp}		; (ldr fp, [sp], #4)
80008d3c:	e12fff1e 	bx	lr
80008d40:	e92d4800 	push	{fp, lr}
80008d44:	e28db004 	add	fp, sp, #4
80008d48:	e24dd010 	sub	sp, sp, #16
80008d4c:	e50b0010 	str	r0, [fp, #-16]
80008d50:	e3a03000 	mov	r3, #0
80008d54:	e50b3008 	str	r3, [fp, #-8]
80008d58:	e3a03000 	mov	r3, #0
80008d5c:	e50b300c 	str	r3, [fp, #-12]
80008d60:	e3a0107f 	mov	r1, #127	; 0x7f
80008d64:	e51b0010 	ldr	r0, [fp, #-16]
80008d68:	ebfffab4 	bl	0x80007840
80008d6c:	e50b0008 	str	r0, [fp, #-8]
80008d70:	e51b3010 	ldr	r3, [fp, #-16]
80008d74:	e2833014 	add	r3, r3, #20
80008d78:	e5933000 	ldr	r3, [r3]
80008d7c:	e203309e 	and	r3, r3, #158	; 0x9e
80008d80:	e50b300c 	str	r3, [fp, #-12]
80008d84:	e51b3010 	ldr	r3, [fp, #-16]
80008d88:	e283300c 	add	r3, r3, #12
80008d8c:	e1a02003 	mov	r2, r3
80008d90:	e51b3008 	ldr	r3, [fp, #-8]
80008d94:	e5823000 	str	r3, [r2]
80008d98:	e51b300c 	ldr	r3, [fp, #-12]
80008d9c:	e1a00003 	mov	r0, r3
80008da0:	e24bd004 	sub	sp, fp, #4
80008da4:	e8bd8800 	pop	{fp, pc}
80008da8:	e92d4800 	push	{fp, lr}
80008dac:	e28db004 	add	fp, sp, #4
80008db0:	e24dd010 	sub	sp, sp, #16
80008db4:	e50b0010 	str	r0, [fp, #-16]
80008db8:	e3a03000 	mov	r3, #0
80008dbc:	e50b3008 	str	r3, [fp, #-8]
80008dc0:	e3a03000 	mov	r3, #0
80008dc4:	e50b300c 	str	r3, [fp, #-12]
80008dc8:	e3a0107f 	mov	r1, #127	; 0x7f
80008dcc:	e51b0010 	ldr	r0, [fp, #-16]
80008dd0:	ebfffa9a 	bl	0x80007840
80008dd4:	e50b0008 	str	r0, [fp, #-8]
80008dd8:	e51b3010 	ldr	r3, [fp, #-16]
80008ddc:	e2833008 	add	r3, r3, #8
80008de0:	e5933000 	ldr	r3, [r3]
80008de4:	e203303e 	and	r3, r3, #62	; 0x3e
80008de8:	e50b300c 	str	r3, [fp, #-12]
80008dec:	e51b3010 	ldr	r3, [fp, #-16]
80008df0:	e283300c 	add	r3, r3, #12
80008df4:	e1a02003 	mov	r2, r3
80008df8:	e51b3008 	ldr	r3, [fp, #-8]
80008dfc:	e5823000 	str	r3, [r2]
80008e00:	e51b300c 	ldr	r3, [fp, #-12]
80008e04:	e1a00003 	mov	r0, r3
80008e08:	e24bd004 	sub	sp, fp, #4
80008e0c:	e8bd8800 	pop	{fp, pc}
80008e10:	e92d4800 	push	{fp, lr}
80008e14:	e28db004 	add	fp, sp, #4
80008e18:	e24dd010 	sub	sp, sp, #16
80008e1c:	e50b0010 	str	r0, [fp, #-16]
80008e20:	e3a03001 	mov	r3, #1
80008e24:	e50b3008 	str	r3, [fp, #-8]
80008e28:	e3a03000 	mov	r3, #0
80008e2c:	e50b300c 	str	r3, [fp, #-12]
80008e30:	e3a0107f 	mov	r1, #127	; 0x7f
80008e34:	e51b0010 	ldr	r0, [fp, #-16]
80008e38:	ebfffa80 	bl	0x80007840
80008e3c:	e50b000c 	str	r0, [fp, #-12]
80008e40:	e51b3010 	ldr	r3, [fp, #-16]
80008e44:	e2833008 	add	r3, r3, #8
80008e48:	e5933000 	ldr	r3, [r3]
80008e4c:	e2033001 	and	r3, r3, #1
80008e50:	e3530000 	cmp	r3, #0
80008e54:	1a000001 	bne	0x80008e60
80008e58:	e3a03000 	mov	r3, #0
80008e5c:	e50b3008 	str	r3, [fp, #-8]
80008e60:	e51b3010 	ldr	r3, [fp, #-16]
80008e64:	e283300c 	add	r3, r3, #12
80008e68:	e1a02003 	mov	r2, r3
80008e6c:	e51b300c 	ldr	r3, [fp, #-12]
80008e70:	e5823000 	str	r3, [r2]
80008e74:	e51b3008 	ldr	r3, [fp, #-8]
80008e78:	e1a00003 	mov	r0, r3
80008e7c:	e24bd004 	sub	sp, fp, #4
80008e80:	e8bd8800 	pop	{fp, pc}
80008e84:	e92d4800 	push	{fp, lr}
80008e88:	e28db004 	add	fp, sp, #4
80008e8c:	e24dd010 	sub	sp, sp, #16
80008e90:	e50b0010 	str	r0, [fp, #-16]
80008e94:	e3a03000 	mov	r3, #0
80008e98:	e50b300c 	str	r3, [fp, #-12]
80008e9c:	e3a03000 	mov	r3, #0
80008ea0:	e50b3008 	str	r3, [fp, #-8]
80008ea4:	e3a0107f 	mov	r1, #127	; 0x7f
80008ea8:	e51b0010 	ldr	r0, [fp, #-16]
80008eac:	ebfffa63 	bl	0x80007840
80008eb0:	e50b000c 	str	r0, [fp, #-12]
80008eb4:	e51b3010 	ldr	r3, [fp, #-16]
80008eb8:	e2833008 	add	r3, r3, #8
80008ebc:	e5933000 	ldr	r3, [r3]
80008ec0:	e20330c0 	and	r3, r3, #192	; 0xc0
80008ec4:	e3530000 	cmp	r3, #0
80008ec8:	0a000001 	beq	0x80008ed4
80008ecc:	e3a03001 	mov	r3, #1
80008ed0:	e50b3008 	str	r3, [fp, #-8]
80008ed4:	e51b3010 	ldr	r3, [fp, #-16]
80008ed8:	e283300c 	add	r3, r3, #12
80008edc:	e1a02003 	mov	r2, r3
80008ee0:	e51b300c 	ldr	r3, [fp, #-12]
80008ee4:	e5823000 	str	r3, [r2]
80008ee8:	e51b3008 	ldr	r3, [fp, #-8]
80008eec:	e1a00003 	mov	r0, r3
80008ef0:	e24bd004 	sub	sp, fp, #4
80008ef4:	e8bd8800 	pop	{fp, pc}
80008ef8:	e92d4800 	push	{fp, lr}
80008efc:	e28db004 	add	fp, sp, #4
80008f00:	e24dd018 	sub	sp, sp, #24
80008f04:	e50b0010 	str	r0, [fp, #-16]
80008f08:	e50b1014 	str	r1, [fp, #-20]	; 0xffffffec
80008f0c:	e50b2018 	str	r2, [fp, #-24]	; 0xffffffe8
80008f10:	e3a03000 	mov	r3, #0
80008f14:	e50b3008 	str	r3, [fp, #-8]
80008f18:	e3a010bf 	mov	r1, #191	; 0xbf
80008f1c:	e51b0010 	ldr	r0, [fp, #-16]
80008f20:	ebfffa46 	bl	0x80007840
80008f24:	e50b0008 	str	r0, [fp, #-8]
80008f28:	e51b3010 	ldr	r3, [fp, #-16]
80008f2c:	e2833008 	add	r3, r3, #8
80008f30:	e1a02003 	mov	r2, r3
80008f34:	e51b3010 	ldr	r3, [fp, #-16]
80008f38:	e2833008 	add	r3, r3, #8
80008f3c:	e5933000 	ldr	r3, [r3]
80008f40:	e3c330c0 	bic	r3, r3, #192	; 0xc0
80008f44:	e5823000 	str	r3, [r2]
80008f48:	e51b3010 	ldr	r3, [fp, #-16]
80008f4c:	e2833008 	add	r3, r3, #8
80008f50:	e1a01003 	mov	r1, r3
80008f54:	e51b3010 	ldr	r3, [fp, #-16]
80008f58:	e2833008 	add	r3, r3, #8
80008f5c:	e5932000 	ldr	r2, [r3]
80008f60:	e51b3014 	ldr	r3, [fp, #-20]	; 0xffffffec
80008f64:	e2033080 	and	r3, r3, #128	; 0x80
80008f68:	e1823003 	orr	r3, r2, r3
80008f6c:	e5813000 	str	r3, [r1]
80008f70:	e51b3010 	ldr	r3, [fp, #-16]
80008f74:	e2833008 	add	r3, r3, #8
80008f78:	e1a01003 	mov	r1, r3
80008f7c:	e51b3010 	ldr	r3, [fp, #-16]
80008f80:	e2833008 	add	r3, r3, #8
80008f84:	e5932000 	ldr	r2, [r3]
80008f88:	e51b3018 	ldr	r3, [fp, #-24]	; 0xffffffe8
80008f8c:	e2033040 	and	r3, r3, #64	; 0x40
80008f90:	e1823003 	orr	r3, r2, r3
80008f94:	e5813000 	str	r3, [r1]
80008f98:	e51b3010 	ldr	r3, [fp, #-16]
80008f9c:	e283300c 	add	r3, r3, #12
80008fa0:	e1a02003 	mov	r2, r3
80008fa4:	e51b3008 	ldr	r3, [fp, #-8]
80008fa8:	e5823000 	str	r3, [r2]
80008fac:	e320f000 	nop	{0}
80008fb0:	e24bd004 	sub	sp, fp, #4
80008fb4:	e8bd8800 	pop	{fp, pc}
80008fb8:	e92d4800 	push	{fp, lr}
80008fbc:	e28db004 	add	fp, sp, #4
80008fc0:	e24dd010 	sub	sp, sp, #16
80008fc4:	e50b0010 	str	r0, [fp, #-16]
80008fc8:	e50b1014 	str	r1, [fp, #-20]	; 0xffffffec
80008fcc:	e3a03000 	mov	r3, #0
80008fd0:	e50b3008 	str	r3, [fp, #-8]
80008fd4:	e3a010bf 	mov	r1, #191	; 0xbf
80008fd8:	e51b0010 	ldr	r0, [fp, #-16]
80008fdc:	ebfffa17 	bl	0x80007840
80008fe0:	e50b0008 	str	r0, [fp, #-8]
80008fe4:	e51b3010 	ldr	r3, [fp, #-16]
80008fe8:	e2833008 	add	r3, r3, #8
80008fec:	e1a02003 	mov	r2, r3
80008ff0:	e51b3010 	ldr	r3, [fp, #-16]
80008ff4:	e2833008 	add	r3, r3, #8
80008ff8:	e5933000 	ldr	r3, [r3]
80008ffc:	e3c33020 	bic	r3, r3, #32
80009000:	e5823000 	str	r3, [r2]
80009004:	e51b3010 	ldr	r3, [fp, #-16]
80009008:	e2833008 	add	r3, r3, #8
8000900c:	e1a01003 	mov	r1, r3
80009010:	e51b3010 	ldr	r3, [fp, #-16]
80009014:	e2833008 	add	r3, r3, #8
80009018:	e5932000 	ldr	r2, [r3]
8000901c:	e51b3014 	ldr	r3, [fp, #-20]	; 0xffffffec
80009020:	e2033020 	and	r3, r3, #32
80009024:	e1823003 	orr	r3, r2, r3
80009028:	e5813000 	str	r3, [r1]
8000902c:	e51b3010 	ldr	r3, [fp, #-16]
80009030:	e283300c 	add	r3, r3, #12
80009034:	e1a02003 	mov	r2, r3
80009038:	e51b3008 	ldr	r3, [fp, #-8]
8000903c:	e5823000 	str	r3, [r2]
80009040:	e320f000 	nop	{0}
80009044:	e24bd004 	sub	sp, fp, #4
80009048:	e8bd8800 	pop	{fp, pc}
8000904c:	e92d4800 	push	{fp, lr}
80009050:	e28db004 	add	fp, sp, #4
80009054:	e24dd010 	sub	sp, sp, #16
80009058:	e50b0010 	str	r0, [fp, #-16]
8000905c:	e50b1014 	str	r1, [fp, #-20]	; 0xffffffec
80009060:	e3a03000 	mov	r3, #0
80009064:	e50b3008 	str	r3, [fp, #-8]
80009068:	e3a010bf 	mov	r1, #191	; 0xbf
8000906c:	e51b0010 	ldr	r0, [fp, #-16]
80009070:	ebfff9f2 	bl	0x80007840
80009074:	e50b0008 	str	r0, [fp, #-8]
80009078:	e51b3010 	ldr	r3, [fp, #-16]
8000907c:	e2833008 	add	r3, r3, #8
80009080:	e1a02003 	mov	r2, r3
80009084:	e51b3010 	ldr	r3, [fp, #-16]
80009088:	e2833008 	add	r3, r3, #8
8000908c:	e5933000 	ldr	r3, [r3]
80009090:	e3c3300f 	bic	r3, r3, #15
80009094:	e5823000 	str	r3, [r2]
80009098:	e51b3010 	ldr	r3, [fp, #-16]
8000909c:	e2833008 	add	r3, r3, #8
800090a0:	e1a01003 	mov	r1, r3
800090a4:	e51b3010 	ldr	r3, [fp, #-16]
800090a8:	e2833008 	add	r3, r3, #8
800090ac:	e5932000 	ldr	r2, [r3]
800090b0:	e51b3014 	ldr	r3, [fp, #-20]	; 0xffffffec
800090b4:	e203300f 	and	r3, r3, #15
800090b8:	e1823003 	orr	r3, r2, r3
800090bc:	e5813000 	str	r3, [r1]
800090c0:	e51b3010 	ldr	r3, [fp, #-16]
800090c4:	e283300c 	add	r3, r3, #12
800090c8:	e1a02003 	mov	r2, r3
800090cc:	e51b3008 	ldr	r3, [fp, #-8]
800090d0:	e5823000 	str	r3, [r2]
800090d4:	e320f000 	nop	{0}
800090d8:	e24bd004 	sub	sp, fp, #4
800090dc:	e8bd8800 	pop	{fp, pc}
800090e0:	e52db004 	push	{fp}		; (str fp, [sp, #-4]!)
800090e4:	e28db000 	add	fp, sp, #0
800090e8:	e24dd00c 	sub	sp, sp, #12
800090ec:	e50b0008 	str	r0, [fp, #-8]
800090f0:	e50b100c 	str	r1, [fp, #-12]
800090f4:	e51b3008 	ldr	r3, [fp, #-8]
800090f8:	e2833024 	add	r3, r3, #36	; 0x24
800090fc:	e1a02003 	mov	r2, r3
80009100:	e51b3008 	ldr	r3, [fp, #-8]
80009104:	e2833024 	add	r3, r3, #36	; 0x24
80009108:	e5933000 	ldr	r3, [r3]
8000910c:	e3c33008 	bic	r3, r3, #8
80009110:	e5823000 	str	r3, [r2]
80009114:	e51b3008 	ldr	r3, [fp, #-8]
80009118:	e2833024 	add	r3, r3, #36	; 0x24
8000911c:	e1a01003 	mov	r1, r3
80009120:	e51b3008 	ldr	r3, [fp, #-8]
80009124:	e2833024 	add	r3, r3, #36	; 0x24
80009128:	e5932000 	ldr	r2, [r3]
8000912c:	e51b300c 	ldr	r3, [fp, #-12]
80009130:	e2033008 	and	r3, r3, #8
80009134:	e1823003 	orr	r3, r2, r3
80009138:	e5813000 	str	r3, [r1]
8000913c:	e320f000 	nop	{0}
80009140:	e28bd000 	add	sp, fp, #0
80009144:	e49db004 	pop	{fp}		; (ldr fp, [sp], #4)
80009148:	e12fff1e 	bx	lr
8000914c:	e52db004 	push	{fp}		; (str fp, [sp, #-4]!)
80009150:	e28db000 	add	fp, sp, #0
80009154:	e24dd00c 	sub	sp, sp, #12
80009158:	e50b0008 	str	r0, [fp, #-8]
8000915c:	e51b3008 	ldr	r3, [fp, #-8]
80009160:	e2833054 	add	r3, r3, #84	; 0x54
80009164:	e1a02003 	mov	r2, r3
80009168:	e51b3008 	ldr	r3, [fp, #-8]
8000916c:	e2833054 	add	r3, r3, #84	; 0x54
80009170:	e5933000 	ldr	r3, [r3]
80009174:	e3833002 	orr	r3, r3, #2
80009178:	e5823000 	str	r3, [r2]
8000917c:	e320f000 	nop	{0}
80009180:	e51b3008 	ldr	r3, [fp, #-8]
80009184:	e2833058 	add	r3, r3, #88	; 0x58
80009188:	e5933000 	ldr	r3, [r3]
8000918c:	e2033001 	and	r3, r3, #1
80009190:	e3530000 	cmp	r3, #0
80009194:	0afffff9 	beq	0x80009180
80009198:	e320f000 	nop	{0}
8000919c:	e28bd000 	add	sp, fp, #0
800091a0:	e49db004 	pop	{fp}		; (ldr fp, [sp], #4)
800091a4:	e12fff1e 	bx	lr
800091a8:	e52db004 	push	{fp}		; (str fp, [sp, #-4]!)
800091ac:	e28db000 	add	fp, sp, #0
800091b0:	e24dd00c 	sub	sp, sp, #12
800091b4:	e50b0008 	str	r0, [fp, #-8]
800091b8:	e50b100c 	str	r1, [fp, #-12]
800091bc:	e51b3008 	ldr	r3, [fp, #-8]
800091c0:	e2833054 	add	r3, r3, #84	; 0x54
800091c4:	e1a02003 	mov	r2, r3
800091c8:	e51b3008 	ldr	r3, [fp, #-8]
800091cc:	e2833054 	add	r3, r3, #84	; 0x54
800091d0:	e5933000 	ldr	r3, [r3]
800091d4:	e3c33018 	bic	r3, r3, #24
800091d8:	e5823000 	str	r3, [r2]
800091dc:	e51b3008 	ldr	r3, [fp, #-8]
800091e0:	e2833054 	add	r3, r3, #84	; 0x54
800091e4:	e1a01003 	mov	r1, r3
800091e8:	e51b3008 	ldr	r3, [fp, #-8]
800091ec:	e2833054 	add	r3, r3, #84	; 0x54
800091f0:	e5932000 	ldr	r2, [r3]
800091f4:	e51b300c 	ldr	r3, [fp, #-12]
800091f8:	e2033018 	and	r3, r3, #24
800091fc:	e1823003 	orr	r3, r2, r3
80009200:	e5813000 	str	r3, [r1]
80009204:	e320f000 	nop	{0}
80009208:	e28bd000 	add	sp, fp, #0
8000920c:	e49db004 	pop	{fp}		; (ldr fp, [sp], #4)
80009210:	e12fff1e 	bx	lr
80009214:	e52db004 	push	{fp}		; (str fp, [sp, #-4]!)
80009218:	e28db000 	add	fp, sp, #0
8000921c:	e24dd00c 	sub	sp, sp, #12
80009220:	e50b0008 	str	r0, [fp, #-8]
80009224:	e50b100c 	str	r1, [fp, #-12]
80009228:	e51b3008 	ldr	r3, [fp, #-8]
8000922c:	e2833054 	add	r3, r3, #84	; 0x54
80009230:	e1a02003 	mov	r2, r3
80009234:	e51b3008 	ldr	r3, [fp, #-8]
80009238:	e2833054 	add	r3, r3, #84	; 0x54
8000923c:	e5933000 	ldr	r3, [r3]
80009240:	e3c33004 	bic	r3, r3, #4
80009244:	e5823000 	str	r3, [r2]
80009248:	e51b3008 	ldr	r3, [fp, #-8]
8000924c:	e2833054 	add	r3, r3, #84	; 0x54
80009250:	e1a01003 	mov	r1, r3
80009254:	e51b3008 	ldr	r3, [fp, #-8]
80009258:	e2833054 	add	r3, r3, #84	; 0x54
8000925c:	e5932000 	ldr	r2, [r3]
80009260:	e51b300c 	ldr	r3, [fp, #-12]
80009264:	e2033004 	and	r3, r3, #4
80009268:	e1823003 	orr	r3, r2, r3
8000926c:	e5813000 	str	r3, [r1]
80009270:	e320f000 	nop	{0}
80009274:	e28bd000 	add	sp, fp, #0
80009278:	e49db004 	pop	{fp}		; (ldr fp, [sp], #4)
8000927c:	e12fff1e 	bx	lr
80009280:	e52db004 	push	{fp}		; (str fp, [sp, #-4]!)
80009284:	e28db000 	add	fp, sp, #0
80009288:	e24dd00c 	sub	sp, sp, #12
8000928c:	e50b0008 	str	r0, [fp, #-8]
80009290:	e50b100c 	str	r1, [fp, #-12]
80009294:	e51b3008 	ldr	r3, [fp, #-8]
80009298:	e2833054 	add	r3, r3, #84	; 0x54
8000929c:	e1a02003 	mov	r2, r3
800092a0:	e51b3008 	ldr	r3, [fp, #-8]
800092a4:	e2833054 	add	r3, r3, #84	; 0x54
800092a8:	e5933000 	ldr	r3, [r3]
800092ac:	e3c33001 	bic	r3, r3, #1
800092b0:	e5823000 	str	r3, [r2]
800092b4:	e51b3008 	ldr	r3, [fp, #-8]
800092b8:	e2833054 	add	r3, r3, #84	; 0x54
800092bc:	e1a01003 	mov	r1, r3
800092c0:	e51b3008 	ldr	r3, [fp, #-8]
800092c4:	e2833054 	add	r3, r3, #84	; 0x54
800092c8:	e5932000 	ldr	r2, [r3]
800092cc:	e51b300c 	ldr	r3, [fp, #-12]
800092d0:	e2033001 	and	r3, r3, #1
800092d4:	e1823003 	orr	r3, r2, r3
800092d8:	e5813000 	str	r3, [r1]
800092dc:	e320f000 	nop	{0}
800092e0:	e28bd000 	add	sp, fp, #0
800092e4:	e49db004 	pop	{fp}		; (ldr fp, [sp], #4)
800092e8:	e12fff1e 	bx	lr
800092ec:	e52db004 	push	{fp}		; (str fp, [sp, #-4]!)
800092f0:	e28db000 	add	fp, sp, #0
800092f4:	e24dd01c 	sub	sp, sp, #28
800092f8:	e50b0010 	str	r0, [fp, #-16]
800092fc:	e50b1014 	str	r1, [fp, #-20]	; 0xffffffec
80009300:	e50b2018 	str	r2, [fp, #-24]	; 0xffffffe8
80009304:	e3a03000 	mov	r3, #0
80009308:	e50b3008 	str	r3, [fp, #-8]
8000930c:	e51b3014 	ldr	r3, [fp, #-20]	; 0xffffffec
80009310:	e203300f 	and	r3, r3, #15
80009314:	e50b3008 	str	r3, [fp, #-8]
80009318:	e51b3018 	ldr	r3, [fp, #-24]	; 0xffffffe8
8000931c:	e1a03203 	lsl	r3, r3, #4
80009320:	e6ef3073 	uxtb	r3, r3
80009324:	e51b2008 	ldr	r2, [fp, #-8]
80009328:	e1823003 	orr	r3, r2, r3
8000932c:	e50b3008 	str	r3, [fp, #-8]
80009330:	e51b3010 	ldr	r3, [fp, #-16]
80009334:	e2833018 	add	r3, r3, #24
80009338:	e1a02003 	mov	r2, r3
8000933c:	e51b3008 	ldr	r3, [fp, #-8]
80009340:	e5823000 	str	r3, [r2]
80009344:	e320f000 	nop	{0}
80009348:	e28bd000 	add	sp, fp, #0
8000934c:	e49db004 	pop	{fp}		; (ldr fp, [sp], #4)
80009350:	e12fff1e 	bx	lr
80009354:	e52db004 	push	{fp}		; (str fp, [sp, #-4]!)
80009358:	e28db000 	add	fp, sp, #0
8000935c:	e24dd00c 	sub	sp, sp, #12
80009360:	e50b0008 	str	r0, [fp, #-8]
80009364:	e1a03001 	mov	r3, r1
80009368:	e54b3009 	strb	r3, [fp, #-9]
8000936c:	e1a03002 	mov	r3, r2
80009370:	e54b300a 	strb	r3, [fp, #-10]
80009374:	e51b3008 	ldr	r3, [fp, #-8]
80009378:	e2833010 	add	r3, r3, #16
8000937c:	e1a02003 	mov	r2, r3
80009380:	e55b3009 	ldrb	r3, [fp, #-9]
80009384:	e5823000 	str	r3, [r2]
80009388:	e51b3008 	ldr	r3, [fp, #-8]
8000938c:	e2833018 	add	r3, r3, #24
80009390:	e1a02003 	mov	r2, r3
80009394:	e55b300a 	ldrb	r3, [fp, #-10]
80009398:	e5823000 	str	r3, [r2]
8000939c:	e320f000 	nop	{0}
800093a0:	e28bd000 	add	sp, fp, #0
800093a4:	e49db004 	pop	{fp}		; (ldr fp, [sp], #4)
800093a8:	e12fff1e 	bx	lr
800093ac:	e52db004 	push	{fp}		; (str fp, [sp, #-4]!)
800093b0:	e28db000 	add	fp, sp, #0
800093b4:	e24dd00c 	sub	sp, sp, #12
800093b8:	e50b0008 	str	r0, [fp, #-8]
800093bc:	e1a03001 	mov	r3, r1
800093c0:	e54b3009 	strb	r3, [fp, #-9]
800093c4:	e1a03002 	mov	r3, r2
800093c8:	e54b300a 	strb	r3, [fp, #-10]
800093cc:	e51b3008 	ldr	r3, [fp, #-8]
800093d0:	e2833014 	add	r3, r3, #20
800093d4:	e1a02003 	mov	r2, r3
800093d8:	e55b3009 	ldrb	r3, [fp, #-9]
800093dc:	e5823000 	str	r3, [r2]
800093e0:	e51b3008 	ldr	r3, [fp, #-8]
800093e4:	e283301c 	add	r3, r3, #28
800093e8:	e1a02003 	mov	r2, r3
800093ec:	e55b300a 	ldrb	r3, [fp, #-10]
800093f0:	e5823000 	str	r3, [r2]
800093f4:	e320f000 	nop	{0}
800093f8:	e28bd000 	add	sp, fp, #0
800093fc:	e49db004 	pop	{fp}		; (ldr fp, [sp], #4)
80009400:	e12fff1e 	bx	lr
80009404:	e92d4800 	push	{fp, lr}
80009408:	e28db004 	add	fp, sp, #4
8000940c:	e24dd010 	sub	sp, sp, #16
80009410:	e50b0010 	str	r0, [fp, #-16]
80009414:	e50b1014 	str	r1, [fp, #-20]	; 0xffffffec
80009418:	e3a03000 	mov	r3, #0
8000941c:	e50b3008 	str	r3, [fp, #-8]
80009420:	e3a03000 	mov	r3, #0
80009424:	e50b300c 	str	r3, [fp, #-12]
80009428:	e3a010bf 	mov	r1, #191	; 0xbf
8000942c:	e51b0010 	ldr	r0, [fp, #-16]
80009430:	ebfff902 	bl	0x80007840
80009434:	e50b0008 	str	r0, [fp, #-8]
80009438:	e51b3010 	ldr	r3, [fp, #-16]
8000943c:	e2833008 	add	r3, r3, #8
80009440:	e5933000 	ldr	r3, [r3]
80009444:	e2033010 	and	r3, r3, #16
80009448:	e50b300c 	str	r3, [fp, #-12]
8000944c:	e51b3010 	ldr	r3, [fp, #-16]
80009450:	e2833008 	add	r3, r3, #8
80009454:	e1a02003 	mov	r2, r3
80009458:	e51b3010 	ldr	r3, [fp, #-16]
8000945c:	e2833008 	add	r3, r3, #8
80009460:	e5933000 	ldr	r3, [r3]
80009464:	e3833010 	orr	r3, r3, #16
80009468:	e5823000 	str	r3, [r2]
8000946c:	e51b3010 	ldr	r3, [fp, #-16]
80009470:	e2833010 	add	r3, r3, #16
80009474:	e1a02003 	mov	r2, r3
80009478:	e51b3010 	ldr	r3, [fp, #-16]
8000947c:	e2833010 	add	r3, r3, #16
80009480:	e5933000 	ldr	r3, [r3]
80009484:	e3c33020 	bic	r3, r3, #32
80009488:	e5823000 	str	r3, [r2]
8000948c:	e51b3010 	ldr	r3, [fp, #-16]
80009490:	e2833010 	add	r3, r3, #16
80009494:	e1a01003 	mov	r1, r3
80009498:	e51b3010 	ldr	r3, [fp, #-16]
8000949c:	e2833010 	add	r3, r3, #16
800094a0:	e5932000 	ldr	r2, [r3]
800094a4:	e51b3014 	ldr	r3, [fp, #-20]	; 0xffffffec
800094a8:	e2033020 	and	r3, r3, #32
800094ac:	e1823003 	orr	r3, r2, r3
800094b0:	e5813000 	str	r3, [r1]
800094b4:	e51b3010 	ldr	r3, [fp, #-16]
800094b8:	e2833008 	add	r3, r3, #8
800094bc:	e1a02003 	mov	r2, r3
800094c0:	e51b3010 	ldr	r3, [fp, #-16]
800094c4:	e2833008 	add	r3, r3, #8
800094c8:	e5933000 	ldr	r3, [r3]
800094cc:	e3c33010 	bic	r3, r3, #16
800094d0:	e5823000 	str	r3, [r2]
800094d4:	e51b3010 	ldr	r3, [fp, #-16]
800094d8:	e2833008 	add	r3, r3, #8
800094dc:	e1a01003 	mov	r1, r3
800094e0:	e51b3010 	ldr	r3, [fp, #-16]
800094e4:	e2833008 	add	r3, r3, #8
800094e8:	e5932000 	ldr	r2, [r3]
800094ec:	e51b300c 	ldr	r3, [fp, #-12]
800094f0:	e1823003 	orr	r3, r2, r3
800094f4:	e5813000 	str	r3, [r1]
800094f8:	e51b3010 	ldr	r3, [fp, #-16]
800094fc:	e283300c 	add	r3, r3, #12
80009500:	e1a02003 	mov	r2, r3
80009504:	e51b3008 	ldr	r3, [fp, #-8]
80009508:	e5823000 	str	r3, [r2]
8000950c:	e320f000 	nop	{0}
80009510:	e24bd004 	sub	sp, fp, #4
80009514:	e8bd8800 	pop	{fp, pc}
80009518:	e52db004 	push	{fp}		; (str fp, [sp, #-4]!)
8000951c:	e28db000 	add	fp, sp, #0
80009520:	e24dd00c 	sub	sp, sp, #12
80009524:	e50b0008 	str	r0, [fp, #-8]
80009528:	e50b100c 	str	r1, [fp, #-12]
8000952c:	e51b3008 	ldr	r3, [fp, #-8]
80009530:	e2833010 	add	r3, r3, #16
80009534:	e1a02003 	mov	r2, r3
80009538:	e51b3008 	ldr	r3, [fp, #-8]
8000953c:	e2833010 	add	r3, r3, #16
80009540:	e5933000 	ldr	r3, [r3]
80009544:	e3c33010 	bic	r3, r3, #16
80009548:	e5823000 	str	r3, [r2]
8000954c:	e51b3008 	ldr	r3, [fp, #-8]
80009550:	e2833010 	add	r3, r3, #16
80009554:	e1a01003 	mov	r1, r3
80009558:	e51b3008 	ldr	r3, [fp, #-8]
8000955c:	e2833010 	add	r3, r3, #16
80009560:	e5932000 	ldr	r2, [r3]
80009564:	e51b300c 	ldr	r3, [fp, #-12]
80009568:	e2033010 	and	r3, r3, #16
8000956c:	e1823003 	orr	r3, r2, r3
80009570:	e5813000 	str	r3, [r1]
80009574:	e320f000 	nop	{0}
80009578:	e28bd000 	add	sp, fp, #0
8000957c:	e49db004 	pop	{fp}		; (ldr fp, [sp], #4)
80009580:	e12fff1e 	bx	lr
80009584:	e52db004 	push	{fp}		; (str fp, [sp, #-4]!)
80009588:	e28db000 	add	fp, sp, #0
8000958c:	e24dd00c 	sub	sp, sp, #12
80009590:	e50b0008 	str	r0, [fp, #-8]
80009594:	e50b100c 	str	r1, [fp, #-12]
80009598:	e51b3008 	ldr	r3, [fp, #-8]
8000959c:	e2833010 	add	r3, r3, #16
800095a0:	e1a01003 	mov	r1, r3
800095a4:	e51b3008 	ldr	r3, [fp, #-8]
800095a8:	e2833010 	add	r3, r3, #16
800095ac:	e5932000 	ldr	r2, [r3]
800095b0:	e51b300c 	ldr	r3, [fp, #-12]
800095b4:	e203300f 	and	r3, r3, #15
800095b8:	e1823003 	orr	r3, r2, r3
800095bc:	e5813000 	str	r3, [r1]
800095c0:	e320f000 	nop	{0}
800095c4:	e28bd000 	add	sp, fp, #0
800095c8:	e49db004 	pop	{fp}		; (ldr fp, [sp], #4)
800095cc:	e12fff1e 	bx	lr
800095d0:	e52db004 	push	{fp}		; (str fp, [sp, #-4]!)
800095d4:	e28db000 	add	fp, sp, #0
800095d8:	e24dd00c 	sub	sp, sp, #12
800095dc:	e50b0008 	str	r0, [fp, #-8]
800095e0:	e50b100c 	str	r1, [fp, #-12]
800095e4:	e51b3008 	ldr	r3, [fp, #-8]
800095e8:	e2833010 	add	r3, r3, #16
800095ec:	e1a01003 	mov	r1, r3
800095f0:	e51b3008 	ldr	r3, [fp, #-8]
800095f4:	e2833010 	add	r3, r3, #16
800095f8:	e5932000 	ldr	r2, [r3]
800095fc:	e51b300c 	ldr	r3, [fp, #-12]
80009600:	e203300f 	and	r3, r3, #15
80009604:	e1e03003 	mvn	r3, r3
80009608:	e0033002 	and	r3, r3, r2
8000960c:	e5813000 	str	r3, [r1]
80009610:	e320f000 	nop	{0}
80009614:	e28bd000 	add	sp, fp, #0
80009618:	e49db004 	pop	{fp}		; (ldr fp, [sp], #4)
8000961c:	e12fff1e 	bx	lr
80009620:	e52db004 	push	{fp}		; (str fp, [sp, #-4]!)
80009624:	e28db000 	add	fp, sp, #0
80009628:	e24dd00c 	sub	sp, sp, #12
8000962c:	e50b0008 	str	r0, [fp, #-8]
80009630:	e51b3008 	ldr	r3, [fp, #-8]
80009634:	e2833018 	add	r3, r3, #24
80009638:	e5933000 	ldr	r3, [r3]
8000963c:	e20330f0 	and	r3, r3, #240	; 0xf0
80009640:	e1a00003 	mov	r0, r3
80009644:	e28bd000 	add	sp, fp, #0
80009648:	e49db004 	pop	{fp}		; (ldr fp, [sp], #4)
8000964c:	e12fff1e 	bx	lr
80009650:	e52db004 	push	{fp}		; (str fp, [sp, #-4]!)
80009654:	e28db000 	add	fp, sp, #0
80009658:	e24dd00c 	sub	sp, sp, #12
8000965c:	e50b0008 	str	r0, [fp, #-8]
80009660:	e51b3008 	ldr	r3, [fp, #-8]
80009664:	e2833018 	add	r3, r3, #24
80009668:	e5933000 	ldr	r3, [r3]
8000966c:	e203300f 	and	r3, r3, #15
80009670:	e1a00003 	mov	r0, r3
80009674:	e28bd000 	add	sp, fp, #0
80009678:	e49db004 	pop	{fp}		; (ldr fp, [sp], #4)
8000967c:	e12fff1e 	bx	lr
80009680:	e52db004 	push	{fp}		; (str fp, [sp, #-4]!)
80009684:	e28db000 	add	fp, sp, #0
80009688:	e24dd00c 	sub	sp, sp, #12
8000968c:	e50b0008 	str	r0, [fp, #-8]
80009690:	e51b3008 	ldr	r3, [fp, #-8]
80009694:	e283302c 	add	r3, r3, #44	; 0x2c
80009698:	e5933000 	ldr	r3, [r3]
8000969c:	e320f000 	nop	{0}
800096a0:	e28bd000 	add	sp, fp, #0
800096a4:	e49db004 	pop	{fp}		; (ldr fp, [sp], #4)
800096a8:	e12fff1e 	bx	lr
800096ac:	e52db004 	push	{fp}		; (str fp, [sp, #-4]!)
800096b0:	e28db000 	add	fp, sp, #0
800096b4:	e24dd00c 	sub	sp, sp, #12
800096b8:	e50b0008 	str	r0, [fp, #-8]
800096bc:	e50b100c 	str	r1, [fp, #-12]
800096c0:	e51b3008 	ldr	r3, [fp, #-8]
800096c4:	e283305c 	add	r3, r3, #92	; 0x5c
800096c8:	e1a01003 	mov	r1, r3
800096cc:	e51b3008 	ldr	r3, [fp, #-8]
800096d0:	e283305c 	add	r3, r3, #92	; 0x5c
800096d4:	e5932000 	ldr	r2, [r3]
800096d8:	e51b300c 	ldr	r3, [fp, #-12]
800096dc:	e6ef3073 	uxtb	r3, r3
800096e0:	e1823003 	orr	r3, r2, r3
800096e4:	e5813000 	str	r3, [r1]
800096e8:	e320f000 	nop	{0}
800096ec:	e28bd000 	add	sp, fp, #0
800096f0:	e49db004 	pop	{fp}		; (ldr fp, [sp], #4)
800096f4:	e12fff1e 	bx	lr
800096f8:	e52db004 	push	{fp}		; (str fp, [sp, #-4]!)
800096fc:	e28db000 	add	fp, sp, #0
80009700:	e24dd00c 	sub	sp, sp, #12
80009704:	e50b0008 	str	r0, [fp, #-8]
80009708:	e50b100c 	str	r1, [fp, #-12]
8000970c:	e51b3008 	ldr	r3, [fp, #-8]
80009710:	e283305c 	add	r3, r3, #92	; 0x5c
80009714:	e1a01003 	mov	r1, r3
80009718:	e51b3008 	ldr	r3, [fp, #-8]
8000971c:	e283305c 	add	r3, r3, #92	; 0x5c
80009720:	e5932000 	ldr	r2, [r3]
80009724:	e51b300c 	ldr	r3, [fp, #-12]
80009728:	e6ef3073 	uxtb	r3, r3
8000972c:	e1e03003 	mvn	r3, r3
80009730:	e0033002 	and	r3, r3, r2
80009734:	e5813000 	str	r3, [r1]
80009738:	e320f000 	nop	{0}
8000973c:	e28bd000 	add	sp, fp, #0
80009740:	e49db004 	pop	{fp}		; (ldr fp, [sp], #4)
80009744:	e12fff1e 	bx	lr
80009748:	e52db004 	push	{fp}		; (str fp, [sp, #-4]!)
8000974c:	e28db000 	add	fp, sp, #0
80009750:	e24dd014 	sub	sp, sp, #20
80009754:	e50b0008 	str	r0, [fp, #-8]
80009758:	e50b100c 	str	r1, [fp, #-12]
8000975c:	e50b2010 	str	r2, [fp, #-16]
80009760:	e51b3008 	ldr	r3, [fp, #-8]
80009764:	e2833040 	add	r3, r3, #64	; 0x40
80009768:	e1a02003 	mov	r2, r3
8000976c:	e51b3008 	ldr	r3, [fp, #-8]
80009770:	e2833040 	add	r3, r3, #64	; 0x40
80009774:	e5933000 	ldr	r3, [r3]
80009778:	e3c330c0 	bic	r3, r3, #192	; 0xc0
8000977c:	e5823000 	str	r3, [r2]
80009780:	e51b3008 	ldr	r3, [fp, #-8]
80009784:	e2833040 	add	r3, r3, #64	; 0x40
80009788:	e1a01003 	mov	r1, r3
8000978c:	e51b3008 	ldr	r3, [fp, #-8]
80009790:	e2833040 	add	r3, r3, #64	; 0x40
80009794:	e5932000 	ldr	r2, [r3]
80009798:	e51b300c 	ldr	r3, [fp, #-12]
8000979c:	e2033080 	and	r3, r3, #128	; 0x80
800097a0:	e1823003 	orr	r3, r2, r3
800097a4:	e5813000 	str	r3, [r1]
800097a8:	e51b3008 	ldr	r3, [fp, #-8]
800097ac:	e2833040 	add	r3, r3, #64	; 0x40
800097b0:	e1a01003 	mov	r1, r3
800097b4:	e51b3008 	ldr	r3, [fp, #-8]
800097b8:	e2833040 	add	r3, r3, #64	; 0x40
800097bc:	e5932000 	ldr	r2, [r3]
800097c0:	e51b3010 	ldr	r3, [fp, #-16]
800097c4:	e2033040 	and	r3, r3, #64	; 0x40
800097c8:	e1823003 	orr	r3, r2, r3
800097cc:	e5813000 	str	r3, [r1]
800097d0:	e320f000 	nop	{0}
800097d4:	e28bd000 	add	sp, fp, #0
800097d8:	e49db004 	pop	{fp}		; (ldr fp, [sp], #4)
800097dc:	e12fff1e 	bx	lr
800097e0:	e52db004 	push	{fp}		; (str fp, [sp, #-4]!)
800097e4:	e28db000 	add	fp, sp, #0
800097e8:	e24dd00c 	sub	sp, sp, #12
800097ec:	e50b0008 	str	r0, [fp, #-8]
800097f0:	e50b100c 	str	r1, [fp, #-12]
800097f4:	e51b3008 	ldr	r3, [fp, #-8]
800097f8:	e2833040 	add	r3, r3, #64	; 0x40
800097fc:	e1a02003 	mov	r2, r3
80009800:	e51b3008 	ldr	r3, [fp, #-8]
80009804:	e2833040 	add	r3, r3, #64	; 0x40
80009808:	e5933000 	ldr	r3, [r3]
8000980c:	e3c33020 	bic	r3, r3, #32
80009810:	e5823000 	str	r3, [r2]
80009814:	e51b3008 	ldr	r3, [fp, #-8]
80009818:	e2833040 	add	r3, r3, #64	; 0x40
8000981c:	e1a01003 	mov	r1, r3
80009820:	e51b3008 	ldr	r3, [fp, #-8]
80009824:	e2833040 	add	r3, r3, #64	; 0x40
80009828:	e5932000 	ldr	r2, [r3]
8000982c:	e51b300c 	ldr	r3, [fp, #-12]
80009830:	e2033020 	and	r3, r3, #32
80009834:	e1823003 	orr	r3, r2, r3
80009838:	e5813000 	str	r3, [r1]
8000983c:	e320f000 	nop	{0}
80009840:	e28bd000 	add	sp, fp, #0
80009844:	e49db004 	pop	{fp}		; (ldr fp, [sp], #4)
80009848:	e12fff1e 	bx	lr
8000984c:	e52db004 	push	{fp}		; (str fp, [sp, #-4]!)
80009850:	e28db000 	add	fp, sp, #0
80009854:	e24dd00c 	sub	sp, sp, #12
80009858:	e50b0008 	str	r0, [fp, #-8]
8000985c:	e50b100c 	str	r1, [fp, #-12]
80009860:	e51b3008 	ldr	r3, [fp, #-8]
80009864:	e2833040 	add	r3, r3, #64	; 0x40
80009868:	e1a02003 	mov	r2, r3
8000986c:	e51b3008 	ldr	r3, [fp, #-8]
80009870:	e2833040 	add	r3, r3, #64	; 0x40
80009874:	e5933000 	ldr	r3, [r3]
80009878:	e3c33008 	bic	r3, r3, #8
8000987c:	e5823000 	str	r3, [r2]
80009880:	e51b3008 	ldr	r3, [fp, #-8]
80009884:	e2833040 	add	r3, r3, #64	; 0x40
80009888:	e1a01003 	mov	r1, r3
8000988c:	e51b3008 	ldr	r3, [fp, #-8]
80009890:	e2833040 	add	r3, r3, #64	; 0x40
80009894:	e5932000 	ldr	r2, [r3]
80009898:	e51b300c 	ldr	r3, [fp, #-12]
8000989c:	e2033008 	and	r3, r3, #8
800098a0:	e1823003 	orr	r3, r2, r3
800098a4:	e5813000 	str	r3, [r1]
800098a8:	e320f000 	nop	{0}
800098ac:	e28bd000 	add	sp, fp, #0
800098b0:	e49db004 	pop	{fp}		; (ldr fp, [sp], #4)
800098b4:	e12fff1e 	bx	lr
800098b8:	e52db004 	push	{fp}		; (str fp, [sp, #-4]!)
800098bc:	e28db000 	add	fp, sp, #0
800098c0:	e24dd00c 	sub	sp, sp, #12
800098c4:	e50b0008 	str	r0, [fp, #-8]
800098c8:	e50b100c 	str	r1, [fp, #-12]
800098cc:	e51b3008 	ldr	r3, [fp, #-8]
800098d0:	e2833040 	add	r3, r3, #64	; 0x40
800098d4:	e1a02003 	mov	r2, r3
800098d8:	e51b3008 	ldr	r3, [fp, #-8]
800098dc:	e2833040 	add	r3, r3, #64	; 0x40
800098e0:	e5933000 	ldr	r3, [r3]
800098e4:	e3c33010 	bic	r3, r3, #16
800098e8:	e5823000 	str	r3, [r2]
800098ec:	e51b3008 	ldr	r3, [fp, #-8]
800098f0:	e2833040 	add	r3, r3, #64	; 0x40
800098f4:	e1a01003 	mov	r1, r3
800098f8:	e51b3008 	ldr	r3, [fp, #-8]
800098fc:	e2833040 	add	r3, r3, #64	; 0x40
80009900:	e5932000 	ldr	r2, [r3]
80009904:	e51b300c 	ldr	r3, [fp, #-12]
80009908:	e2033010 	and	r3, r3, #16
8000990c:	e1823003 	orr	r3, r2, r3
80009910:	e5813000 	str	r3, [r1]
80009914:	e320f000 	nop	{0}
80009918:	e28bd000 	add	sp, fp, #0
8000991c:	e49db004 	pop	{fp}		; (ldr fp, [sp], #4)
80009920:	e12fff1e 	bx	lr
80009924:	e52db004 	push	{fp}		; (str fp, [sp, #-4]!)
80009928:	e28db000 	add	fp, sp, #0
8000992c:	e24dd00c 	sub	sp, sp, #12
80009930:	e50b0008 	str	r0, [fp, #-8]
80009934:	e51b3008 	ldr	r3, [fp, #-8]
80009938:	e2833044 	add	r3, r3, #68	; 0x44
8000993c:	e5933000 	ldr	r3, [r3]
80009940:	e2033002 	and	r3, r3, #2
80009944:	e1a00003 	mov	r0, r3
80009948:	e28bd000 	add	sp, fp, #0
8000994c:	e49db004 	pop	{fp}		; (ldr fp, [sp], #4)
80009950:	e12fff1e 	bx	lr
80009954:	e52db004 	push	{fp}		; (str fp, [sp, #-4]!)
80009958:	e28db000 	add	fp, sp, #0
8000995c:	e24dd00c 	sub	sp, sp, #12
80009960:	e50b0008 	str	r0, [fp, #-8]
80009964:	e50b100c 	str	r1, [fp, #-12]
80009968:	e51b3008 	ldr	r3, [fp, #-8]
8000996c:	e2833044 	add	r3, r3, #68	; 0x44
80009970:	e1a02003 	mov	r2, r3
80009974:	e51b3008 	ldr	r3, [fp, #-8]
80009978:	e2833044 	add	r3, r3, #68	; 0x44
8000997c:	e5933000 	ldr	r3, [r3]
80009980:	e3c33004 	bic	r3, r3, #4
80009984:	e5823000 	str	r3, [r2]
80009988:	e51b3008 	ldr	r3, [fp, #-8]
8000998c:	e2833044 	add	r3, r3, #68	; 0x44
80009990:	e1a01003 	mov	r1, r3
80009994:	e51b3008 	ldr	r3, [fp, #-8]
80009998:	e2833044 	add	r3, r3, #68	; 0x44
8000999c:	e5932000 	ldr	r2, [r3]
800099a0:	e51b300c 	ldr	r3, [fp, #-12]
800099a4:	e2033004 	and	r3, r3, #4
800099a8:	e1823003 	orr	r3, r2, r3
800099ac:	e5813000 	str	r3, [r1]
800099b0:	e320f000 	nop	{0}
800099b4:	e28bd000 	add	sp, fp, #0
800099b8:	e49db004 	pop	{fp}		; (ldr fp, [sp], #4)
800099bc:	e12fff1e 	bx	lr
800099c0:	e52db004 	push	{fp}		; (str fp, [sp, #-4]!)
800099c4:	e28db000 	add	fp, sp, #0
800099c8:	e24dd00c 	sub	sp, sp, #12
800099cc:	e50b0008 	str	r0, [fp, #-8]
800099d0:	e51b3008 	ldr	r3, [fp, #-8]
800099d4:	e2833044 	add	r3, r3, #68	; 0x44
800099d8:	e5933000 	ldr	r3, [r3]
800099dc:	e2033001 	and	r3, r3, #1
800099e0:	e1a00003 	mov	r0, r3
800099e4:	e28bd000 	add	sp, fp, #0
800099e8:	e49db004 	pop	{fp}		; (ldr fp, [sp], #4)
800099ec:	e12fff1e 	bx	lr
800099f0:	e52db004 	push	{fp}		; (str fp, [sp, #-4]!)
800099f4:	e28db000 	add	fp, sp, #0
800099f8:	e24dd00c 	sub	sp, sp, #12
800099fc:	e50b0008 	str	r0, [fp, #-8]
80009a00:	e51b3008 	ldr	r3, [fp, #-8]
80009a04:	e2833068 	add	r3, r3, #104	; 0x68
80009a08:	e5933000 	ldr	r3, [r3]
80009a0c:	e1a00003 	mov	r0, r3
80009a10:	e28bd000 	add	sp, fp, #0
80009a14:	e49db004 	pop	{fp}		; (ldr fp, [sp], #4)
80009a18:	e12fff1e 	bx	lr
80009a1c:	e52db004 	push	{fp}		; (str fp, [sp, #-4]!)
80009a20:	e28db000 	add	fp, sp, #0
80009a24:	e24dd00c 	sub	sp, sp, #12
80009a28:	e50b0008 	str	r0, [fp, #-8]
80009a2c:	e51b3008 	ldr	r3, [fp, #-8]
80009a30:	e2833064 	add	r3, r3, #100	; 0x64
80009a34:	e5933000 	ldr	r3, [r3]
80009a38:	e1a00003 	mov	r0, r3
80009a3c:	e28bd000 	add	sp, fp, #0
80009a40:	e49db004 	pop	{fp}		; (ldr fp, [sp], #4)
80009a44:	e12fff1e 	bx	lr
80009a48:	e92d4800 	push	{fp, lr}
80009a4c:	e28db004 	add	fp, sp, #4
80009a50:	e24dd010 	sub	sp, sp, #16
80009a54:	e50b0010 	str	r0, [fp, #-16]
80009a58:	e3a03000 	mov	r3, #0
80009a5c:	e50b3008 	str	r3, [fp, #-8]
80009a60:	e3a03000 	mov	r3, #0
80009a64:	e50b300c 	str	r3, [fp, #-12]
80009a68:	e3a01080 	mov	r1, #128	; 0x80
80009a6c:	e51b0010 	ldr	r0, [fp, #-16]
80009a70:	ebfff772 	bl	0x80007840
80009a74:	e50b0008 	str	r0, [fp, #-8]
80009a78:	e51b3010 	ldr	r3, [fp, #-16]
80009a7c:	e2833038 	add	r3, r3, #56	; 0x38
80009a80:	e5933000 	ldr	r3, [r3]
80009a84:	e20330c0 	and	r3, r3, #192	; 0xc0
80009a88:	e50b300c 	str	r3, [fp, #-12]
80009a8c:	e51b3010 	ldr	r3, [fp, #-16]
80009a90:	e283300c 	add	r3, r3, #12
80009a94:	e1a02003 	mov	r2, r3
80009a98:	e51b3008 	ldr	r3, [fp, #-8]
80009a9c:	e5823000 	str	r3, [r2]
80009aa0:	e51b300c 	ldr	r3, [fp, #-12]
80009aa4:	e1a00003 	mov	r0, r3
80009aa8:	e24bd004 	sub	sp, fp, #4
80009aac:	e8bd8800 	pop	{fp, pc}
80009ab0:	e92d4800 	push	{fp, lr}
80009ab4:	e28db004 	add	fp, sp, #4
80009ab8:	e24dd010 	sub	sp, sp, #16
80009abc:	e50b0010 	str	r0, [fp, #-16]
80009ac0:	e3a03000 	mov	r3, #0
80009ac4:	e50b3008 	str	r3, [fp, #-8]
80009ac8:	e3a03000 	mov	r3, #0
80009acc:	e50b300c 	str	r3, [fp, #-12]
80009ad0:	e3a01080 	mov	r1, #128	; 0x80
80009ad4:	e51b0010 	ldr	r0, [fp, #-16]
80009ad8:	ebfff758 	bl	0x80007840
80009adc:	e50b0008 	str	r0, [fp, #-8]
80009ae0:	e51b3010 	ldr	r3, [fp, #-16]
80009ae4:	e2833038 	add	r3, r3, #56	; 0x38
80009ae8:	e5933000 	ldr	r3, [r3]
80009aec:	e2033020 	and	r3, r3, #32
80009af0:	e50b300c 	str	r3, [fp, #-12]
80009af4:	e51b3010 	ldr	r3, [fp, #-16]
80009af8:	e283300c 	add	r3, r3, #12
80009afc:	e1a02003 	mov	r2, r3
80009b00:	e51b3008 	ldr	r3, [fp, #-8]
80009b04:	e5823000 	str	r3, [r2]
80009b08:	e51b300c 	ldr	r3, [fp, #-12]
80009b0c:	e1a00003 	mov	r0, r3
80009b10:	e24bd004 	sub	sp, fp, #4
80009b14:	e8bd8800 	pop	{fp, pc}
80009b18:	e92d4800 	push	{fp, lr}
80009b1c:	e28db004 	add	fp, sp, #4
80009b20:	e24dd010 	sub	sp, sp, #16
80009b24:	e50b0010 	str	r0, [fp, #-16]
80009b28:	e3a03000 	mov	r3, #0
80009b2c:	e50b3008 	str	r3, [fp, #-8]
80009b30:	e3a03000 	mov	r3, #0
80009b34:	e50b300c 	str	r3, [fp, #-12]
80009b38:	e3a01080 	mov	r1, #128	; 0x80
80009b3c:	e51b0010 	ldr	r0, [fp, #-16]
80009b40:	ebfff73e 	bl	0x80007840
80009b44:	e50b0008 	str	r0, [fp, #-8]
80009b48:	e51b3010 	ldr	r3, [fp, #-16]
80009b4c:	e2833038 	add	r3, r3, #56	; 0x38
80009b50:	e5933000 	ldr	r3, [r3]
80009b54:	e203301f 	and	r3, r3, #31
80009b58:	e50b300c 	str	r3, [fp, #-12]
80009b5c:	e51b3010 	ldr	r3, [fp, #-16]
80009b60:	e283300c 	add	r3, r3, #12
80009b64:	e1a02003 	mov	r2, r3
80009b68:	e51b3008 	ldr	r3, [fp, #-8]
80009b6c:	e5823000 	str	r3, [r2]
80009b70:	e51b300c 	ldr	r3, [fp, #-12]
80009b74:	e1a00003 	mov	r0, r3
80009b78:	e24bd004 	sub	sp, fp, #4
80009b7c:	e8bd8800 	pop	{fp, pc}
80009b80:	e52db004 	push	{fp}		; (str fp, [sp, #-4]!)
80009b84:	e28db000 	add	fp, sp, #0
80009b88:	e24dd00c 	sub	sp, sp, #12
80009b8c:	e50b0008 	str	r0, [fp, #-8]
80009b90:	e50b100c 	str	r1, [fp, #-12]
80009b94:	e51b3008 	ldr	r3, [fp, #-8]
80009b98:	e283301c 	add	r3, r3, #28
80009b9c:	e1a02003 	mov	r2, r3
80009ba0:	e51b3008 	ldr	r3, [fp, #-8]
80009ba4:	e283301c 	add	r3, r3, #28
80009ba8:	e5933000 	ldr	r3, [r3]
80009bac:	e3c330ff 	bic	r3, r3, #255	; 0xff
80009bb0:	e5823000 	str	r3, [r2]
80009bb4:	e51b3008 	ldr	r3, [fp, #-8]
80009bb8:	e283301c 	add	r3, r3, #28
80009bbc:	e1a01003 	mov	r1, r3
80009bc0:	e51b3008 	ldr	r3, [fp, #-8]
80009bc4:	e283301c 	add	r3, r3, #28
80009bc8:	e5932000 	ldr	r2, [r3]
80009bcc:	e51b300c 	ldr	r3, [fp, #-12]
80009bd0:	e6ef3073 	uxtb	r3, r3
80009bd4:	e1823003 	orr	r3, r2, r3
80009bd8:	e5813000 	str	r3, [r1]
80009bdc:	e320f000 	nop	{0}
80009be0:	e28bd000 	add	sp, fp, #0
80009be4:	e49db004 	pop	{fp}		; (ldr fp, [sp], #4)
80009be8:	e12fff1e 	bx	lr
80009bec:	e52db004 	push	{fp}		; (str fp, [sp, #-4]!)
80009bf0:	e28db000 	add	fp, sp, #0
80009bf4:	e24dd00c 	sub	sp, sp, #12
80009bf8:	e50b0008 	str	r0, [fp, #-8]
80009bfc:	e51b3008 	ldr	r3, [fp, #-8]
80009c00:	e283301c 	add	r3, r3, #28
80009c04:	e5933000 	ldr	r3, [r3]
80009c08:	e6ef3073 	uxtb	r3, r3
80009c0c:	e1a00003 	mov	r0, r3
80009c10:	e28bd000 	add	sp, fp, #0
80009c14:	e49db004 	pop	{fp}		; (ldr fp, [sp], #4)
80009c18:	e12fff1e 	bx	lr
80009c1c:	e52db004 	push	{fp}		; (str fp, [sp, #-4]!)
80009c20:	e28db000 	add	fp, sp, #0
80009c24:	e24dd00c 	sub	sp, sp, #12
80009c28:	e50b0008 	str	r0, [fp, #-8]
80009c2c:	e51b3008 	ldr	r3, [fp, #-8]
80009c30:	e2833050 	add	r3, r3, #80	; 0x50
80009c34:	e5933000 	ldr	r3, [r3]
80009c38:	e6ef3073 	uxtb	r3, r3
80009c3c:	e1a00003 	mov	r0, r3
80009c40:	e28bd000 	add	sp, fp, #0
80009c44:	e49db004 	pop	{fp}		; (ldr fp, [sp], #4)
80009c48:	e12fff1e 	bx	lr
80009c4c:	e52db004 	push	{fp}		; (str fp, [sp, #-4]!)
80009c50:	e28db000 	add	fp, sp, #0
80009c54:	e24dd00c 	sub	sp, sp, #12
80009c58:	e50b0008 	str	r0, [fp, #-8]
80009c5c:	e50b100c 	str	r1, [fp, #-12]
80009c60:	e51b3008 	ldr	r3, [fp, #-8]
80009c64:	e2833080 	add	r3, r3, #128	; 0x80
80009c68:	e1a02003 	mov	r2, r3
80009c6c:	e51b3008 	ldr	r3, [fp, #-8]
80009c70:	e2833080 	add	r3, r3, #128	; 0x80
80009c74:	e5933000 	ldr	r3, [r3]
80009c78:	e3c33004 	bic	r3, r3, #4
80009c7c:	e5823000 	str	r3, [r2]
80009c80:	e51b3008 	ldr	r3, [fp, #-8]
80009c84:	e2833080 	add	r3, r3, #128	; 0x80
80009c88:	e1a01003 	mov	r1, r3
80009c8c:	e51b3008 	ldr	r3, [fp, #-8]
80009c90:	e2833080 	add	r3, r3, #128	; 0x80
80009c94:	e5932000 	ldr	r2, [r3]
80009c98:	e51b300c 	ldr	r3, [fp, #-12]
80009c9c:	e2033004 	and	r3, r3, #4
80009ca0:	e1823003 	orr	r3, r2, r3
80009ca4:	e5813000 	str	r3, [r1]
80009ca8:	e320f000 	nop	{0}
80009cac:	e28bd000 	add	sp, fp, #0
80009cb0:	e49db004 	pop	{fp}		; (ldr fp, [sp], #4)
80009cb4:	e12fff1e 	bx	lr
80009cb8:	e52db004 	push	{fp}		; (str fp, [sp, #-4]!)
80009cbc:	e28db000 	add	fp, sp, #0
80009cc0:	e24dd00c 	sub	sp, sp, #12
80009cc4:	e50b0008 	str	r0, [fp, #-8]
80009cc8:	e50b100c 	str	r1, [fp, #-12]
80009ccc:	e51b3008 	ldr	r3, [fp, #-8]
80009cd0:	e2833084 	add	r3, r3, #132	; 0x84
80009cd4:	e1a02003 	mov	r2, r3
80009cd8:	e51b3008 	ldr	r3, [fp, #-8]
80009cdc:	e2833084 	add	r3, r3, #132	; 0x84
80009ce0:	e5933000 	ldr	r3, [r3]
80009ce4:	e3c3303f 	bic	r3, r3, #63	; 0x3f
80009ce8:	e5823000 	str	r3, [r2]
80009cec:	e51b3008 	ldr	r3, [fp, #-8]
80009cf0:	e2833084 	add	r3, r3, #132	; 0x84
80009cf4:	e1a01003 	mov	r1, r3
80009cf8:	e51b3008 	ldr	r3, [fp, #-8]
80009cfc:	e2833084 	add	r3, r3, #132	; 0x84
80009d00:	e5932000 	ldr	r2, [r3]
80009d04:	e51b300c 	ldr	r3, [fp, #-12]
80009d08:	e203303f 	and	r3, r3, #63	; 0x3f
80009d0c:	e1823003 	orr	r3, r2, r3
80009d10:	e5813000 	str	r3, [r1]
80009d14:	e320f000 	nop	{0}
80009d18:	e28bd000 	add	sp, fp, #0
80009d1c:	e49db004 	pop	{fp}		; (ldr fp, [sp], #4)
80009d20:	e12fff1e 	bx	lr
80009d24:	e92d4800 	push	{fp, lr}
80009d28:	e28db004 	add	fp, sp, #4
80009d2c:	e24dd010 	sub	sp, sp, #16
80009d30:	e50b0008 	str	r0, [fp, #-8]
80009d34:	e50b100c 	str	r1, [fp, #-12]
80009d38:	e50b2010 	str	r2, [fp, #-16]
80009d3c:	e3a00a09 	mov	r0, #36864	; 0x9000
80009d40:	e34404e0 	movt	r0, #17632	; 0x44e0
80009d44:	ebfffd00 	bl	0x8000914c
80009d48:	e51b100c 	ldr	r1, [fp, #-12]
80009d4c:	e51b0010 	ldr	r0, [fp, #-16]
80009d50:	eb000018 	bl	0x80009db8
80009d54:	e51b0008 	ldr	r0, [fp, #-8]
80009d58:	eb00002e 	bl	0x80009e18
80009d5c:	e3a010bf 	mov	r1, #191	; 0xbf
80009d60:	e3a00a09 	mov	r0, #36864	; 0x9000
80009d64:	e34404e0 	movt	r0, #17632	; 0x44e0
80009d68:	ebfff6b4 	bl	0x80007840
80009d6c:	e3a02000 	mov	r2, #0
80009d70:	e3a01003 	mov	r1, #3
80009d74:	e3a00a09 	mov	r0, #36864	; 0x9000
80009d78:	e34404e0 	movt	r0, #17632	; 0x44e0
80009d7c:	ebfff700 	bl	0x80007984
80009d80:	e3a00a09 	mov	r0, #36864	; 0x9000
80009d84:	e34404e0 	movt	r0, #17632	; 0x44e0
80009d88:	ebfff69c 	bl	0x80007800
80009d8c:	e3a01000 	mov	r1, #0
80009d90:	e3a00a09 	mov	r0, #36864	; 0x9000
80009d94:	e34404e0 	movt	r0, #17632	; 0x44e0
80009d98:	ebfff6de 	bl	0x80007918
80009d9c:	e3a01000 	mov	r1, #0
80009da0:	e3a00a09 	mov	r0, #36864	; 0x9000
80009da4:	e34404e0 	movt	r0, #17632	; 0x44e0
80009da8:	ebfff5ac 	bl	0x80007460
80009dac:	e320f000 	nop	{0}
80009db0:	e24bd004 	sub	sp, fp, #4
80009db4:	e8bd8800 	pop	{fp, pc}
80009db8:	e92d4800 	push	{fp, lr}
80009dbc:	e28db004 	add	fp, sp, #4
80009dc0:	e24dd010 	sub	sp, sp, #16
80009dc4:	e50b0010 	str	r0, [fp, #-16]
80009dc8:	e50b1014 	str	r1, [fp, #-20]	; 0xffffffec
80009dcc:	e3a03000 	mov	r3, #0
80009dd0:	e50b3008 	str	r3, [fp, #-8]
80009dd4:	e51b3010 	ldr	r3, [fp, #-16]
80009dd8:	e1a03703 	lsl	r3, r3, #14
80009ddc:	e20329ff 	and	r2, r3, #4177920	; 0x3fc000
80009de0:	e51b3014 	ldr	r3, [fp, #-20]	; 0xffffffec
80009de4:	e1a03303 	lsl	r3, r3, #6
80009de8:	e2033dff 	and	r3, r3, #16320	; 0x3fc0
80009dec:	e1823003 	orr	r3, r2, r3
80009df0:	e3833511 	orr	r3, r3, #71303168	; 0x4400000
80009df4:	e3833038 	orr	r3, r3, #56	; 0x38
80009df8:	e50b3008 	str	r3, [fp, #-8]
80009dfc:	e51b1008 	ldr	r1, [fp, #-8]
80009e00:	e3a00a09 	mov	r0, #36864	; 0x9000
80009e04:	e34404e0 	movt	r0, #17632	; 0x44e0
80009e08:	ebfff732 	bl	0x80007ad8
80009e0c:	e320f000 	nop	{0}
80009e10:	e24bd004 	sub	sp, fp, #4
80009e14:	e8bd8800 	pop	{fp, pc}
80009e18:	e92d4800 	push	{fp, lr}
80009e1c:	e28db004 	add	fp, sp, #4
80009e20:	e24dd010 	sub	sp, sp, #16
80009e24:	e50b0010 	str	r0, [fp, #-16]
80009e28:	e3a03000 	mov	r3, #0
80009e2c:	e50b3008 	str	r3, [fp, #-8]
80009e30:	e3a0302a 	mov	r3, #42	; 0x2a
80009e34:	e3a02000 	mov	r2, #0
80009e38:	e51b1010 	ldr	r1, [fp, #-16]
80009e3c:	e3a00b1b 	mov	r0, #27648	; 0x6c00
80009e40:	e34002dc 	movt	r0, #732	; 0x2dc
80009e44:	ebfff5a8 	bl	0x800074ec
80009e48:	e50b0008 	str	r0, [fp, #-8]
80009e4c:	e51b1008 	ldr	r1, [fp, #-8]
80009e50:	e3a00a09 	mov	r0, #36864	; 0x9000
80009e54:	e34404e0 	movt	r0, #17632	; 0x44e0
80009e58:	ebfff5db 	bl	0x800075cc
80009e5c:	e320f000 	nop	{0}
80009e60:	e24bd004 	sub	sp, fp, #4
80009e64:	e8bd8800 	pop	{fp, pc}
80009e68:	e92d4800 	push	{fp, lr}
80009e6c:	e28db004 	add	fp, sp, #4
80009e70:	ebfff4a2 	bl	0x80007100
80009e74:	e3a00000 	mov	r0, #0
80009e78:	ebfff48d 	bl	0x800070b4
80009e7c:	e3a02001 	mov	r2, #1
80009e80:	e3a01001 	mov	r1, #1
80009e84:	e3a00cc2 	mov	r0, #49664	; 0xc200
80009e88:	e3400001 	movt	r0, #1
80009e8c:	ebffffa4 	bl	0x80009d24
80009e90:	e320f000 	nop	{0}
80009e94:	e8bd8800 	pop	{fp, pc}
80009e98:	e92d4800 	push	{fp, lr}
80009e9c:	e28db004 	add	fp, sp, #4
80009ea0:	e24dd008 	sub	sp, sp, #8
80009ea4:	e1a03000 	mov	r3, r0
80009ea8:	e54b3005 	strb	r3, [fp, #-5]
80009eac:	e55b3005 	ldrb	r3, [fp, #-5]
80009eb0:	e1a01003 	mov	r1, r3
80009eb4:	e3a00a09 	mov	r0, #36864	; 0x9000
80009eb8:	e34404e0 	movt	r0, #17632	; 0x44e0
80009ebc:	ebfffb4c 	bl	0x80008bf4
80009ec0:	e320f000 	nop	{0}
80009ec4:	e24bd004 	sub	sp, fp, #4
80009ec8:	e8bd8800 	pop	{fp, pc}
80009ecc:	e92d4800 	push	{fp, lr}
80009ed0:	e28db004 	add	fp, sp, #4
80009ed4:	e3a00a09 	mov	r0, #36864	; 0x9000
80009ed8:	e34404e0 	movt	r0, #17632	; 0x44e0
80009edc:	ebfffafb 	bl	0x80008ad0
80009ee0:	e1a03000 	mov	r3, r0
80009ee4:	e6ef3073 	uxtb	r3, r3
80009ee8:	e1a00003 	mov	r0, r3
80009eec:	e8bd8800 	pop	{fp, pc}
80009ef0:	e92d4800 	push	{fp, lr}
80009ef4:	e28db004 	add	fp, sp, #4
80009ef8:	ebffffda 	bl	0x80009e68
80009efc:	e320f000 	nop	{0}
80009f00:	e8bd8800 	pop	{fp, pc}
80009f04:	e92d4800 	push	{fp, lr}
80009f08:	e28db004 	add	fp, sp, #4
80009f0c:	e24dd010 	sub	sp, sp, #16
80009f10:	e50b0010 	str	r0, [fp, #-16]
80009f14:	e1a03001 	mov	r3, r1
80009f18:	e54b3011 	strb	r3, [fp, #-17]	; 0xffffffef
80009f1c:	e3a03000 	mov	r3, #0
80009f20:	e50b3008 	str	r3, [fp, #-8]
80009f24:	ea00001a 	b	0x80009f94
80009f28:	e55b3011 	ldrb	r3, [fp, #-17]	; 0xffffffef
80009f2c:	e1a00003 	mov	r0, r3
80009f30:	eb00020b 	bl	0x8000a764
80009f34:	e55b3011 	ldrb	r3, [fp, #-17]	; 0xffffffef
80009f38:	e3530008 	cmp	r3, #8
80009f3c:	1a000009 	bne	0x80009f68
80009f40:	e51b3008 	ldr	r3, [fp, #-8]
80009f44:	e3530000 	cmp	r3, #0
80009f48:	0a000006 	beq	0x80009f68
80009f4c:	e51b3010 	ldr	r3, [fp, #-16]
80009f50:	e2433001 	sub	r3, r3, #1
80009f54:	e50b3010 	str	r3, [fp, #-16]
80009f58:	e51b3008 	ldr	r3, [fp, #-8]
80009f5c:	e2433001 	sub	r3, r3, #1
80009f60:	e50b3008 	str	r3, [fp, #-8]
80009f64:	ea000007 	b	0x80009f88
80009f68:	e51b3010 	ldr	r3, [fp, #-16]
80009f6c:	e2832001 	add	r2, r3, #1
80009f70:	e50b2010 	str	r2, [fp, #-16]
80009f74:	e55b2011 	ldrb	r2, [fp, #-17]	; 0xffffffef
80009f78:	e5c32000 	strb	r2, [r3]
80009f7c:	e51b3008 	ldr	r3, [fp, #-8]
80009f80:	e2833001 	add	r3, r3, #1
80009f84:	e50b3008 	str	r3, [fp, #-8]
80009f88:	eb000200 	bl	0x8000a790
80009f8c:	e1a03000 	mov	r3, r0
80009f90:	e54b3011 	strb	r3, [fp, #-17]	; 0xffffffef
80009f94:	e55b3011 	ldrb	r3, [fp, #-17]	; 0xffffffef
80009f98:	e353000d 	cmp	r3, #13
80009f9c:	0a000002 	beq	0x80009fac
80009fa0:	e55b3011 	ldrb	r3, [fp, #-17]	; 0xffffffef
80009fa4:	e3530020 	cmp	r3, #32
80009fa8:	1affffde 	bne	0x80009f28
80009fac:	e51b3010 	ldr	r3, [fp, #-16]
80009fb0:	e55b2011 	ldrb	r2, [fp, #-17]	; 0xffffffef
80009fb4:	e5c32000 	strb	r2, [r3]
80009fb8:	e320f000 	nop	{0}
80009fbc:	e24bd004 	sub	sp, fp, #4
80009fc0:	e8bd8800 	pop	{fp, pc}
80009fc4:	e92d4800 	push	{fp, lr}
80009fc8:	e28db004 	add	fp, sp, #4
80009fcc:	e24dd010 	sub	sp, sp, #16
80009fd0:	e50b0010 	str	r0, [fp, #-16]
80009fd4:	e50b1014 	str	r1, [fp, #-20]	; 0xffffffec
80009fd8:	e3a03000 	mov	r3, #0
80009fdc:	e50b3008 	str	r3, [fp, #-8]
80009fe0:	e3a03000 	mov	r3, #0
80009fe4:	e50b300c 	str	r3, [fp, #-12]
80009fe8:	e51b3014 	ldr	r3, [fp, #-20]	; 0xffffffec
80009fec:	e3530000 	cmp	r3, #0
80009ff0:	aa00001c 	bge	0x8000a068
80009ff4:	e3a03001 	mov	r3, #1
80009ff8:	e50b300c 	str	r3, [fp, #-12]
80009ffc:	ea000019 	b	0x8000a068
8000a000:	e51b3010 	ldr	r3, [fp, #-16]
8000a004:	e5d33000 	ldrb	r3, [r3]
8000a008:	e353000a 	cmp	r3, #10
8000a00c:	1a000004 	bne	0x8000a024
8000a010:	e3a0000d 	mov	r0, #13
8000a014:	eb0001d2 	bl	0x8000a764
8000a018:	e3a0000a 	mov	r0, #10
8000a01c:	eb0001d0 	bl	0x8000a764
8000a020:	ea000003 	b	0x8000a034
8000a024:	e51b3010 	ldr	r3, [fp, #-16]
8000a028:	e5d33000 	ldrb	r3, [r3]
8000a02c:	e1a00003 	mov	r0, r3
8000a030:	eb0001cb 	bl	0x8000a764
8000a034:	e51b3010 	ldr	r3, [fp, #-16]
8000a038:	e2833001 	add	r3, r3, #1
8000a03c:	e50b3010 	str	r3, [fp, #-16]
8000a040:	e51b3008 	ldr	r3, [fp, #-8]
8000a044:	e2833001 	add	r3, r3, #1
8000a048:	e50b3008 	str	r3, [fp, #-8]
8000a04c:	e51b300c 	ldr	r3, [fp, #-12]
8000a050:	e3530000 	cmp	r3, #0
8000a054:	1a000003 	bne	0x8000a068
8000a058:	e51b3014 	ldr	r3, [fp, #-20]	; 0xffffffec
8000a05c:	e51b2008 	ldr	r2, [fp, #-8]
8000a060:	e1520003 	cmp	r2, r3
8000a064:	0a000004 	beq	0x8000a07c
8000a068:	e51b3010 	ldr	r3, [fp, #-16]
8000a06c:	e5d33000 	ldrb	r3, [r3]
8000a070:	e3530000 	cmp	r3, #0
8000a074:	1affffe1 	bne	0x8000a000
8000a078:	ea000000 	b	0x8000a080
8000a07c:	e320f000 	nop	{0}
8000a080:	e51b3008 	ldr	r3, [fp, #-8]
8000a084:	e1a00003 	mov	r0, r3
8000a088:	e24bd004 	sub	sp, fp, #4
8000a08c:	e8bd8800 	pop	{fp, pc}
8000a090:	e92d4800 	push	{fp, lr}
8000a094:	e28db004 	add	fp, sp, #4
8000a098:	e24dd018 	sub	sp, sp, #24
8000a09c:	e50b0018 	str	r0, [fp, #-24]	; 0xffffffe8
8000a0a0:	e50b101c 	str	r1, [fp, #-28]	; 0xffffffe4
8000a0a4:	e3a03000 	mov	r3, #0
8000a0a8:	e50b3008 	str	r3, [fp, #-8]
8000a0ac:	e51b3018 	ldr	r3, [fp, #-24]	; 0xffffffe8
8000a0b0:	e50b3010 	str	r3, [fp, #-16]
8000a0b4:	e51b3018 	ldr	r3, [fp, #-24]	; 0xffffffe8
8000a0b8:	e3530000 	cmp	r3, #0
8000a0bc:	0a00001f 	beq	0x8000a140
8000a0c0:	e51b301c 	ldr	r3, [fp, #-28]	; 0xffffffe4
8000a0c4:	e3530000 	cmp	r3, #0
8000a0c8:	da00001c 	ble	0x8000a140
8000a0cc:	eb0001af 	bl	0x8000a790
8000a0d0:	e1a03000 	mov	r3, r0
8000a0d4:	e54b3009 	strb	r3, [fp, #-9]
8000a0d8:	ea00000d 	b	0x8000a114
8000a0dc:	e55b3009 	ldrb	r3, [fp, #-9]
8000a0e0:	e1a00003 	mov	r0, r3
8000a0e4:	eb00019e 	bl	0x8000a764
8000a0e8:	e51b3010 	ldr	r3, [fp, #-16]
8000a0ec:	e2832001 	add	r2, r3, #1
8000a0f0:	e50b2010 	str	r2, [fp, #-16]
8000a0f4:	e55b2009 	ldrb	r2, [fp, #-9]
8000a0f8:	e5c32000 	strb	r2, [r3]
8000a0fc:	eb0001a3 	bl	0x8000a790
8000a100:	e1a03000 	mov	r3, r0
8000a104:	e54b3009 	strb	r3, [fp, #-9]
8000a108:	e51b3008 	ldr	r3, [fp, #-8]
8000a10c:	e2833001 	add	r3, r3, #1
8000a110:	e50b3008 	str	r3, [fp, #-8]
8000a114:	e55b3009 	ldrb	r3, [fp, #-9]
8000a118:	e353000d 	cmp	r3, #13
8000a11c:	0a000004 	beq	0x8000a134
8000a120:	e51b301c 	ldr	r3, [fp, #-28]	; 0xffffffe4
8000a124:	e2432001 	sub	r2, r3, #1
8000a128:	e51b3008 	ldr	r3, [fp, #-8]
8000a12c:	e1520003 	cmp	r2, r3
8000a130:	8affffe9 	bhi	0x8000a0dc
8000a134:	e51b3010 	ldr	r3, [fp, #-16]
8000a138:	e3a02000 	mov	r2, #0
8000a13c:	e5c32000 	strb	r2, [r3]
8000a140:	e51b3018 	ldr	r3, [fp, #-24]	; 0xffffffe8
8000a144:	e1a00003 	mov	r0, r3
8000a148:	e24bd004 	sub	sp, fp, #4
8000a14c:	e8bd8800 	pop	{fp, pc}
8000a150:	e92d4800 	push	{fp, lr}
8000a154:	e28db004 	add	fp, sp, #4
8000a158:	e24dd020 	sub	sp, sp, #32
8000a15c:	e50b0020 	str	r0, [fp, #-32]	; 0xffffffe0
8000a160:	e24b301c 	sub	r3, fp, #28
8000a164:	e3a02000 	mov	r2, #0
8000a168:	e5832000 	str	r2, [r3]
8000a16c:	e5832004 	str	r2, [r3, #4]
8000a170:	e1c320b8 	strh	r2, [r3, #8]
8000a174:	e3a03000 	mov	r3, #0
8000a178:	e50b3010 	str	r3, [fp, #-16]
8000a17c:	e3a03000 	mov	r3, #0
8000a180:	e50b3008 	str	r3, [fp, #-8]
8000a184:	e3a03000 	mov	r3, #0
8000a188:	e50b300c 	str	r3, [fp, #-12]
8000a18c:	e51b3020 	ldr	r3, [fp, #-32]	; 0xffffffe0
8000a190:	e3530000 	cmp	r3, #0
8000a194:	aa000004 	bge	0x8000a1ac
8000a198:	e3a0002d 	mov	r0, #45	; 0x2d
8000a19c:	eb000170 	bl	0x8000a764
8000a1a0:	e51b3020 	ldr	r3, [fp, #-32]	; 0xffffffe0
8000a1a4:	e2633000 	rsb	r3, r3, #0
8000a1a8:	e50b3020 	str	r3, [fp, #-32]	; 0xffffffe0
8000a1ac:	e51b3020 	ldr	r3, [fp, #-32]	; 0xffffffe0
8000a1b0:	e50b3008 	str	r3, [fp, #-8]
8000a1b4:	e51b2008 	ldr	r2, [fp, #-8]
8000a1b8:	e30c3ccd 	movw	r3, #52429	; 0xcccd
8000a1bc:	e34c3ccc 	movt	r3, #52428	; 0xcccc
8000a1c0:	e0832392 	umull	r2, r3, r2, r3
8000a1c4:	e1a031a3 	lsr	r3, r3, #3
8000a1c8:	e50b3010 	str	r3, [fp, #-16]
8000a1cc:	e51b1008 	ldr	r1, [fp, #-8]
8000a1d0:	e30c3ccd 	movw	r3, #52429	; 0xcccd
8000a1d4:	e34c3ccc 	movt	r3, #52428	; 0xcccc
8000a1d8:	e0832391 	umull	r2, r3, r1, r3
8000a1dc:	e1a031a3 	lsr	r3, r3, #3
8000a1e0:	e3a0200a 	mov	r2, #10
8000a1e4:	e0030392 	mul	r3, r2, r3
8000a1e8:	e0413003 	sub	r3, r1, r3
8000a1ec:	e6ef1073 	uxtb	r1, r3
8000a1f0:	e24b201c 	sub	r2, fp, #28
8000a1f4:	e51b300c 	ldr	r3, [fp, #-12]
8000a1f8:	e0823003 	add	r3, r2, r3
8000a1fc:	e1a02001 	mov	r2, r1
8000a200:	e5c32000 	strb	r2, [r3]
8000a204:	e51b3010 	ldr	r3, [fp, #-16]
8000a208:	e3530000 	cmp	r3, #0
8000a20c:	0a000008 	beq	0x8000a234
8000a210:	e51b300c 	ldr	r3, [fp, #-12]
8000a214:	e2833001 	add	r3, r3, #1
8000a218:	e50b300c 	str	r3, [fp, #-12]
8000a21c:	e51b3010 	ldr	r3, [fp, #-16]
8000a220:	e50b3008 	str	r3, [fp, #-8]
8000a224:	e51b300c 	ldr	r3, [fp, #-12]
8000a228:	e3530009 	cmp	r3, #9
8000a22c:	daffffe0 	ble	0x8000a1b4
8000a230:	ea000000 	b	0x8000a238
8000a234:	e320f000 	nop	{0}
8000a238:	e51b300c 	ldr	r3, [fp, #-12]
8000a23c:	e353000a 	cmp	r3, #10
8000a240:	1a000002 	bne	0x8000a250
8000a244:	e51b300c 	ldr	r3, [fp, #-12]
8000a248:	e2433001 	sub	r3, r3, #1
8000a24c:	e50b300c 	str	r3, [fp, #-12]
8000a250:	e51b300c 	ldr	r3, [fp, #-12]
8000a254:	e2432001 	sub	r2, r3, #1
8000a258:	e50b200c 	str	r2, [fp, #-12]
8000a25c:	e24b2004 	sub	r2, fp, #4
8000a260:	e0823003 	add	r3, r2, r3
8000a264:	e5533018 	ldrb	r3, [r3, #-24]	; 0xffffffe8
8000a268:	e2833030 	add	r3, r3, #48	; 0x30
8000a26c:	e6ef3073 	uxtb	r3, r3
8000a270:	e1a00003 	mov	r0, r3
8000a274:	eb00013a 	bl	0x8000a764
8000a278:	e51b300c 	ldr	r3, [fp, #-12]
8000a27c:	e3530000 	cmp	r3, #0
8000a280:	aafffff2 	bge	0x8000a250
8000a284:	e320f000 	nop	{0}
8000a288:	e24bd004 	sub	sp, fp, #4
8000a28c:	e8bd8800 	pop	{fp, pc}
8000a290:	e92d4800 	push	{fp, lr}
8000a294:	e28db004 	add	fp, sp, #4
8000a298:	e24dd020 	sub	sp, sp, #32
8000a29c:	e50b0020 	str	r0, [fp, #-32]	; 0xffffffe0
8000a2a0:	e24b3018 	sub	r3, fp, #24
8000a2a4:	e3a02000 	mov	r2, #0
8000a2a8:	e5832000 	str	r2, [r3]
8000a2ac:	e5832004 	str	r2, [r3, #4]
8000a2b0:	e3a03000 	mov	r3, #0
8000a2b4:	e50b3010 	str	r3, [fp, #-16]
8000a2b8:	e3a03000 	mov	r3, #0
8000a2bc:	e50b3008 	str	r3, [fp, #-8]
8000a2c0:	e3a03000 	mov	r3, #0
8000a2c4:	e50b300c 	str	r3, [fp, #-12]
8000a2c8:	e51b3020 	ldr	r3, [fp, #-32]	; 0xffffffe0
8000a2cc:	e50b3008 	str	r3, [fp, #-8]
8000a2d0:	e51b3008 	ldr	r3, [fp, #-8]
8000a2d4:	e1a03223 	lsr	r3, r3, #4
8000a2d8:	e50b3010 	str	r3, [fp, #-16]
8000a2dc:	e51b3008 	ldr	r3, [fp, #-8]
8000a2e0:	e6ef3073 	uxtb	r3, r3
8000a2e4:	e203300f 	and	r3, r3, #15
8000a2e8:	e6ef1073 	uxtb	r1, r3
8000a2ec:	e24b2018 	sub	r2, fp, #24
8000a2f0:	e51b300c 	ldr	r3, [fp, #-12]
8000a2f4:	e0823003 	add	r3, r2, r3
8000a2f8:	e1a02001 	mov	r2, r1
8000a2fc:	e5c32000 	strb	r2, [r3]
8000a300:	e51b3010 	ldr	r3, [fp, #-16]
8000a304:	e3530000 	cmp	r3, #0
8000a308:	0a000008 	beq	0x8000a330
8000a30c:	e51b300c 	ldr	r3, [fp, #-12]
8000a310:	e2833001 	add	r3, r3, #1
8000a314:	e50b300c 	str	r3, [fp, #-12]
8000a318:	e51b3010 	ldr	r3, [fp, #-16]
8000a31c:	e50b3008 	str	r3, [fp, #-8]
8000a320:	e51b300c 	ldr	r3, [fp, #-12]
8000a324:	e3530007 	cmp	r3, #7
8000a328:	daffffe8 	ble	0x8000a2d0
8000a32c:	ea000000 	b	0x8000a334
8000a330:	e320f000 	nop	{0}
8000a334:	e51b300c 	ldr	r3, [fp, #-12]
8000a338:	e3530008 	cmp	r3, #8
8000a33c:	1a000002 	bne	0x8000a34c
8000a340:	e51b300c 	ldr	r3, [fp, #-12]
8000a344:	e2433001 	sub	r3, r3, #1
8000a348:	e50b300c 	str	r3, [fp, #-12]
8000a34c:	e3a00030 	mov	r0, #48	; 0x30
8000a350:	eb000103 	bl	0x8000a764
8000a354:	e3a00078 	mov	r0, #120	; 0x78
8000a358:	eb000101 	bl	0x8000a764
8000a35c:	ea00001b 	b	0x8000a3d0
8000a360:	e24b2018 	sub	r2, fp, #24
8000a364:	e51b300c 	ldr	r3, [fp, #-12]
8000a368:	e0823003 	add	r3, r2, r3
8000a36c:	e5d33000 	ldrb	r3, [r3]
8000a370:	e2633010 	rsb	r3, r3, #16
8000a374:	e3530006 	cmp	r3, #6
8000a378:	ca00000a 	bgt	0x8000a3a8
8000a37c:	e51b300c 	ldr	r3, [fp, #-12]
8000a380:	e2432001 	sub	r2, r3, #1
8000a384:	e50b200c 	str	r2, [fp, #-12]
8000a388:	e24b2004 	sub	r2, fp, #4
8000a38c:	e0823003 	add	r3, r2, r3
8000a390:	e5533014 	ldrb	r3, [r3, #-20]	; 0xffffffec
8000a394:	e2833037 	add	r3, r3, #55	; 0x37
8000a398:	e6ef3073 	uxtb	r3, r3
8000a39c:	e1a00003 	mov	r0, r3
8000a3a0:	eb0000ef 	bl	0x8000a764
8000a3a4:	ea000009 	b	0x8000a3d0
8000a3a8:	e51b300c 	ldr	r3, [fp, #-12]
8000a3ac:	e2432001 	sub	r2, r3, #1
8000a3b0:	e50b200c 	str	r2, [fp, #-12]
8000a3b4:	e24b2004 	sub	r2, fp, #4
8000a3b8:	e0823003 	add	r3, r2, r3
8000a3bc:	e5533014 	ldrb	r3, [r3, #-20]	; 0xffffffec
8000a3c0:	e2833030 	add	r3, r3, #48	; 0x30
8000a3c4:	e6ef3073 	uxtb	r3, r3
8000a3c8:	e1a00003 	mov	r0, r3
8000a3cc:	eb0000e4 	bl	0x8000a764
8000a3d0:	e51b300c 	ldr	r3, [fp, #-12]
8000a3d4:	e3530000 	cmp	r3, #0
8000a3d8:	aaffffe0 	bge	0x8000a360
8000a3dc:	e320f000 	nop	{0}
8000a3e0:	e24bd004 	sub	sp, fp, #4
8000a3e4:	e8bd8800 	pop	{fp, pc}
8000a3e8:	e92d4800 	push	{fp, lr}
8000a3ec:	e28db004 	add	fp, sp, #4
8000a3f0:	e24dd010 	sub	sp, sp, #16
8000a3f4:	e3a03001 	mov	r3, #1
8000a3f8:	e50b3008 	str	r3, [fp, #-8]
8000a3fc:	e3a03000 	mov	r3, #0
8000a400:	e50b300c 	str	r3, [fp, #-12]
8000a404:	eb0000e1 	bl	0x8000a790
8000a408:	e1a03000 	mov	r3, r0
8000a40c:	e54b300d 	strb	r3, [fp, #-13]
8000a410:	e55b300d 	ldrb	r3, [fp, #-13]
8000a414:	e353002d 	cmp	r3, #45	; 0x2d
8000a418:	1a000004 	bne	0x8000a430
8000a41c:	e3a0002d 	mov	r0, #45	; 0x2d
8000a420:	eb0000cf 	bl	0x8000a764
8000a424:	e3e03000 	mvn	r3, #0
8000a428:	e50b3008 	str	r3, [fp, #-8]
8000a42c:	ea000009 	b	0x8000a458
8000a430:	e55b300d 	ldrb	r3, [fp, #-13]
8000a434:	e1a00003 	mov	r0, r3
8000a438:	eb0000c9 	bl	0x8000a764
8000a43c:	e51b300c 	ldr	r3, [fp, #-12]
8000a440:	e3a0200a 	mov	r2, #10
8000a444:	e0020392 	mul	r2, r2, r3
8000a448:	e55b300d 	ldrb	r3, [fp, #-13]
8000a44c:	e2433030 	sub	r3, r3, #48	; 0x30
8000a450:	e0823003 	add	r3, r2, r3
8000a454:	e50b300c 	str	r3, [fp, #-12]
8000a458:	eb0000cc 	bl	0x8000a790
8000a45c:	e1a03000 	mov	r3, r0
8000a460:	e54b300d 	strb	r3, [fp, #-13]
8000a464:	e55b300d 	ldrb	r3, [fp, #-13]
8000a468:	e1a00003 	mov	r0, r3
8000a46c:	eb0000bc 	bl	0x8000a764
8000a470:	e55b300d 	ldrb	r3, [fp, #-13]
8000a474:	e353000d 	cmp	r3, #13
8000a478:	0a000007 	beq	0x8000a49c
8000a47c:	e51b300c 	ldr	r3, [fp, #-12]
8000a480:	e3a0200a 	mov	r2, #10
8000a484:	e0020392 	mul	r2, r2, r3
8000a488:	e55b300d 	ldrb	r3, [fp, #-13]
8000a48c:	e2433030 	sub	r3, r3, #48	; 0x30
8000a490:	e0823003 	add	r3, r2, r3
8000a494:	e50b300c 	str	r3, [fp, #-12]
8000a498:	eaffffee 	b	0x8000a458
8000a49c:	e320f000 	nop	{0}
8000a4a0:	e51b300c 	ldr	r3, [fp, #-12]
8000a4a4:	e51b2008 	ldr	r2, [fp, #-8]
8000a4a8:	e0030392 	mul	r3, r2, r3
8000a4ac:	e50b300c 	str	r3, [fp, #-12]
8000a4b0:	e51b300c 	ldr	r3, [fp, #-12]
8000a4b4:	e1a00003 	mov	r0, r3
8000a4b8:	e24bd004 	sub	sp, fp, #4
8000a4bc:	e8bd8800 	pop	{fp, pc}
8000a4c0:	e92d4800 	push	{fp, lr}
8000a4c4:	e28db004 	add	fp, sp, #4
8000a4c8:	e24dd010 	sub	sp, sp, #16
8000a4cc:	e3a03000 	mov	r3, #0
8000a4d0:	e50b3008 	str	r3, [fp, #-8]
8000a4d4:	e3a03000 	mov	r3, #0
8000a4d8:	e50b3010 	str	r3, [fp, #-16]
8000a4dc:	e3a03000 	mov	r3, #0
8000a4e0:	e50b300c 	str	r3, [fp, #-12]
8000a4e4:	ea00004d 	b	0x8000a620
8000a4e8:	eb0000a8 	bl	0x8000a790
8000a4ec:	e1a03000 	mov	r3, r0
8000a4f0:	e54b3011 	strb	r3, [fp, #-17]	; 0xffffffef
8000a4f4:	e55b3011 	ldrb	r3, [fp, #-17]	; 0xffffffef
8000a4f8:	e353000d 	cmp	r3, #13
8000a4fc:	0a00004b 	beq	0x8000a630
8000a500:	e55b3011 	ldrb	r3, [fp, #-17]	; 0xffffffef
8000a504:	e3530040 	cmp	r3, #64	; 0x40
8000a508:	9a00000f 	bls	0x8000a54c
8000a50c:	e55b3011 	ldrb	r3, [fp, #-17]	; 0xffffffef
8000a510:	e3530046 	cmp	r3, #70	; 0x46
8000a514:	8a00000c 	bhi	0x8000a54c
8000a518:	e55b3011 	ldrb	r3, [fp, #-17]	; 0xffffffef
8000a51c:	e1a00003 	mov	r0, r3
8000a520:	eb00008f 	bl	0x8000a764
8000a524:	e51b3008 	ldr	r3, [fp, #-8]
8000a528:	e1a02203 	lsl	r2, r3, #4
8000a52c:	e55b3011 	ldrb	r3, [fp, #-17]	; 0xffffffef
8000a530:	e0823003 	add	r3, r2, r3
8000a534:	e2433037 	sub	r3, r3, #55	; 0x37
8000a538:	e50b3008 	str	r3, [fp, #-8]
8000a53c:	e51b3010 	ldr	r3, [fp, #-16]
8000a540:	e2833001 	add	r3, r3, #1
8000a544:	e50b3010 	str	r3, [fp, #-16]
8000a548:	ea000031 	b	0x8000a614
8000a54c:	e55b3011 	ldrb	r3, [fp, #-17]	; 0xffffffef
8000a550:	e3530060 	cmp	r3, #96	; 0x60
8000a554:	9a00000f 	bls	0x8000a598
8000a558:	e55b3011 	ldrb	r3, [fp, #-17]	; 0xffffffef
8000a55c:	e3530066 	cmp	r3, #102	; 0x66
8000a560:	8a00000c 	bhi	0x8000a598
8000a564:	e55b3011 	ldrb	r3, [fp, #-17]	; 0xffffffef
8000a568:	e1a00003 	mov	r0, r3
8000a56c:	eb00007c 	bl	0x8000a764
8000a570:	e51b3008 	ldr	r3, [fp, #-8]
8000a574:	e1a02203 	lsl	r2, r3, #4
8000a578:	e55b3011 	ldrb	r3, [fp, #-17]	; 0xffffffef
8000a57c:	e0823003 	add	r3, r2, r3
8000a580:	e2433057 	sub	r3, r3, #87	; 0x57
8000a584:	e50b3008 	str	r3, [fp, #-8]
8000a588:	e51b3010 	ldr	r3, [fp, #-16]
8000a58c:	e2833001 	add	r3, r3, #1
8000a590:	e50b3010 	str	r3, [fp, #-16]
8000a594:	ea00001e 	b	0x8000a614
8000a598:	e55b3011 	ldrb	r3, [fp, #-17]	; 0xffffffef
8000a59c:	e353002f 	cmp	r3, #47	; 0x2f
8000a5a0:	9a00000f 	bls	0x8000a5e4
8000a5a4:	e55b3011 	ldrb	r3, [fp, #-17]	; 0xffffffef
8000a5a8:	e3530039 	cmp	r3, #57	; 0x39
8000a5ac:	8a00000c 	bhi	0x8000a5e4
8000a5b0:	e55b3011 	ldrb	r3, [fp, #-17]	; 0xffffffef
8000a5b4:	e1a00003 	mov	r0, r3
8000a5b8:	eb000069 	bl	0x8000a764
8000a5bc:	e51b3008 	ldr	r3, [fp, #-8]
8000a5c0:	e1a02203 	lsl	r2, r3, #4
8000a5c4:	e55b3011 	ldrb	r3, [fp, #-17]	; 0xffffffef
8000a5c8:	e0823003 	add	r3, r2, r3
8000a5cc:	e2433030 	sub	r3, r3, #48	; 0x30
8000a5d0:	e50b3008 	str	r3, [fp, #-8]
8000a5d4:	e51b3010 	ldr	r3, [fp, #-16]
8000a5d8:	e2833001 	add	r3, r3, #1
8000a5dc:	e50b3010 	str	r3, [fp, #-16]
8000a5e0:	ea00000b 	b	0x8000a614
8000a5e4:	e55b3011 	ldrb	r3, [fp, #-17]	; 0xffffffef
8000a5e8:	e3530078 	cmp	r3, #120	; 0x78
8000a5ec:	0a000002 	beq	0x8000a5fc
8000a5f0:	e55b3011 	ldrb	r3, [fp, #-17]	; 0xffffffef
8000a5f4:	e3530058 	cmp	r3, #88	; 0x58
8000a5f8:	1a000005 	bne	0x8000a614
8000a5fc:	e55b3011 	ldrb	r3, [fp, #-17]	; 0xffffffef
8000a600:	e1a00003 	mov	r0, r3
8000a604:	eb000056 	bl	0x8000a764
8000a608:	e3a03000 	mov	r3, #0
8000a60c:	e50b3008 	str	r3, [fp, #-8]
8000a610:	ea000007 	b	0x8000a634
8000a614:	e51b300c 	ldr	r3, [fp, #-12]
8000a618:	e2833001 	add	r3, r3, #1
8000a61c:	e50b300c 	str	r3, [fp, #-12]
8000a620:	e51b300c 	ldr	r3, [fp, #-12]
8000a624:	e3530001 	cmp	r3, #1
8000a628:	9affffae 	bls	0x8000a4e8
8000a62c:	ea000000 	b	0x8000a634
8000a630:	e320f000 	nop	{0}
8000a634:	e51b3008 	ldr	r3, [fp, #-8]
8000a638:	e3530000 	cmp	r3, #0
8000a63c:	1a000001 	bne	0x8000a648
8000a640:	e3a03000 	mov	r3, #0
8000a644:	e50b3010 	str	r3, [fp, #-16]
8000a648:	eb000050 	bl	0x8000a790
8000a64c:	e1a03000 	mov	r3, r0
8000a650:	e54b3011 	strb	r3, [fp, #-17]	; 0xffffffef
8000a654:	e55b3011 	ldrb	r3, [fp, #-17]	; 0xffffffef
8000a658:	e353000d 	cmp	r3, #13
8000a65c:	0a00003b 	beq	0x8000a750
8000a660:	e55b3011 	ldrb	r3, [fp, #-17]	; 0xffffffef
8000a664:	e3530040 	cmp	r3, #64	; 0x40
8000a668:	9a00000f 	bls	0x8000a6ac
8000a66c:	e55b3011 	ldrb	r3, [fp, #-17]	; 0xffffffef
8000a670:	e3530046 	cmp	r3, #70	; 0x46
8000a674:	8a00000c 	bhi	0x8000a6ac
8000a678:	e55b3011 	ldrb	r3, [fp, #-17]	; 0xffffffef
8000a67c:	e1a00003 	mov	r0, r3
8000a680:	eb000037 	bl	0x8000a764
8000a684:	e51b3008 	ldr	r3, [fp, #-8]
8000a688:	e1a02203 	lsl	r2, r3, #4
8000a68c:	e55b3011 	ldrb	r3, [fp, #-17]	; 0xffffffef
8000a690:	e0823003 	add	r3, r2, r3
8000a694:	e2433037 	sub	r3, r3, #55	; 0x37
8000a698:	e50b3008 	str	r3, [fp, #-8]
8000a69c:	e51b3010 	ldr	r3, [fp, #-16]
8000a6a0:	e2833001 	add	r3, r3, #1
8000a6a4:	e50b3010 	str	r3, [fp, #-16]
8000a6a8:	ea000024 	b	0x8000a740
8000a6ac:	e55b3011 	ldrb	r3, [fp, #-17]	; 0xffffffef
8000a6b0:	e3530060 	cmp	r3, #96	; 0x60
8000a6b4:	9a00000f 	bls	0x8000a6f8
8000a6b8:	e55b3011 	ldrb	r3, [fp, #-17]	; 0xffffffef
8000a6bc:	e3530066 	cmp	r3, #102	; 0x66
8000a6c0:	8a00000c 	bhi	0x8000a6f8
8000a6c4:	e55b3011 	ldrb	r3, [fp, #-17]	; 0xffffffef
8000a6c8:	e1a00003 	mov	r0, r3
8000a6cc:	eb000024 	bl	0x8000a764
8000a6d0:	e51b3008 	ldr	r3, [fp, #-8]
8000a6d4:	e1a02203 	lsl	r2, r3, #4
8000a6d8:	e55b3011 	ldrb	r3, [fp, #-17]	; 0xffffffef
8000a6dc:	e0823003 	add	r3, r2, r3
8000a6e0:	e2433057 	sub	r3, r3, #87	; 0x57
8000a6e4:	e50b3008 	str	r3, [fp, #-8]
8000a6e8:	e51b3010 	ldr	r3, [fp, #-16]
8000a6ec:	e2833001 	add	r3, r3, #1
8000a6f0:	e50b3010 	str	r3, [fp, #-16]
8000a6f4:	ea000011 	b	0x8000a740
8000a6f8:	e55b3011 	ldrb	r3, [fp, #-17]	; 0xffffffef
8000a6fc:	e353002f 	cmp	r3, #47	; 0x2f
8000a700:	9a00000e 	bls	0x8000a740
8000a704:	e55b3011 	ldrb	r3, [fp, #-17]	; 0xffffffef
8000a708:	e3530039 	cmp	r3, #57	; 0x39
8000a70c:	8a00000b 	bhi	0x8000a740
8000a710:	e55b3011 	ldrb	r3, [fp, #-17]	; 0xffffffef
8000a714:	e1a00003 	mov	r0, r3
8000a718:	eb000011 	bl	0x8000a764
8000a71c:	e51b3008 	ldr	r3, [fp, #-8]
8000a720:	e1a02203 	lsl	r2, r3, #4
8000a724:	e55b3011 	ldrb	r3, [fp, #-17]	; 0xffffffef
8000a728:	e0823003 	add	r3, r2, r3
8000a72c:	e2433030 	sub	r3, r3, #48	; 0x30
8000a730:	e50b3008 	str	r3, [fp, #-8]
8000a734:	e51b3010 	ldr	r3, [fp, #-16]
8000a738:	e2833001 	add	r3, r3, #1
8000a73c:	e50b3010 	str	r3, [fp, #-16]
8000a740:	e51b3010 	ldr	r3, [fp, #-16]
8000a744:	e3530007 	cmp	r3, #7
8000a748:	9affffbe 	bls	0x8000a648
8000a74c:	ea000000 	b	0x8000a754
8000a750:	e320f000 	nop	{0}
8000a754:	e51b3008 	ldr	r3, [fp, #-8]
8000a758:	e1a00003 	mov	r0, r3
8000a75c:	e24bd004 	sub	sp, fp, #4
8000a760:	e8bd8800 	pop	{fp, pc}
8000a764:	e92d4800 	push	{fp, lr}
8000a768:	e28db004 	add	fp, sp, #4
8000a76c:	e24dd008 	sub	sp, sp, #8
8000a770:	e1a03000 	mov	r3, r0
8000a774:	e54b3005 	strb	r3, [fp, #-5]
8000a778:	e55b3005 	ldrb	r3, [fp, #-5]
8000a77c:	e1a00003 	mov	r0, r3
8000a780:	ebfffdc4 	bl	0x80009e98
8000a784:	e320f000 	nop	{0}
8000a788:	e24bd004 	sub	sp, fp, #4
8000a78c:	e8bd8800 	pop	{fp, pc}
8000a790:	e92d4800 	push	{fp, lr}
8000a794:	e28db004 	add	fp, sp, #4
8000a798:	ebfffdcb 	bl	0x80009ecc
8000a79c:	e1a03000 	mov	r3, r0
8000a7a0:	e1a00003 	mov	r0, r3
8000a7a4:	e8bd8800 	pop	{fp, pc}
8000a7a8:	e92d4800 	push	{fp, lr}
8000a7ac:	e28db004 	add	fp, sp, #4
8000a7b0:	e24dd010 	sub	sp, sp, #16
8000a7b4:	e50b0010 	str	r0, [fp, #-16]
8000a7b8:	e50b1014 	str	r1, [fp, #-20]	; 0xffffffec
8000a7bc:	e3a03000 	mov	r3, #0
8000a7c0:	e50b3008 	str	r3, [fp, #-8]
8000a7c4:	ea000010 	b	0x8000a80c
8000a7c8:	e51b2010 	ldr	r2, [fp, #-16]
8000a7cc:	e51b3008 	ldr	r3, [fp, #-8]
8000a7d0:	e0823003 	add	r3, r2, r3
8000a7d4:	e5d33000 	ldrb	r3, [r3]
8000a7d8:	e353000a 	cmp	r3, #10
8000a7dc:	1a000001 	bne	0x8000a7e8
8000a7e0:	e3a0000d 	mov	r0, #13
8000a7e4:	ebffffde 	bl	0x8000a764
8000a7e8:	e51b2010 	ldr	r2, [fp, #-16]
8000a7ec:	e51b3008 	ldr	r3, [fp, #-8]
8000a7f0:	e0823003 	add	r3, r2, r3
8000a7f4:	e5d33000 	ldrb	r3, [r3]
8000a7f8:	e1a00003 	mov	r0, r3
8000a7fc:	ebffffd8 	bl	0x8000a764
8000a800:	e51b3008 	ldr	r3, [fp, #-8]
8000a804:	e2833001 	add	r3, r3, #1
8000a808:	e50b3008 	str	r3, [fp, #-8]
8000a80c:	e51b2008 	ldr	r2, [fp, #-8]
8000a810:	e51b3014 	ldr	r3, [fp, #-20]	; 0xffffffec
8000a814:	e1520003 	cmp	r2, r3
8000a818:	3affffea 	bcc	0x8000a7c8
8000a81c:	e51b3008 	ldr	r3, [fp, #-8]
8000a820:	e1a00003 	mov	r0, r3
8000a824:	e24bd004 	sub	sp, fp, #4
8000a828:	e8bd8800 	pop	{fp, pc}
8000a82c:	e92d000f 	push	{r0, r1, r2, r3}
8000a830:	e92d4830 	push	{r4, r5, fp, lr}
8000a834:	e28db00c 	add	fp, sp, #12
8000a838:	e24dd038 	sub	sp, sp, #56	; 0x38
8000a83c:	e28b3008 	add	r3, fp, #8
8000a840:	e50b303c 	str	r3, [fp, #-60]	; 0xffffffc4
8000a844:	ea000170 	b	0x8000ae0c
8000a848:	e3a03000 	mov	r3, #0
8000a84c:	e50b3010 	str	r3, [fp, #-16]
8000a850:	ea000002 	b	0x8000a860
8000a854:	e51b3010 	ldr	r3, [fp, #-16]
8000a858:	e2833001 	add	r3, r3, #1
8000a85c:	e50b3010 	str	r3, [fp, #-16]
8000a860:	e59b2004 	ldr	r2, [fp, #4]
8000a864:	e51b3010 	ldr	r3, [fp, #-16]
8000a868:	e0823003 	add	r3, r2, r3
8000a86c:	e5d33000 	ldrb	r3, [r3]
8000a870:	e3530025 	cmp	r3, #37	; 0x25
8000a874:	0a000005 	beq	0x8000a890
8000a878:	e59b2004 	ldr	r2, [fp, #4]
8000a87c:	e51b3010 	ldr	r3, [fp, #-16]
8000a880:	e0823003 	add	r3, r2, r3
8000a884:	e5d33000 	ldrb	r3, [r3]
8000a888:	e3530000 	cmp	r3, #0
8000a88c:	1afffff0 	bne	0x8000a854
8000a890:	e51b1010 	ldr	r1, [fp, #-16]
8000a894:	e59b0004 	ldr	r0, [fp, #4]
8000a898:	ebffffc2 	bl	0x8000a7a8
8000a89c:	e59b2004 	ldr	r2, [fp, #4]
8000a8a0:	e51b3010 	ldr	r3, [fp, #-16]
8000a8a4:	e0823003 	add	r3, r2, r3
8000a8a8:	e58b3004 	str	r3, [fp, #4]
8000a8ac:	e59b3004 	ldr	r3, [fp, #4]
8000a8b0:	e5d33000 	ldrb	r3, [r3]
8000a8b4:	e3530025 	cmp	r3, #37	; 0x25
8000a8b8:	1a000153 	bne	0x8000ae0c
8000a8bc:	e59b3004 	ldr	r3, [fp, #4]
8000a8c0:	e2833001 	add	r3, r3, #1
8000a8c4:	e58b3004 	str	r3, [fp, #4]
8000a8c8:	e3a03000 	mov	r3, #0
8000a8cc:	e50b3018 	str	r3, [fp, #-24]	; 0xffffffe8
8000a8d0:	e3a03020 	mov	r3, #32
8000a8d4:	e54b3021 	strb	r3, [fp, #-33]	; 0xffffffdf
8000a8d8:	e59b3004 	ldr	r3, [fp, #4]
8000a8dc:	e2832001 	add	r2, r3, #1
8000a8e0:	e58b2004 	str	r2, [fp, #4]
8000a8e4:	e5d33000 	ldrb	r3, [r3]
8000a8e8:	e2433025 	sub	r3, r3, #37	; 0x25
8000a8ec:	e3530053 	cmp	r3, #83	; 0x53
8000a8f0:	979ff103 	ldrls	pc, [pc, r3, lsl #2]
8000a8f4:	ea00013f 	b	0x8000adf8
8000a8f8:	8000ade0 	andhi	sl, r0, r0, ror #27
8000a8fc:	8000adf8 	strdhi	sl, [r0], -r8
8000a900:	8000adf8 	strdhi	sl, [r0], -r8
8000a904:	8000adf8 	strdhi	sl, [r0], -r8
8000a908:	8000adf8 	strdhi	sl, [r0], -r8
8000a90c:	8000adf8 	strdhi	sl, [r0], -r8
8000a910:	8000adf8 	strdhi	sl, [r0], -r8
8000a914:	8000adf8 	strdhi	sl, [r0], -r8
8000a918:	8000adf8 	strdhi	sl, [r0], -r8
8000a91c:	8000adf8 	strdhi	sl, [r0], -r8
8000a920:	8000adf8 	strdhi	sl, [r0], -r8
8000a924:	8000aa48 	andhi	sl, r0, r8, asr #20
8000a928:	8000aa48 	andhi	sl, r0, r8, asr #20
8000a92c:	8000aa48 	andhi	sl, r0, r8, asr #20
8000a930:	8000aa48 	andhi	sl, r0, r8, asr #20
8000a934:	8000aa48 	andhi	sl, r0, r8, asr #20
8000a938:	8000aa48 	andhi	sl, r0, r8, asr #20
8000a93c:	8000aa48 	andhi	sl, r0, r8, asr #20
8000a940:	8000aa48 	andhi	sl, r0, r8, asr #20
8000a944:	8000aa48 	andhi	sl, r0, r8, asr #20
8000a948:	8000aa48 	andhi	sl, r0, r8, asr #20
8000a94c:	8000adf8 	strdhi	sl, [r0], -r8
8000a950:	8000adf8 	strdhi	sl, [r0], -r8
8000a954:	8000adf8 	strdhi	sl, [r0], -r8
8000a958:	8000adf8 	strdhi	sl, [r0], -r8
8000a95c:	8000adf8 	strdhi	sl, [r0], -r8
8000a960:	8000adf8 	strdhi	sl, [r0], -r8
8000a964:	8000adf8 	strdhi	sl, [r0], -r8
8000a968:	8000adf8 	strdhi	sl, [r0], -r8
8000a96c:	8000adf8 	strdhi	sl, [r0], -r8
8000a970:	8000adf8 	strdhi	sl, [r0], -r8
8000a974:	8000adf8 	strdhi	sl, [r0], -r8
8000a978:	8000adf8 	strdhi	sl, [r0], -r8
8000a97c:	8000adf8 	strdhi	sl, [r0], -r8
8000a980:	8000adf8 	strdhi	sl, [r0], -r8
8000a984:	8000adf8 	strdhi	sl, [r0], -r8
8000a988:	8000adf8 	strdhi	sl, [r0], -r8
8000a98c:	8000adf8 	strdhi	sl, [r0], -r8
8000a990:	8000adf8 	strdhi	sl, [r0], -r8
8000a994:	8000adf8 	strdhi	sl, [r0], -r8
8000a998:	8000adf8 	strdhi	sl, [r0], -r8
8000a99c:	8000adf8 	strdhi	sl, [r0], -r8
8000a9a0:	8000adf8 	strdhi	sl, [r0], -r8
8000a9a4:	8000adf8 	strdhi	sl, [r0], -r8
8000a9a8:	8000adf8 	strdhi	sl, [r0], -r8
8000a9ac:	8000adf8 	strdhi	sl, [r0], -r8
8000a9b0:	8000adf8 	strdhi	sl, [r0], -r8
8000a9b4:	8000adf8 	strdhi	sl, [r0], -r8
8000a9b8:	8000adf8 	strdhi	sl, [r0], -r8
8000a9bc:	8000adf8 	strdhi	sl, [r0], -r8
8000a9c0:	8000adf8 	strdhi	sl, [r0], -r8
8000a9c4:	8000abec 	andhi	sl, r0, ip, ror #23
8000a9c8:	8000adf8 	strdhi	sl, [r0], -r8
8000a9cc:	8000adf8 	strdhi	sl, [r0], -r8
8000a9d0:	8000adf8 	strdhi	sl, [r0], -r8
8000a9d4:	8000adf8 	strdhi	sl, [r0], -r8
8000a9d8:	8000adf8 	strdhi	sl, [r0], -r8
8000a9dc:	8000adf8 	strdhi	sl, [r0], -r8
8000a9e0:	8000adf8 	strdhi	sl, [r0], -r8
8000a9e4:	8000adf8 	strdhi	sl, [r0], -r8
8000a9e8:	8000adf8 	strdhi	sl, [r0], -r8
8000a9ec:	8000adf8 	strdhi	sl, [r0], -r8
8000a9f0:	8000aaa4 	andhi	sl, r0, r4, lsr #21
8000a9f4:	8000aacc 	andhi	sl, r0, ip, asr #21
8000a9f8:	8000adf8 	strdhi	sl, [r0], -r8
8000a9fc:	8000adf8 	strdhi	sl, [r0], -r8
8000aa00:	8000adf8 	strdhi	sl, [r0], -r8
8000aa04:	8000adf8 	strdhi	sl, [r0], -r8
8000aa08:	8000adf8 	strdhi	sl, [r0], -r8
8000aa0c:	8000adf8 	strdhi	sl, [r0], -r8
8000aa10:	8000adf8 	strdhi	sl, [r0], -r8
8000aa14:	8000adf8 	strdhi	sl, [r0], -r8
8000aa18:	8000adf8 	strdhi	sl, [r0], -r8
8000aa1c:	8000adf8 	strdhi	sl, [r0], -r8
8000aa20:	8000adf8 	strdhi	sl, [r0], -r8
8000aa24:	8000abec 	andhi	sl, r0, ip, ror #23
8000aa28:	8000adf8 	strdhi	sl, [r0], -r8
8000aa2c:	8000adf8 	strdhi	sl, [r0], -r8
8000aa30:	8000ab20 	andhi	sl, r0, r0, lsr #22
8000aa34:	8000adf8 	strdhi	sl, [r0], -r8
8000aa38:	8000abbc 			; <UNDEFINED> instruction: 0x8000abbc
8000aa3c:	8000adf8 	strdhi	sl, [r0], -r8
8000aa40:	8000adf8 	strdhi	sl, [r0], -r8
8000aa44:	8000abec 	andhi	sl, r0, ip, ror #23
8000aa48:	e59b3004 	ldr	r3, [fp, #4]
8000aa4c:	e2433001 	sub	r3, r3, #1
8000aa50:	e5d33000 	ldrb	r3, [r3]
8000aa54:	e3530030 	cmp	r3, #48	; 0x30
8000aa58:	1a000004 	bne	0x8000aa70
8000aa5c:	e51b3018 	ldr	r3, [fp, #-24]	; 0xffffffe8
8000aa60:	e3530000 	cmp	r3, #0
8000aa64:	1a000001 	bne	0x8000aa70
8000aa68:	e3a03030 	mov	r3, #48	; 0x30
8000aa6c:	e54b3021 	strb	r3, [fp, #-33]	; 0xffffffdf
8000aa70:	e51b3018 	ldr	r3, [fp, #-24]	; 0xffffffe8
8000aa74:	e3a0200a 	mov	r2, #10
8000aa78:	e0030392 	mul	r3, r2, r3
8000aa7c:	e50b3018 	str	r3, [fp, #-24]	; 0xffffffe8
8000aa80:	e59b3004 	ldr	r3, [fp, #4]
8000aa84:	e2433001 	sub	r3, r3, #1
8000aa88:	e5d33000 	ldrb	r3, [r3]
8000aa8c:	e1a02003 	mov	r2, r3
8000aa90:	e51b3018 	ldr	r3, [fp, #-24]	; 0xffffffe8
8000aa94:	e0823003 	add	r3, r2, r3
8000aa98:	e2433030 	sub	r3, r3, #48	; 0x30
8000aa9c:	e50b3018 	str	r3, [fp, #-24]	; 0xffffffe8
8000aaa0:	eaffff8c 	b	0x8000a8d8
8000aaa4:	e51b303c 	ldr	r3, [fp, #-60]	; 0xffffffc4
8000aaa8:	e2832004 	add	r2, r3, #4
8000aaac:	e50b203c 	str	r2, [fp, #-60]	; 0xffffffc4
8000aab0:	e5933000 	ldr	r3, [r3]
8000aab4:	e50b3040 	str	r3, [fp, #-64]	; 0xffffffc0
8000aab8:	e24b3040 	sub	r3, fp, #64	; 0x40
8000aabc:	e3a01001 	mov	r1, #1
8000aac0:	e1a00003 	mov	r0, r3
8000aac4:	ebffff37 	bl	0x8000a7a8
8000aac8:	ea0000cf 	b	0x8000ae0c
8000aacc:	e51b303c 	ldr	r3, [fp, #-60]	; 0xffffffc4
8000aad0:	e2832004 	add	r2, r3, #4
8000aad4:	e50b203c 	str	r2, [fp, #-60]	; 0xffffffc4
8000aad8:	e5933000 	ldr	r3, [r3]
8000aadc:	e50b3040 	str	r3, [fp, #-64]	; 0xffffffc0
8000aae0:	e3a03000 	mov	r3, #0
8000aae4:	e50b3014 	str	r3, [fp, #-20]	; 0xffffffec
8000aae8:	e51b3040 	ldr	r3, [fp, #-64]	; 0xffffffc0
8000aaec:	e3530000 	cmp	r3, #0
8000aaf0:	aa000005 	bge	0x8000ab0c
8000aaf4:	e51b3040 	ldr	r3, [fp, #-64]	; 0xffffffc0
8000aaf8:	e2633000 	rsb	r3, r3, #0
8000aafc:	e50b3040 	str	r3, [fp, #-64]	; 0xffffffc0
8000ab00:	e3a03001 	mov	r3, #1
8000ab04:	e50b3020 	str	r3, [fp, #-32]	; 0xffffffe0
8000ab08:	ea000001 	b	0x8000ab14
8000ab0c:	e3a03000 	mov	r3, #0
8000ab10:	e50b3020 	str	r3, [fp, #-32]	; 0xffffffe0
8000ab14:	e3a0300a 	mov	r3, #10
8000ab18:	e50b301c 	str	r3, [fp, #-28]	; 0xffffffe4
8000ab1c:	ea00003d 	b	0x8000ac18
8000ab20:	e51b303c 	ldr	r3, [fp, #-60]	; 0xffffffc4
8000ab24:	e2832004 	add	r2, r3, #4
8000ab28:	e50b203c 	str	r2, [fp, #-60]	; 0xffffffc4
8000ab2c:	e5933000 	ldr	r3, [r3]
8000ab30:	e50b3028 	str	r3, [fp, #-40]	; 0xffffffd8
8000ab34:	e3a03000 	mov	r3, #0
8000ab38:	e50b3010 	str	r3, [fp, #-16]
8000ab3c:	ea000002 	b	0x8000ab4c
8000ab40:	e51b3010 	ldr	r3, [fp, #-16]
8000ab44:	e2833001 	add	r3, r3, #1
8000ab48:	e50b3010 	str	r3, [fp, #-16]
8000ab4c:	e51b2028 	ldr	r2, [fp, #-40]	; 0xffffffd8
8000ab50:	e51b3010 	ldr	r3, [fp, #-16]
8000ab54:	e0823003 	add	r3, r2, r3
8000ab58:	e5d33000 	ldrb	r3, [r3]
8000ab5c:	e3530000 	cmp	r3, #0
8000ab60:	1afffff6 	bne	0x8000ab40
8000ab64:	e51b1010 	ldr	r1, [fp, #-16]
8000ab68:	e51b0028 	ldr	r0, [fp, #-40]	; 0xffffffd8
8000ab6c:	ebffff0d 	bl	0x8000a7a8
8000ab70:	e51b2018 	ldr	r2, [fp, #-24]	; 0xffffffe8
8000ab74:	e51b3010 	ldr	r3, [fp, #-16]
8000ab78:	e1520003 	cmp	r2, r3
8000ab7c:	9a0000a2 	bls	0x8000ae0c
8000ab80:	e51b2018 	ldr	r2, [fp, #-24]	; 0xffffffe8
8000ab84:	e51b3010 	ldr	r3, [fp, #-16]
8000ab88:	e0423003 	sub	r3, r2, r3
8000ab8c:	e50b3018 	str	r3, [fp, #-24]	; 0xffffffe8
8000ab90:	ea000003 	b	0x8000aba4
8000ab94:	e3a01001 	mov	r1, #1
8000ab98:	e30e0780 	movw	r0, #59264	; 0xe780
8000ab9c:	e3480000 	movt	r0, #32768	; 0x8000
8000aba0:	ebffff00 	bl	0x8000a7a8
8000aba4:	e51b3018 	ldr	r3, [fp, #-24]	; 0xffffffe8
8000aba8:	e2432001 	sub	r2, r3, #1
8000abac:	e50b2018 	str	r2, [fp, #-24]	; 0xffffffe8
8000abb0:	e3530000 	cmp	r3, #0
8000abb4:	1afffff6 	bne	0x8000ab94
8000abb8:	ea000093 	b	0x8000ae0c
8000abbc:	e51b303c 	ldr	r3, [fp, #-60]	; 0xffffffc4
8000abc0:	e2832004 	add	r2, r3, #4
8000abc4:	e50b203c 	str	r2, [fp, #-60]	; 0xffffffc4
8000abc8:	e5933000 	ldr	r3, [r3]
8000abcc:	e50b3040 	str	r3, [fp, #-64]	; 0xffffffc0
8000abd0:	e3a03000 	mov	r3, #0
8000abd4:	e50b3014 	str	r3, [fp, #-20]	; 0xffffffec
8000abd8:	e3a0300a 	mov	r3, #10
8000abdc:	e50b301c 	str	r3, [fp, #-28]	; 0xffffffe4
8000abe0:	e3a03000 	mov	r3, #0
8000abe4:	e50b3020 	str	r3, [fp, #-32]	; 0xffffffe0
8000abe8:	ea00000a 	b	0x8000ac18
8000abec:	e51b303c 	ldr	r3, [fp, #-60]	; 0xffffffc4
8000abf0:	e2832004 	add	r2, r3, #4
8000abf4:	e50b203c 	str	r2, [fp, #-60]	; 0xffffffc4
8000abf8:	e5933000 	ldr	r3, [r3]
8000abfc:	e50b3040 	str	r3, [fp, #-64]	; 0xffffffc0
8000ac00:	e3a03000 	mov	r3, #0
8000ac04:	e50b3014 	str	r3, [fp, #-20]	; 0xffffffec
8000ac08:	e3a03010 	mov	r3, #16
8000ac0c:	e50b301c 	str	r3, [fp, #-28]	; 0xffffffe4
8000ac10:	e3a03000 	mov	r3, #0
8000ac14:	e50b3020 	str	r3, [fp, #-32]	; 0xffffffe0
8000ac18:	e3a03001 	mov	r3, #1
8000ac1c:	e50b3010 	str	r3, [fp, #-16]
8000ac20:	ea000006 	b	0x8000ac40
8000ac24:	e51b3010 	ldr	r3, [fp, #-16]
8000ac28:	e51b201c 	ldr	r2, [fp, #-28]	; 0xffffffe4
8000ac2c:	e0030392 	mul	r3, r2, r3
8000ac30:	e50b3010 	str	r3, [fp, #-16]
8000ac34:	e51b3018 	ldr	r3, [fp, #-24]	; 0xffffffe8
8000ac38:	e2433001 	sub	r3, r3, #1
8000ac3c:	e50b3018 	str	r3, [fp, #-24]	; 0xffffffe8
8000ac40:	e51b3010 	ldr	r3, [fp, #-16]
8000ac44:	e51b201c 	ldr	r2, [fp, #-28]	; 0xffffffe4
8000ac48:	e0030392 	mul	r3, r2, r3
8000ac4c:	e51b2040 	ldr	r2, [fp, #-64]	; 0xffffffc0
8000ac50:	e1530002 	cmp	r3, r2
8000ac54:	8a00000a 	bhi	0x8000ac84
8000ac58:	e51b3010 	ldr	r3, [fp, #-16]
8000ac5c:	e51b201c 	ldr	r2, [fp, #-28]	; 0xffffffe4
8000ac60:	e0030392 	mul	r3, r2, r3
8000ac64:	e51b101c 	ldr	r1, [fp, #-28]	; 0xffffffe4
8000ac68:	e1a00003 	mov	r0, r3
8000ac6c:	eb000415 	bl	0x8000bcc8
8000ac70:	e1a03000 	mov	r3, r0
8000ac74:	e1a02003 	mov	r2, r3
8000ac78:	e51b3010 	ldr	r3, [fp, #-16]
8000ac7c:	e1520003 	cmp	r2, r3
8000ac80:	0affffe7 	beq	0x8000ac24
8000ac84:	e51b3020 	ldr	r3, [fp, #-32]	; 0xffffffe0
8000ac88:	e3530000 	cmp	r3, #0
8000ac8c:	0a000002 	beq	0x8000ac9c
8000ac90:	e51b3018 	ldr	r3, [fp, #-24]	; 0xffffffe8
8000ac94:	e2433001 	sub	r3, r3, #1
8000ac98:	e50b3018 	str	r3, [fp, #-24]	; 0xffffffe8
8000ac9c:	e51b3020 	ldr	r3, [fp, #-32]	; 0xffffffe0
8000aca0:	e3530000 	cmp	r3, #0
8000aca4:	0a00000b 	beq	0x8000acd8
8000aca8:	e55b3021 	ldrb	r3, [fp, #-33]	; 0xffffffdf
8000acac:	e3530030 	cmp	r3, #48	; 0x30
8000acb0:	1a000008 	bne	0x8000acd8
8000acb4:	e51b3014 	ldr	r3, [fp, #-20]	; 0xffffffec
8000acb8:	e2832001 	add	r2, r3, #1
8000acbc:	e50b2014 	str	r2, [fp, #-20]	; 0xffffffec
8000acc0:	e24b200c 	sub	r2, fp, #12
8000acc4:	e0823003 	add	r3, r2, r3
8000acc8:	e3a0202d 	mov	r2, #45	; 0x2d
8000accc:	e543202c 	strb	r2, [r3, #-44]	; 0xffffffd4
8000acd0:	e3a03000 	mov	r3, #0
8000acd4:	e50b3020 	str	r3, [fp, #-32]	; 0xffffffe0
8000acd8:	e51b3018 	ldr	r3, [fp, #-24]	; 0xffffffe8
8000acdc:	e3530001 	cmp	r3, #1
8000ace0:	9a000013 	bls	0x8000ad34
8000ace4:	e51b3018 	ldr	r3, [fp, #-24]	; 0xffffffe8
8000ace8:	e353000f 	cmp	r3, #15
8000acec:	8a000010 	bhi	0x8000ad34
8000acf0:	e51b3018 	ldr	r3, [fp, #-24]	; 0xffffffe8
8000acf4:	e2433001 	sub	r3, r3, #1
8000acf8:	e50b3018 	str	r3, [fp, #-24]	; 0xffffffe8
8000acfc:	ea000009 	b	0x8000ad28
8000ad00:	e51b3014 	ldr	r3, [fp, #-20]	; 0xffffffec
8000ad04:	e2832001 	add	r2, r3, #1
8000ad08:	e50b2014 	str	r2, [fp, #-20]	; 0xffffffec
8000ad0c:	e24b200c 	sub	r2, fp, #12
8000ad10:	e0823003 	add	r3, r2, r3
8000ad14:	e55b2021 	ldrb	r2, [fp, #-33]	; 0xffffffdf
8000ad18:	e543202c 	strb	r2, [r3, #-44]	; 0xffffffd4
8000ad1c:	e51b3018 	ldr	r3, [fp, #-24]	; 0xffffffe8
8000ad20:	e2433001 	sub	r3, r3, #1
8000ad24:	e50b3018 	str	r3, [fp, #-24]	; 0xffffffe8
8000ad28:	e51b3018 	ldr	r3, [fp, #-24]	; 0xffffffe8
8000ad2c:	e3530000 	cmp	r3, #0
8000ad30:	1afffff2 	bne	0x8000ad00
8000ad34:	e51b3020 	ldr	r3, [fp, #-32]	; 0xffffffe0
8000ad38:	e3530000 	cmp	r3, #0
8000ad3c:	0a00001f 	beq	0x8000adc0
8000ad40:	e51b3014 	ldr	r3, [fp, #-20]	; 0xffffffec
8000ad44:	e2832001 	add	r2, r3, #1
8000ad48:	e50b2014 	str	r2, [fp, #-20]	; 0xffffffec
8000ad4c:	e24b200c 	sub	r2, fp, #12
8000ad50:	e0823003 	add	r3, r2, r3
8000ad54:	e3a0202d 	mov	r2, #45	; 0x2d
8000ad58:	e543202c 	strb	r2, [r3, #-44]	; 0xffffffd4
8000ad5c:	ea000017 	b	0x8000adc0
8000ad60:	e51b5014 	ldr	r5, [fp, #-20]	; 0xffffffec
8000ad64:	e2853001 	add	r3, r5, #1
8000ad68:	e50b3014 	str	r3, [fp, #-20]	; 0xffffffec
8000ad6c:	e30e4768 	movw	r4, #59240	; 0xe768
8000ad70:	e3484000 	movt	r4, #32768	; 0x8000
8000ad74:	e51b3040 	ldr	r3, [fp, #-64]	; 0xffffffc0
8000ad78:	e51b1010 	ldr	r1, [fp, #-16]
8000ad7c:	e1a00003 	mov	r0, r3
8000ad80:	eb0003d0 	bl	0x8000bcc8
8000ad84:	e1a03000 	mov	r3, r0
8000ad88:	e51b101c 	ldr	r1, [fp, #-28]	; 0xffffffe4
8000ad8c:	e1a00003 	mov	r0, r3
8000ad90:	eb000409 	bl	0x8000bdbc
8000ad94:	e1a03001 	mov	r3, r1
8000ad98:	e0843003 	add	r3, r4, r3
8000ad9c:	e5d32000 	ldrb	r2, [r3]
8000ada0:	e24b300c 	sub	r3, fp, #12
8000ada4:	e0833005 	add	r3, r3, r5
8000ada8:	e543202c 	strb	r2, [r3, #-44]	; 0xffffffd4
8000adac:	e51b101c 	ldr	r1, [fp, #-28]	; 0xffffffe4
8000adb0:	e51b0010 	ldr	r0, [fp, #-16]
8000adb4:	eb0003c3 	bl	0x8000bcc8
8000adb8:	e1a03000 	mov	r3, r0
8000adbc:	e50b3010 	str	r3, [fp, #-16]
8000adc0:	e51b3010 	ldr	r3, [fp, #-16]
8000adc4:	e3530000 	cmp	r3, #0
8000adc8:	1affffe4 	bne	0x8000ad60
8000adcc:	e24b3038 	sub	r3, fp, #56	; 0x38
8000add0:	e51b1014 	ldr	r1, [fp, #-20]	; 0xffffffec
8000add4:	e1a00003 	mov	r0, r3
8000add8:	ebfffe72 	bl	0x8000a7a8
8000addc:	ea00000a 	b	0x8000ae0c
8000ade0:	e59b3004 	ldr	r3, [fp, #4]
8000ade4:	e2433001 	sub	r3, r3, #1
8000ade8:	e3a01001 	mov	r1, #1
8000adec:	e1a00003 	mov	r0, r3
8000adf0:	ebfffe6c 	bl	0x8000a7a8
8000adf4:	ea000004 	b	0x8000ae0c
8000adf8:	e3a01005 	mov	r1, #5
8000adfc:	e30e0784 	movw	r0, #59268	; 0xe784
8000ae00:	e3480000 	movt	r0, #32768	; 0x8000
8000ae04:	ebfffe67 	bl	0x8000a7a8
8000ae08:	e320f000 	nop	{0}
8000ae0c:	e59b3004 	ldr	r3, [fp, #4]
8000ae10:	e5d33000 	ldrb	r3, [r3]
8000ae14:	e3530000 	cmp	r3, #0
8000ae18:	1afffe8a 	bne	0x8000a848
8000ae1c:	e320f000 	nop	{0}
8000ae20:	e24bd00c 	sub	sp, fp, #12
8000ae24:	e8bd4830 	pop	{r4, r5, fp, lr}
8000ae28:	e28dd010 	add	sp, sp, #16
8000ae2c:	e12fff1e 	bx	lr
8000ae30:	e92d4800 	push	{fp, lr}
8000ae34:	e28db004 	add	fp, sp, #4
8000ae38:	e24dd078 	sub	sp, sp, #120	; 0x78
8000ae3c:	e50b0078 	str	r0, [fp, #-120]	; 0xffffff88
8000ae40:	e50b107c 	str	r1, [fp, #-124]	; 0xffffff84
8000ae44:	e3a03050 	mov	r3, #80	; 0x50
8000ae48:	e50b300c 	str	r3, [fp, #-12]
8000ae4c:	e3a03000 	mov	r3, #0
8000ae50:	e50b3010 	str	r3, [fp, #-16]
8000ae54:	e3a03001 	mov	r3, #1
8000ae58:	e50b3014 	str	r3, [fp, #-20]	; 0xffffffec
8000ae5c:	e3a03000 	mov	r3, #0
8000ae60:	e50b3018 	str	r3, [fp, #-24]	; 0xffffffe8
8000ae64:	ea000208 	b	0x8000b68c
8000ae68:	e51b3078 	ldr	r3, [fp, #-120]	; 0xffffff88
8000ae6c:	e2832001 	add	r2, r3, #1
8000ae70:	e50b2078 	str	r2, [fp, #-120]	; 0xffffff88
8000ae74:	e5d33000 	ldrb	r3, [r3]
8000ae78:	e3530025 	cmp	r3, #37	; 0x25
8000ae7c:	1a000202 	bne	0x8000b68c
8000ae80:	e51b3018 	ldr	r3, [fp, #-24]	; 0xffffffe8
8000ae84:	e3530000 	cmp	r3, #0
8000ae88:	ba0001ff 	blt	0x8000b68c
8000ae8c:	e51b3078 	ldr	r3, [fp, #-120]	; 0xffffff88
8000ae90:	e2832001 	add	r2, r3, #1
8000ae94:	e50b2078 	str	r2, [fp, #-120]	; 0xffffff88
8000ae98:	e5d33000 	ldrb	r3, [r3]
8000ae9c:	e2433058 	sub	r3, r3, #88	; 0x58
8000aea0:	e3530020 	cmp	r3, #32
8000aea4:	979ff103 	ldrls	pc, [pc, r3, lsl #2]
8000aea8:	ea0001f0 	b	0x8000b670
8000aeac:	8000b1c0 	andhi	fp, r0, r0, asr #3
8000aeb0:	8000b670 	andhi	fp, r0, r0, ror r6
8000aeb4:	8000b670 	andhi	fp, r0, r0, ror r6
8000aeb8:	8000b670 	andhi	fp, r0, r0, ror r6
8000aebc:	8000b670 	andhi	fp, r0, r0, ror r6
8000aec0:	8000b670 	andhi	fp, r0, r0, ror r6
8000aec4:	8000b670 	andhi	fp, r0, r0, ror r6
8000aec8:	8000b670 	andhi	fp, r0, r0, ror r6
8000aecc:	8000b670 	andhi	fp, r0, r0, ror r6
8000aed0:	8000b670 	andhi	fp, r0, r0, ror r6
8000aed4:	8000b670 	andhi	fp, r0, r0, ror r6
8000aed8:	8000af30 	andhi	sl, r0, r0, lsr pc
8000aedc:	8000afe4 	andhi	sl, r0, r4, ror #31
8000aee0:	8000b670 	andhi	fp, r0, r0, ror r6
8000aee4:	8000b670 	andhi	fp, r0, r0, ror r6
8000aee8:	8000b670 	andhi	fp, r0, r0, ror r6
8000aeec:	8000b670 	andhi	fp, r0, r0, ror r6
8000aef0:	8000b670 	andhi	fp, r0, r0, ror r6
8000aef4:	8000b670 	andhi	fp, r0, r0, ror r6
8000aef8:	8000b670 	andhi	fp, r0, r0, ror r6
8000aefc:	8000b670 	andhi	fp, r0, r0, ror r6
8000af00:	8000b670 	andhi	fp, r0, r0, ror r6
8000af04:	8000b670 	andhi	fp, r0, r0, ror r6
8000af08:	8000b670 	andhi	fp, r0, r0, ror r6
8000af0c:	8000b1c0 	andhi	fp, r0, r0, asr #3
8000af10:	8000b670 	andhi	fp, r0, r0, ror r6
8000af14:	8000b670 	andhi	fp, r0, r0, ror r6
8000af18:	8000b398 	mulhi	r0, r8, r3
8000af1c:	8000b670 	andhi	fp, r0, r0, ror r6
8000af20:	8000b4e8 	andhi	fp, r0, r8, ror #9
8000af24:	8000b670 	andhi	fp, r0, r0, ror r6
8000af28:	8000b670 	andhi	fp, r0, r0, ror r6
8000af2c:	8000b1c0 	andhi	fp, r0, r0, asr #3
8000af30:	e51b307c 	ldr	r3, [fp, #-124]	; 0xffffff84
8000af34:	e2832004 	add	r2, r3, #4
8000af38:	e50b207c 	str	r2, [fp, #-124]	; 0xffffff84
8000af3c:	e5933000 	ldr	r3, [r3]
8000af40:	e50b301c 	str	r3, [fp, #-28]	; 0xffffffe4
8000af44:	ebfffe11 	bl	0x8000a790
8000af48:	e1a03000 	mov	r3, r0
8000af4c:	e54b3005 	strb	r3, [fp, #-5]
8000af50:	e55b3005 	ldrb	r3, [fp, #-5]
8000af54:	e1a00003 	mov	r0, r3
8000af58:	ebfffe01 	bl	0x8000a764
8000af5c:	e51b301c 	ldr	r3, [fp, #-28]	; 0xffffffe4
8000af60:	e55b2005 	ldrb	r2, [fp, #-5]
8000af64:	e5c32000 	strb	r2, [r3]
8000af68:	e51b3018 	ldr	r3, [fp, #-24]	; 0xffffffe8
8000af6c:	e2833001 	add	r3, r3, #1
8000af70:	e50b3018 	str	r3, [fp, #-24]	; 0xffffffe8
8000af74:	ea000002 	b	0x8000af84
8000af78:	ebfffe04 	bl	0x8000a790
8000af7c:	e1a03000 	mov	r3, r0
8000af80:	e54b3005 	strb	r3, [fp, #-5]
8000af84:	e55b3005 	ldrb	r3, [fp, #-5]
8000af88:	e353000a 	cmp	r3, #10
8000af8c:	0a000005 	beq	0x8000afa8
8000af90:	e55b3005 	ldrb	r3, [fp, #-5]
8000af94:	e353000d 	cmp	r3, #13
8000af98:	0a000002 	beq	0x8000afa8
8000af9c:	e55b3005 	ldrb	r3, [fp, #-5]
8000afa0:	e3530020 	cmp	r3, #32
8000afa4:	1afffff3 	bne	0x8000af78
8000afa8:	e55b3005 	ldrb	r3, [fp, #-5]
8000afac:	e353000a 	cmp	r3, #10
8000afb0:	0a000002 	beq	0x8000afc0
8000afb4:	e55b3005 	ldrb	r3, [fp, #-5]
8000afb8:	e353000d 	cmp	r3, #13
8000afbc:	1a000004 	bne	0x8000afd4
8000afc0:	e3a0000d 	mov	r0, #13
8000afc4:	ebfffde6 	bl	0x8000a764
8000afc8:	e3a0000a 	mov	r0, #10
8000afcc:	ebfffde4 	bl	0x8000a764
8000afd0:	ea000002 	b	0x8000afe0
8000afd4:	e55b3005 	ldrb	r3, [fp, #-5]
8000afd8:	e1a00003 	mov	r0, r3
8000afdc:	ebfffde0 	bl	0x8000a764
8000afe0:	ea0001a9 	b	0x8000b68c
8000afe4:	e51b307c 	ldr	r3, [fp, #-124]	; 0xffffff84
8000afe8:	e2832004 	add	r2, r3, #4
8000afec:	e50b207c 	str	r2, [fp, #-124]	; 0xffffff84
8000aff0:	e5933000 	ldr	r3, [r3]
8000aff4:	e50b3020 	str	r3, [fp, #-32]	; 0xffffffe0
8000aff8:	e51b3020 	ldr	r3, [fp, #-32]	; 0xffffffe0
8000affc:	e3a02000 	mov	r2, #0
8000b000:	e5832000 	str	r2, [r3]
8000b004:	e51b3018 	ldr	r3, [fp, #-24]	; 0xffffffe8
8000b008:	e2833001 	add	r3, r3, #1
8000b00c:	e50b3018 	str	r3, [fp, #-24]	; 0xffffffe8
8000b010:	ebfffdde 	bl	0x8000a790
8000b014:	e1a03000 	mov	r3, r0
8000b018:	e54b3005 	strb	r3, [fp, #-5]
8000b01c:	ea000005 	b	0x8000b038
8000b020:	e55b3005 	ldrb	r3, [fp, #-5]
8000b024:	e1a00003 	mov	r0, r3
8000b028:	ebfffdcd 	bl	0x8000a764
8000b02c:	ebfffdd7 	bl	0x8000a790
8000b030:	e1a03000 	mov	r3, r0
8000b034:	e54b3005 	strb	r3, [fp, #-5]
8000b038:	e55b3005 	ldrb	r3, [fp, #-5]
8000b03c:	e353000d 	cmp	r3, #13
8000b040:	0afffff6 	beq	0x8000b020
8000b044:	e55b3005 	ldrb	r3, [fp, #-5]
8000b048:	e3530020 	cmp	r3, #32
8000b04c:	0afffff3 	beq	0x8000b020
8000b050:	e55b3005 	ldrb	r3, [fp, #-5]
8000b054:	e3530009 	cmp	r3, #9
8000b058:	0afffff0 	beq	0x8000b020
8000b05c:	e55b3005 	ldrb	r3, [fp, #-5]
8000b060:	e3530008 	cmp	r3, #8
8000b064:	0affffed 	beq	0x8000b020
8000b068:	e55b2005 	ldrb	r2, [fp, #-5]
8000b06c:	e24b3074 	sub	r3, fp, #116	; 0x74
8000b070:	e1a01002 	mov	r1, r2
8000b074:	e1a00003 	mov	r0, r3
8000b078:	ebfffba1 	bl	0x80009f04
8000b07c:	e24b2074 	sub	r2, fp, #116	; 0x74
8000b080:	e51b3010 	ldr	r3, [fp, #-16]
8000b084:	e0823003 	add	r3, r2, r3
8000b088:	e5d33000 	ldrb	r3, [r3]
8000b08c:	e54b3005 	strb	r3, [fp, #-5]
8000b090:	e55b3005 	ldrb	r3, [fp, #-5]
8000b094:	e353002d 	cmp	r3, #45	; 0x2d
8000b098:	1a000028 	bne	0x8000b140
8000b09c:	e3e03000 	mvn	r3, #0
8000b0a0:	e50b3014 	str	r3, [fp, #-20]	; 0xffffffec
8000b0a4:	e51b3010 	ldr	r3, [fp, #-16]
8000b0a8:	e2833001 	add	r3, r3, #1
8000b0ac:	e50b3010 	str	r3, [fp, #-16]
8000b0b0:	e24b2074 	sub	r2, fp, #116	; 0x74
8000b0b4:	e51b3010 	ldr	r3, [fp, #-16]
8000b0b8:	e0823003 	add	r3, r2, r3
8000b0bc:	e5d33000 	ldrb	r3, [r3]
8000b0c0:	e54b3005 	strb	r3, [fp, #-5]
8000b0c4:	ea00001d 	b	0x8000b140
8000b0c8:	e55b3005 	ldrb	r3, [fp, #-5]
8000b0cc:	e3a0100a 	mov	r1, #10
8000b0d0:	e1a00003 	mov	r0, r3
8000b0d4:	ebffd412 	bl	0x80000124
8000b0d8:	e1a03000 	mov	r3, r0
8000b0dc:	e54b3005 	strb	r3, [fp, #-5]
8000b0e0:	e55b3005 	ldrb	r3, [fp, #-5]
8000b0e4:	e35300ff 	cmp	r3, #255	; 0xff
8000b0e8:	1a000002 	bne	0x8000b0f8
8000b0ec:	e3e03000 	mvn	r3, #0
8000b0f0:	e50b3018 	str	r3, [fp, #-24]	; 0xffffffe8
8000b0f4:	ea00001a 	b	0x8000b164
8000b0f8:	e51b3020 	ldr	r3, [fp, #-32]	; 0xffffffe0
8000b0fc:	e5933000 	ldr	r3, [r3]
8000b100:	e1a02003 	mov	r2, r3
8000b104:	e3a0300a 	mov	r3, #10
8000b108:	e0020293 	mul	r2, r3, r2
8000b10c:	e55b3005 	ldrb	r3, [fp, #-5]
8000b110:	e0823003 	add	r3, r2, r3
8000b114:	e1a02003 	mov	r2, r3
8000b118:	e51b3020 	ldr	r3, [fp, #-32]	; 0xffffffe0
8000b11c:	e5832000 	str	r2, [r3]
8000b120:	e51b3010 	ldr	r3, [fp, #-16]
8000b124:	e2833001 	add	r3, r3, #1
8000b128:	e50b3010 	str	r3, [fp, #-16]
8000b12c:	e24b2074 	sub	r2, fp, #116	; 0x74
8000b130:	e51b3010 	ldr	r3, [fp, #-16]
8000b134:	e0823003 	add	r3, r2, r3
8000b138:	e5d33000 	ldrb	r3, [r3]
8000b13c:	e54b3005 	strb	r3, [fp, #-5]
8000b140:	e55b3005 	ldrb	r3, [fp, #-5]
8000b144:	e353000a 	cmp	r3, #10
8000b148:	0a000005 	beq	0x8000b164
8000b14c:	e55b3005 	ldrb	r3, [fp, #-5]
8000b150:	e353000d 	cmp	r3, #13
8000b154:	0a000002 	beq	0x8000b164
8000b158:	e55b3005 	ldrb	r3, [fp, #-5]
8000b15c:	e3530020 	cmp	r3, #32
8000b160:	1affffd8 	bne	0x8000b0c8
8000b164:	e51b3020 	ldr	r3, [fp, #-32]	; 0xffffffe0
8000b168:	e5933000 	ldr	r3, [r3]
8000b16c:	e51b2014 	ldr	r2, [fp, #-20]	; 0xffffffec
8000b170:	e0020392 	mul	r2, r2, r3
8000b174:	e51b3020 	ldr	r3, [fp, #-32]	; 0xffffffe0
8000b178:	e5832000 	str	r2, [r3]
8000b17c:	e3a03000 	mov	r3, #0
8000b180:	e50b3010 	str	r3, [fp, #-16]
8000b184:	e55b3005 	ldrb	r3, [fp, #-5]
8000b188:	e353000a 	cmp	r3, #10
8000b18c:	0a000002 	beq	0x8000b19c
8000b190:	e55b3005 	ldrb	r3, [fp, #-5]
8000b194:	e353000d 	cmp	r3, #13
8000b198:	1a000004 	bne	0x8000b1b0
8000b19c:	e3a0000d 	mov	r0, #13
8000b1a0:	ebfffd6f 	bl	0x8000a764
8000b1a4:	e3a0000a 	mov	r0, #10
8000b1a8:	ebfffd6d 	bl	0x8000a764
8000b1ac:	ea000002 	b	0x8000b1bc
8000b1b0:	e55b3005 	ldrb	r3, [fp, #-5]
8000b1b4:	e1a00003 	mov	r0, r3
8000b1b8:	ebfffd69 	bl	0x8000a764
8000b1bc:	ea000132 	b	0x8000b68c
8000b1c0:	e51b307c 	ldr	r3, [fp, #-124]	; 0xffffff84
8000b1c4:	e2832004 	add	r2, r3, #4
8000b1c8:	e50b207c 	str	r2, [fp, #-124]	; 0xffffff84
8000b1cc:	e5933000 	ldr	r3, [r3]
8000b1d0:	e50b3024 	str	r3, [fp, #-36]	; 0xffffffdc
8000b1d4:	e51b3024 	ldr	r3, [fp, #-36]	; 0xffffffdc
8000b1d8:	e3a02000 	mov	r2, #0
8000b1dc:	e5832000 	str	r2, [r3]
8000b1e0:	e51b3018 	ldr	r3, [fp, #-24]	; 0xffffffe8
8000b1e4:	e2833001 	add	r3, r3, #1
8000b1e8:	e50b3018 	str	r3, [fp, #-24]	; 0xffffffe8
8000b1ec:	ebfffd67 	bl	0x8000a790
8000b1f0:	e1a03000 	mov	r3, r0
8000b1f4:	e54b3005 	strb	r3, [fp, #-5]
8000b1f8:	ea000005 	b	0x8000b214
8000b1fc:	e55b3005 	ldrb	r3, [fp, #-5]
8000b200:	e1a00003 	mov	r0, r3
8000b204:	ebfffd56 	bl	0x8000a764
8000b208:	ebfffd60 	bl	0x8000a790
8000b20c:	e1a03000 	mov	r3, r0
8000b210:	e54b3005 	strb	r3, [fp, #-5]
8000b214:	e55b3005 	ldrb	r3, [fp, #-5]
8000b218:	e353000d 	cmp	r3, #13
8000b21c:	0afffff6 	beq	0x8000b1fc
8000b220:	e55b3005 	ldrb	r3, [fp, #-5]
8000b224:	e3530020 	cmp	r3, #32
8000b228:	0afffff3 	beq	0x8000b1fc
8000b22c:	e55b3005 	ldrb	r3, [fp, #-5]
8000b230:	e3530009 	cmp	r3, #9
8000b234:	0afffff0 	beq	0x8000b1fc
8000b238:	e55b3005 	ldrb	r3, [fp, #-5]
8000b23c:	e3530008 	cmp	r3, #8
8000b240:	0affffed 	beq	0x8000b1fc
8000b244:	e55b2005 	ldrb	r2, [fp, #-5]
8000b248:	e24b3074 	sub	r3, fp, #116	; 0x74
8000b24c:	e1a01002 	mov	r1, r2
8000b250:	e1a00003 	mov	r0, r3
8000b254:	ebfffb2a 	bl	0x80009f04
8000b258:	e24b2074 	sub	r2, fp, #116	; 0x74
8000b25c:	e51b3010 	ldr	r3, [fp, #-16]
8000b260:	e0823003 	add	r3, r2, r3
8000b264:	e5d33000 	ldrb	r3, [r3]
8000b268:	e54b3005 	strb	r3, [fp, #-5]
8000b26c:	ea00002f 	b	0x8000b330
8000b270:	e51b3010 	ldr	r3, [fp, #-16]
8000b274:	e3530001 	cmp	r3, #1
8000b278:	8a000011 	bhi	0x8000b2c4
8000b27c:	e55b3005 	ldrb	r3, [fp, #-5]
8000b280:	e3530030 	cmp	r3, #48	; 0x30
8000b284:	0a000005 	beq	0x8000b2a0
8000b288:	e55b3005 	ldrb	r3, [fp, #-5]
8000b28c:	e3530078 	cmp	r3, #120	; 0x78
8000b290:	0a000002 	beq	0x8000b2a0
8000b294:	e55b3005 	ldrb	r3, [fp, #-5]
8000b298:	e3530058 	cmp	r3, #88	; 0x58
8000b29c:	1a000008 	bne	0x8000b2c4
8000b2a0:	e51b3010 	ldr	r3, [fp, #-16]
8000b2a4:	e2833001 	add	r3, r3, #1
8000b2a8:	e50b3010 	str	r3, [fp, #-16]
8000b2ac:	e24b2074 	sub	r2, fp, #116	; 0x74
8000b2b0:	e51b3010 	ldr	r3, [fp, #-16]
8000b2b4:	e0823003 	add	r3, r2, r3
8000b2b8:	e5d33000 	ldrb	r3, [r3]
8000b2bc:	e54b3005 	strb	r3, [fp, #-5]
8000b2c0:	ea00001a 	b	0x8000b330
8000b2c4:	e55b3005 	ldrb	r3, [fp, #-5]
8000b2c8:	e3a01010 	mov	r1, #16
8000b2cc:	e1a00003 	mov	r0, r3
8000b2d0:	ebffd393 	bl	0x80000124
8000b2d4:	e1a03000 	mov	r3, r0
8000b2d8:	e54b3005 	strb	r3, [fp, #-5]
8000b2dc:	e55b3005 	ldrb	r3, [fp, #-5]
8000b2e0:	e35300ff 	cmp	r3, #255	; 0xff
8000b2e4:	1a000002 	bne	0x8000b2f4
8000b2e8:	e3e03000 	mvn	r3, #0
8000b2ec:	e50b3018 	str	r3, [fp, #-24]	; 0xffffffe8
8000b2f0:	ea000017 	b	0x8000b354
8000b2f4:	e51b3024 	ldr	r3, [fp, #-36]	; 0xffffffdc
8000b2f8:	e5933000 	ldr	r3, [r3]
8000b2fc:	e1a02203 	lsl	r2, r3, #4
8000b300:	e55b3005 	ldrb	r3, [fp, #-5]
8000b304:	e0822003 	add	r2, r2, r3
8000b308:	e51b3024 	ldr	r3, [fp, #-36]	; 0xffffffdc
8000b30c:	e5832000 	str	r2, [r3]
8000b310:	e51b3010 	ldr	r3, [fp, #-16]
8000b314:	e2833001 	add	r3, r3, #1
8000b318:	e50b3010 	str	r3, [fp, #-16]
8000b31c:	e24b2074 	sub	r2, fp, #116	; 0x74
8000b320:	e51b3010 	ldr	r3, [fp, #-16]
8000b324:	e0823003 	add	r3, r2, r3
8000b328:	e5d33000 	ldrb	r3, [r3]
8000b32c:	e54b3005 	strb	r3, [fp, #-5]
8000b330:	e55b3005 	ldrb	r3, [fp, #-5]
8000b334:	e353000a 	cmp	r3, #10
8000b338:	0a000005 	beq	0x8000b354
8000b33c:	e55b3005 	ldrb	r3, [fp, #-5]
8000b340:	e353000d 	cmp	r3, #13
8000b344:	0a000002 	beq	0x8000b354
8000b348:	e55b3005 	ldrb	r3, [fp, #-5]
8000b34c:	e3530020 	cmp	r3, #32
8000b350:	1affffc6 	bne	0x8000b270
8000b354:	e3a03000 	mov	r3, #0
8000b358:	e50b3010 	str	r3, [fp, #-16]
8000b35c:	e55b3005 	ldrb	r3, [fp, #-5]
8000b360:	e353000a 	cmp	r3, #10
8000b364:	0a000002 	beq	0x8000b374
8000b368:	e55b3005 	ldrb	r3, [fp, #-5]
8000b36c:	e353000d 	cmp	r3, #13
8000b370:	1a000004 	bne	0x8000b388
8000b374:	e3a0000d 	mov	r0, #13
8000b378:	ebfffcf9 	bl	0x8000a764
8000b37c:	e3a0000a 	mov	r0, #10
8000b380:	ebfffcf7 	bl	0x8000a764
8000b384:	ea000002 	b	0x8000b394
8000b388:	e55b3005 	ldrb	r3, [fp, #-5]
8000b38c:	e1a00003 	mov	r0, r3
8000b390:	ebfffcf3 	bl	0x8000a764
8000b394:	ea0000bc 	b	0x8000b68c
8000b398:	e51b307c 	ldr	r3, [fp, #-124]	; 0xffffff84
8000b39c:	e2832004 	add	r2, r3, #4
8000b3a0:	e50b207c 	str	r2, [fp, #-124]	; 0xffffff84
8000b3a4:	e5933000 	ldr	r3, [r3]
8000b3a8:	e50b301c 	str	r3, [fp, #-28]	; 0xffffffe4
8000b3ac:	e51b3018 	ldr	r3, [fp, #-24]	; 0xffffffe8
8000b3b0:	e2833001 	add	r3, r3, #1
8000b3b4:	e50b3018 	str	r3, [fp, #-24]	; 0xffffffe8
8000b3b8:	ebfffcf4 	bl	0x8000a790
8000b3bc:	e1a03000 	mov	r3, r0
8000b3c0:	e54b3005 	strb	r3, [fp, #-5]
8000b3c4:	ea000005 	b	0x8000b3e0
8000b3c8:	e55b3005 	ldrb	r3, [fp, #-5]
8000b3cc:	e1a00003 	mov	r0, r3
8000b3d0:	ebfffce3 	bl	0x8000a764
8000b3d4:	ebfffced 	bl	0x8000a790
8000b3d8:	e1a03000 	mov	r3, r0
8000b3dc:	e54b3005 	strb	r3, [fp, #-5]
8000b3e0:	e55b3005 	ldrb	r3, [fp, #-5]
8000b3e4:	e353000d 	cmp	r3, #13
8000b3e8:	0afffff6 	beq	0x8000b3c8
8000b3ec:	e55b3005 	ldrb	r3, [fp, #-5]
8000b3f0:	e3530020 	cmp	r3, #32
8000b3f4:	0afffff3 	beq	0x8000b3c8
8000b3f8:	e55b3005 	ldrb	r3, [fp, #-5]
8000b3fc:	e3530009 	cmp	r3, #9
8000b400:	0afffff0 	beq	0x8000b3c8
8000b404:	e55b3005 	ldrb	r3, [fp, #-5]
8000b408:	e3530008 	cmp	r3, #8
8000b40c:	0affffed 	beq	0x8000b3c8
8000b410:	ea000014 	b	0x8000b468
8000b414:	e55b3005 	ldrb	r3, [fp, #-5]
8000b418:	e1a00003 	mov	r0, r3
8000b41c:	ebfffcd0 	bl	0x8000a764
8000b420:	e55b3005 	ldrb	r3, [fp, #-5]
8000b424:	e3530008 	cmp	r3, #8
8000b428:	1a000006 	bne	0x8000b448
8000b42c:	e51b301c 	ldr	r3, [fp, #-28]	; 0xffffffe4
8000b430:	e2433001 	sub	r3, r3, #1
8000b434:	e50b301c 	str	r3, [fp, #-28]	; 0xffffffe4
8000b438:	e51b300c 	ldr	r3, [fp, #-12]
8000b43c:	e2833001 	add	r3, r3, #1
8000b440:	e50b300c 	str	r3, [fp, #-12]
8000b444:	ea000004 	b	0x8000b45c
8000b448:	e51b301c 	ldr	r3, [fp, #-28]	; 0xffffffe4
8000b44c:	e2832001 	add	r2, r3, #1
8000b450:	e50b201c 	str	r2, [fp, #-28]	; 0xffffffe4
8000b454:	e55b2005 	ldrb	r2, [fp, #-5]
8000b458:	e5c32000 	strb	r2, [r3]
8000b45c:	ebfffccb 	bl	0x8000a790
8000b460:	e1a03000 	mov	r3, r0
8000b464:	e54b3005 	strb	r3, [fp, #-5]
8000b468:	e55b3005 	ldrb	r3, [fp, #-5]
8000b46c:	e353000a 	cmp	r3, #10
8000b470:	0a00000a 	beq	0x8000b4a0
8000b474:	e55b3005 	ldrb	r3, [fp, #-5]
8000b478:	e353000d 	cmp	r3, #13
8000b47c:	0a000007 	beq	0x8000b4a0
8000b480:	e55b3005 	ldrb	r3, [fp, #-5]
8000b484:	e3530020 	cmp	r3, #32
8000b488:	0a000004 	beq	0x8000b4a0
8000b48c:	e51b300c 	ldr	r3, [fp, #-12]
8000b490:	e2432001 	sub	r2, r3, #1
8000b494:	e50b200c 	str	r2, [fp, #-12]
8000b498:	e3530000 	cmp	r3, #0
8000b49c:	1affffdc 	bne	0x8000b414
8000b4a0:	e51b301c 	ldr	r3, [fp, #-28]	; 0xffffffe4
8000b4a4:	e3a02000 	mov	r2, #0
8000b4a8:	e5c32000 	strb	r2, [r3]
8000b4ac:	e55b3005 	ldrb	r3, [fp, #-5]
8000b4b0:	e353000a 	cmp	r3, #10
8000b4b4:	0a000002 	beq	0x8000b4c4
8000b4b8:	e55b3005 	ldrb	r3, [fp, #-5]
8000b4bc:	e353000d 	cmp	r3, #13
8000b4c0:	1a000004 	bne	0x8000b4d8
8000b4c4:	e3a0000d 	mov	r0, #13
8000b4c8:	ebfffca5 	bl	0x8000a764
8000b4cc:	e3a0000a 	mov	r0, #10
8000b4d0:	ebfffca3 	bl	0x8000a764
8000b4d4:	ea000002 	b	0x8000b4e4
8000b4d8:	e55b3005 	ldrb	r3, [fp, #-5]
8000b4dc:	e1a00003 	mov	r0, r3
8000b4e0:	ebfffc9f 	bl	0x8000a764
8000b4e4:	ea000068 	b	0x8000b68c
8000b4e8:	e51b307c 	ldr	r3, [fp, #-124]	; 0xffffff84
8000b4ec:	e2832004 	add	r2, r3, #4
8000b4f0:	e50b207c 	str	r2, [fp, #-124]	; 0xffffff84
8000b4f4:	e5933000 	ldr	r3, [r3]
8000b4f8:	e50b3024 	str	r3, [fp, #-36]	; 0xffffffdc
8000b4fc:	e51b3024 	ldr	r3, [fp, #-36]	; 0xffffffdc
8000b500:	e3a02000 	mov	r2, #0
8000b504:	e5832000 	str	r2, [r3]
8000b508:	e51b3018 	ldr	r3, [fp, #-24]	; 0xffffffe8
8000b50c:	e2833001 	add	r3, r3, #1
8000b510:	e50b3018 	str	r3, [fp, #-24]	; 0xffffffe8
8000b514:	ebfffc9d 	bl	0x8000a790
8000b518:	e1a03000 	mov	r3, r0
8000b51c:	e54b3005 	strb	r3, [fp, #-5]
8000b520:	ea000005 	b	0x8000b53c
8000b524:	e55b3005 	ldrb	r3, [fp, #-5]
8000b528:	e1a00003 	mov	r0, r3
8000b52c:	ebfffc8c 	bl	0x8000a764
8000b530:	ebfffc96 	bl	0x8000a790
8000b534:	e1a03000 	mov	r3, r0
8000b538:	e54b3005 	strb	r3, [fp, #-5]
8000b53c:	e55b3005 	ldrb	r3, [fp, #-5]
8000b540:	e353000d 	cmp	r3, #13
8000b544:	0afffff6 	beq	0x8000b524
8000b548:	e55b3005 	ldrb	r3, [fp, #-5]
8000b54c:	e3530020 	cmp	r3, #32
8000b550:	0afffff3 	beq	0x8000b524
8000b554:	e55b3005 	ldrb	r3, [fp, #-5]
8000b558:	e3530009 	cmp	r3, #9
8000b55c:	0afffff0 	beq	0x8000b524
8000b560:	e55b3005 	ldrb	r3, [fp, #-5]
8000b564:	e3530008 	cmp	r3, #8
8000b568:	0affffed 	beq	0x8000b524
8000b56c:	e55b2005 	ldrb	r2, [fp, #-5]
8000b570:	e24b3074 	sub	r3, fp, #116	; 0x74
8000b574:	e1a01002 	mov	r1, r2
8000b578:	e1a00003 	mov	r0, r3
8000b57c:	ebfffa60 	bl	0x80009f04
8000b580:	e24b2074 	sub	r2, fp, #116	; 0x74
8000b584:	e51b3010 	ldr	r3, [fp, #-16]
8000b588:	e0823003 	add	r3, r2, r3
8000b58c:	e5d33000 	ldrb	r3, [r3]
8000b590:	e54b3005 	strb	r3, [fp, #-5]
8000b594:	ea00001b 	b	0x8000b608
8000b598:	e55b3005 	ldrb	r3, [fp, #-5]
8000b59c:	e3a0100a 	mov	r1, #10
8000b5a0:	e1a00003 	mov	r0, r3
8000b5a4:	ebffd2de 	bl	0x80000124
8000b5a8:	e1a03000 	mov	r3, r0
8000b5ac:	e54b3005 	strb	r3, [fp, #-5]
8000b5b0:	e55b3005 	ldrb	r3, [fp, #-5]
8000b5b4:	e35300ff 	cmp	r3, #255	; 0xff
8000b5b8:	1a000002 	bne	0x8000b5c8
8000b5bc:	e3e03000 	mvn	r3, #0
8000b5c0:	e50b3018 	str	r3, [fp, #-24]	; 0xffffffe8
8000b5c4:	ea000018 	b	0x8000b62c
8000b5c8:	e51b3024 	ldr	r3, [fp, #-36]	; 0xffffffdc
8000b5cc:	e5933000 	ldr	r3, [r3]
8000b5d0:	e3a0200a 	mov	r2, #10
8000b5d4:	e0020392 	mul	r2, r2, r3
8000b5d8:	e55b3005 	ldrb	r3, [fp, #-5]
8000b5dc:	e0822003 	add	r2, r2, r3
8000b5e0:	e51b3024 	ldr	r3, [fp, #-36]	; 0xffffffdc
8000b5e4:	e5832000 	str	r2, [r3]
8000b5e8:	e51b3010 	ldr	r3, [fp, #-16]
8000b5ec:	e2833001 	add	r3, r3, #1
8000b5f0:	e50b3010 	str	r3, [fp, #-16]
8000b5f4:	e24b2074 	sub	r2, fp, #116	; 0x74
8000b5f8:	e51b3010 	ldr	r3, [fp, #-16]
8000b5fc:	e0823003 	add	r3, r2, r3
8000b600:	e5d33000 	ldrb	r3, [r3]
8000b604:	e54b3005 	strb	r3, [fp, #-5]
8000b608:	e55b3005 	ldrb	r3, [fp, #-5]
8000b60c:	e353000a 	cmp	r3, #10
8000b610:	0a000005 	beq	0x8000b62c
8000b614:	e55b3005 	ldrb	r3, [fp, #-5]
8000b618:	e353000d 	cmp	r3, #13
8000b61c:	0a000002 	beq	0x8000b62c
8000b620:	e55b3005 	ldrb	r3, [fp, #-5]
8000b624:	e3530020 	cmp	r3, #32
8000b628:	1affffda 	bne	0x8000b598
8000b62c:	e3a03000 	mov	r3, #0
8000b630:	e50b3010 	str	r3, [fp, #-16]
8000b634:	e55b3005 	ldrb	r3, [fp, #-5]
8000b638:	e353000a 	cmp	r3, #10
8000b63c:	0a000002 	beq	0x8000b64c
8000b640:	e55b3005 	ldrb	r3, [fp, #-5]
8000b644:	e353000d 	cmp	r3, #13
8000b648:	1a000004 	bne	0x8000b660
8000b64c:	e3a0000d 	mov	r0, #13
8000b650:	ebfffc43 	bl	0x8000a764
8000b654:	e3a0000a 	mov	r0, #10
8000b658:	ebfffc41 	bl	0x8000a764
8000b65c:	ea000002 	b	0x8000b66c
8000b660:	e55b3005 	ldrb	r3, [fp, #-5]
8000b664:	e1a00003 	mov	r0, r3
8000b668:	ebfffc3d 	bl	0x8000a764
8000b66c:	ea000006 	b	0x8000b68c
8000b670:	e3e01000 	mvn	r1, #0
8000b674:	e30e078c 	movw	r0, #59276	; 0xe78c
8000b678:	e3480000 	movt	r0, #32768	; 0x8000
8000b67c:	ebfffa50 	bl	0x80009fc4
8000b680:	e3e03000 	mvn	r3, #0
8000b684:	e50b3018 	str	r3, [fp, #-24]	; 0xffffffe8
8000b688:	e320f000 	nop	{0}
8000b68c:	e51b3078 	ldr	r3, [fp, #-120]	; 0xffffff88
8000b690:	e5d33000 	ldrb	r3, [r3]
8000b694:	e3530000 	cmp	r3, #0
8000b698:	1afffdf2 	bne	0x8000ae68
8000b69c:	e51b3018 	ldr	r3, [fp, #-24]	; 0xffffffe8
8000b6a0:	e3530000 	cmp	r3, #0
8000b6a4:	1a000005 	bne	0x8000b6c0
8000b6a8:	e3e01000 	mvn	r1, #0
8000b6ac:	e30e07b0 	movw	r0, #59312	; 0xe7b0
8000b6b0:	e3480000 	movt	r0, #32768	; 0x8000
8000b6b4:	ebfffa42 	bl	0x80009fc4
8000b6b8:	e3e03000 	mvn	r3, #0
8000b6bc:	e50b3018 	str	r3, [fp, #-24]	; 0xffffffe8
8000b6c0:	e51b3018 	ldr	r3, [fp, #-24]	; 0xffffffe8
8000b6c4:	e1a00003 	mov	r0, r3
8000b6c8:	e24bd004 	sub	sp, fp, #4
8000b6cc:	e8bd8800 	pop	{fp, pc}
8000b6d0:	e92d4830 	push	{r4, r5, fp, lr}
8000b6d4:	e28db00c 	add	fp, sp, #12
8000b6d8:	e24dd038 	sub	sp, sp, #56	; 0x38
8000b6dc:	e50b0040 	str	r0, [fp, #-64]	; 0xffffffc0
8000b6e0:	e50b1044 	str	r1, [fp, #-68]	; 0xffffffbc
8000b6e4:	ea000170 	b	0x8000bcac
8000b6e8:	e3a03000 	mov	r3, #0
8000b6ec:	e50b3010 	str	r3, [fp, #-16]
8000b6f0:	ea000002 	b	0x8000b700
8000b6f4:	e51b3010 	ldr	r3, [fp, #-16]
8000b6f8:	e2833001 	add	r3, r3, #1
8000b6fc:	e50b3010 	str	r3, [fp, #-16]
8000b700:	e51b2040 	ldr	r2, [fp, #-64]	; 0xffffffc0
8000b704:	e51b3010 	ldr	r3, [fp, #-16]
8000b708:	e0823003 	add	r3, r2, r3
8000b70c:	e5d33000 	ldrb	r3, [r3]
8000b710:	e3530025 	cmp	r3, #37	; 0x25
8000b714:	0a000005 	beq	0x8000b730
8000b718:	e51b2040 	ldr	r2, [fp, #-64]	; 0xffffffc0
8000b71c:	e51b3010 	ldr	r3, [fp, #-16]
8000b720:	e0823003 	add	r3, r2, r3
8000b724:	e5d33000 	ldrb	r3, [r3]
8000b728:	e3530000 	cmp	r3, #0
8000b72c:	1afffff0 	bne	0x8000b6f4
8000b730:	e51b1010 	ldr	r1, [fp, #-16]
8000b734:	e51b0040 	ldr	r0, [fp, #-64]	; 0xffffffc0
8000b738:	ebfffc1a 	bl	0x8000a7a8
8000b73c:	e51b2040 	ldr	r2, [fp, #-64]	; 0xffffffc0
8000b740:	e51b3010 	ldr	r3, [fp, #-16]
8000b744:	e0823003 	add	r3, r2, r3
8000b748:	e50b3040 	str	r3, [fp, #-64]	; 0xffffffc0
8000b74c:	e51b3040 	ldr	r3, [fp, #-64]	; 0xffffffc0
8000b750:	e5d33000 	ldrb	r3, [r3]
8000b754:	e3530025 	cmp	r3, #37	; 0x25
8000b758:	1a000153 	bne	0x8000bcac
8000b75c:	e51b3040 	ldr	r3, [fp, #-64]	; 0xffffffc0
8000b760:	e2833001 	add	r3, r3, #1
8000b764:	e50b3040 	str	r3, [fp, #-64]	; 0xffffffc0
8000b768:	e3a03000 	mov	r3, #0
8000b76c:	e50b3018 	str	r3, [fp, #-24]	; 0xffffffe8
8000b770:	e3a03020 	mov	r3, #32
8000b774:	e54b3021 	strb	r3, [fp, #-33]	; 0xffffffdf
8000b778:	e51b3040 	ldr	r3, [fp, #-64]	; 0xffffffc0
8000b77c:	e2832001 	add	r2, r3, #1
8000b780:	e50b2040 	str	r2, [fp, #-64]	; 0xffffffc0
8000b784:	e5d33000 	ldrb	r3, [r3]
8000b788:	e2433025 	sub	r3, r3, #37	; 0x25
8000b78c:	e3530053 	cmp	r3, #83	; 0x53
8000b790:	979ff103 	ldrls	pc, [pc, r3, lsl #2]
8000b794:	ea00013f 	b	0x8000bc98
8000b798:	8000bc80 	andhi	fp, r0, r0, lsl #25
8000b79c:	8000bc98 	mulhi	r0, r8, ip
8000b7a0:	8000bc98 	mulhi	r0, r8, ip
8000b7a4:	8000bc98 	mulhi	r0, r8, ip
8000b7a8:	8000bc98 	mulhi	r0, r8, ip
8000b7ac:	8000bc98 	mulhi	r0, r8, ip
8000b7b0:	8000bc98 	mulhi	r0, r8, ip
8000b7b4:	8000bc98 	mulhi	r0, r8, ip
8000b7b8:	8000bc98 	mulhi	r0, r8, ip
8000b7bc:	8000bc98 	mulhi	r0, r8, ip
8000b7c0:	8000bc98 	mulhi	r0, r8, ip
8000b7c4:	8000b8e8 	andhi	fp, r0, r8, ror #17
8000b7c8:	8000b8e8 	andhi	fp, r0, r8, ror #17
8000b7cc:	8000b8e8 	andhi	fp, r0, r8, ror #17
8000b7d0:	8000b8e8 	andhi	fp, r0, r8, ror #17
8000b7d4:	8000b8e8 	andhi	fp, r0, r8, ror #17
8000b7d8:	8000b8e8 	andhi	fp, r0, r8, ror #17
8000b7dc:	8000b8e8 	andhi	fp, r0, r8, ror #17
8000b7e0:	8000b8e8 	andhi	fp, r0, r8, ror #17
8000b7e4:	8000b8e8 	andhi	fp, r0, r8, ror #17
8000b7e8:	8000b8e8 	andhi	fp, r0, r8, ror #17
8000b7ec:	8000bc98 	mulhi	r0, r8, ip
8000b7f0:	8000bc98 	mulhi	r0, r8, ip
8000b7f4:	8000bc98 	mulhi	r0, r8, ip
8000b7f8:	8000bc98 	mulhi	r0, r8, ip
8000b7fc:	8000bc98 	mulhi	r0, r8, ip
8000b800:	8000bc98 	mulhi	r0, r8, ip
8000b804:	8000bc98 	mulhi	r0, r8, ip
8000b808:	8000bc98 	mulhi	r0, r8, ip
8000b80c:	8000bc98 	mulhi	r0, r8, ip
8000b810:	8000bc98 	mulhi	r0, r8, ip
8000b814:	8000bc98 	mulhi	r0, r8, ip
8000b818:	8000bc98 	mulhi	r0, r8, ip
8000b81c:	8000bc98 	mulhi	r0, r8, ip
8000b820:	8000bc98 	mulhi	r0, r8, ip
8000b824:	8000bc98 	mulhi	r0, r8, ip
8000b828:	8000bc98 	mulhi	r0, r8, ip
8000b82c:	8000bc98 	mulhi	r0, r8, ip
8000b830:	8000bc98 	mulhi	r0, r8, ip
8000b834:	8000bc98 	mulhi	r0, r8, ip
8000b838:	8000bc98 	mulhi	r0, r8, ip
8000b83c:	8000bc98 	mulhi	r0, r8, ip
8000b840:	8000bc98 	mulhi	r0, r8, ip
8000b844:	8000bc98 	mulhi	r0, r8, ip
8000b848:	8000bc98 	mulhi	r0, r8, ip
8000b84c:	8000bc98 	mulhi	r0, r8, ip
8000b850:	8000bc98 	mulhi	r0, r8, ip
8000b854:	8000bc98 	mulhi	r0, r8, ip
8000b858:	8000bc98 	mulhi	r0, r8, ip
8000b85c:	8000bc98 	mulhi	r0, r8, ip
8000b860:	8000bc98 	mulhi	r0, r8, ip
8000b864:	8000ba8c 	andhi	fp, r0, ip, lsl #21
8000b868:	8000bc98 	mulhi	r0, r8, ip
8000b86c:	8000bc98 	mulhi	r0, r8, ip
8000b870:	8000bc98 	mulhi	r0, r8, ip
8000b874:	8000bc98 	mulhi	r0, r8, ip
8000b878:	8000bc98 	mulhi	r0, r8, ip
8000b87c:	8000bc98 	mulhi	r0, r8, ip
8000b880:	8000bc98 	mulhi	r0, r8, ip
8000b884:	8000bc98 	mulhi	r0, r8, ip
8000b888:	8000bc98 	mulhi	r0, r8, ip
8000b88c:	8000bc98 	mulhi	r0, r8, ip
8000b890:	8000b944 	andhi	fp, r0, r4, asr #18
8000b894:	8000b96c 	andhi	fp, r0, ip, ror #18
8000b898:	8000bc98 	mulhi	r0, r8, ip
8000b89c:	8000bc98 	mulhi	r0, r8, ip
8000b8a0:	8000bc98 	mulhi	r0, r8, ip
8000b8a4:	8000bc98 	mulhi	r0, r8, ip
8000b8a8:	8000bc98 	mulhi	r0, r8, ip
8000b8ac:	8000bc98 	mulhi	r0, r8, ip
8000b8b0:	8000bc98 	mulhi	r0, r8, ip
8000b8b4:	8000bc98 	mulhi	r0, r8, ip
8000b8b8:	8000bc98 	mulhi	r0, r8, ip
8000b8bc:	8000bc98 	mulhi	r0, r8, ip
8000b8c0:	8000bc98 	mulhi	r0, r8, ip
8000b8c4:	8000ba8c 	andhi	fp, r0, ip, lsl #21
8000b8c8:	8000bc98 	mulhi	r0, r8, ip
8000b8cc:	8000bc98 	mulhi	r0, r8, ip
8000b8d0:	8000b9c0 	andhi	fp, r0, r0, asr #19
8000b8d4:	8000bc98 	mulhi	r0, r8, ip
8000b8d8:	8000ba5c 	andhi	fp, r0, ip, asr sl
8000b8dc:	8000bc98 	mulhi	r0, r8, ip
8000b8e0:	8000bc98 	mulhi	r0, r8, ip
8000b8e4:	8000ba8c 	andhi	fp, r0, ip, lsl #21
8000b8e8:	e51b3040 	ldr	r3, [fp, #-64]	; 0xffffffc0
8000b8ec:	e2433001 	sub	r3, r3, #1
8000b8f0:	e5d33000 	ldrb	r3, [r3]
8000b8f4:	e3530030 	cmp	r3, #48	; 0x30
8000b8f8:	1a000004 	bne	0x8000b910
8000b8fc:	e51b3018 	ldr	r3, [fp, #-24]	; 0xffffffe8
8000b900:	e3530000 	cmp	r3, #0
8000b904:	1a000001 	bne	0x8000b910
8000b908:	e3a03030 	mov	r3, #48	; 0x30
8000b90c:	e54b3021 	strb	r3, [fp, #-33]	; 0xffffffdf
8000b910:	e51b3018 	ldr	r3, [fp, #-24]	; 0xffffffe8
8000b914:	e3a0200a 	mov	r2, #10
8000b918:	e0030392 	mul	r3, r2, r3
8000b91c:	e50b3018 	str	r3, [fp, #-24]	; 0xffffffe8
8000b920:	e51b3040 	ldr	r3, [fp, #-64]	; 0xffffffc0
8000b924:	e2433001 	sub	r3, r3, #1
8000b928:	e5d33000 	ldrb	r3, [r3]
8000b92c:	e1a02003 	mov	r2, r3
8000b930:	e51b3018 	ldr	r3, [fp, #-24]	; 0xffffffe8
8000b934:	e0823003 	add	r3, r2, r3
8000b938:	e2433030 	sub	r3, r3, #48	; 0x30
8000b93c:	e50b3018 	str	r3, [fp, #-24]	; 0xffffffe8
8000b940:	eaffff8c 	b	0x8000b778
8000b944:	e51b3044 	ldr	r3, [fp, #-68]	; 0xffffffbc
8000b948:	e2832004 	add	r2, r3, #4
8000b94c:	e50b2044 	str	r2, [fp, #-68]	; 0xffffffbc
8000b950:	e5933000 	ldr	r3, [r3]
8000b954:	e50b303c 	str	r3, [fp, #-60]	; 0xffffffc4
8000b958:	e24b303c 	sub	r3, fp, #60	; 0x3c
8000b95c:	e3a01001 	mov	r1, #1
8000b960:	e1a00003 	mov	r0, r3
8000b964:	ebfffb8f 	bl	0x8000a7a8
8000b968:	ea0000cf 	b	0x8000bcac
8000b96c:	e51b3044 	ldr	r3, [fp, #-68]	; 0xffffffbc
8000b970:	e2832004 	add	r2, r3, #4
8000b974:	e50b2044 	str	r2, [fp, #-68]	; 0xffffffbc
8000b978:	e5933000 	ldr	r3, [r3]
8000b97c:	e50b303c 	str	r3, [fp, #-60]	; 0xffffffc4
8000b980:	e3a03000 	mov	r3, #0
8000b984:	e50b3014 	str	r3, [fp, #-20]	; 0xffffffec
8000b988:	e51b303c 	ldr	r3, [fp, #-60]	; 0xffffffc4
8000b98c:	e3530000 	cmp	r3, #0
8000b990:	aa000005 	bge	0x8000b9ac
8000b994:	e51b303c 	ldr	r3, [fp, #-60]	; 0xffffffc4
8000b998:	e2633000 	rsb	r3, r3, #0
8000b99c:	e50b303c 	str	r3, [fp, #-60]	; 0xffffffc4
8000b9a0:	e3a03001 	mov	r3, #1
8000b9a4:	e50b3020 	str	r3, [fp, #-32]	; 0xffffffe0
8000b9a8:	ea000001 	b	0x8000b9b4
8000b9ac:	e3a03000 	mov	r3, #0
8000b9b0:	e50b3020 	str	r3, [fp, #-32]	; 0xffffffe0
8000b9b4:	e3a0300a 	mov	r3, #10
8000b9b8:	e50b301c 	str	r3, [fp, #-28]	; 0xffffffe4
8000b9bc:	ea00003d 	b	0x8000bab8
8000b9c0:	e51b3044 	ldr	r3, [fp, #-68]	; 0xffffffbc
8000b9c4:	e2832004 	add	r2, r3, #4
8000b9c8:	e50b2044 	str	r2, [fp, #-68]	; 0xffffffbc
8000b9cc:	e5933000 	ldr	r3, [r3]
8000b9d0:	e50b3028 	str	r3, [fp, #-40]	; 0xffffffd8
8000b9d4:	e3a03000 	mov	r3, #0
8000b9d8:	e50b3010 	str	r3, [fp, #-16]
8000b9dc:	ea000002 	b	0x8000b9ec
8000b9e0:	e51b3010 	ldr	r3, [fp, #-16]
8000b9e4:	e2833001 	add	r3, r3, #1
8000b9e8:	e50b3010 	str	r3, [fp, #-16]
8000b9ec:	e51b2028 	ldr	r2, [fp, #-40]	; 0xffffffd8
8000b9f0:	e51b3010 	ldr	r3, [fp, #-16]
8000b9f4:	e0823003 	add	r3, r2, r3
8000b9f8:	e5d33000 	ldrb	r3, [r3]
8000b9fc:	e3530000 	cmp	r3, #0
8000ba00:	1afffff6 	bne	0x8000b9e0
8000ba04:	e51b1010 	ldr	r1, [fp, #-16]
8000ba08:	e51b0028 	ldr	r0, [fp, #-40]	; 0xffffffd8
8000ba0c:	ebfffb65 	bl	0x8000a7a8
8000ba10:	e51b2018 	ldr	r2, [fp, #-24]	; 0xffffffe8
8000ba14:	e51b3010 	ldr	r3, [fp, #-16]
8000ba18:	e1520003 	cmp	r2, r3
8000ba1c:	9a0000a2 	bls	0x8000bcac
8000ba20:	e51b2018 	ldr	r2, [fp, #-24]	; 0xffffffe8
8000ba24:	e51b3010 	ldr	r3, [fp, #-16]
8000ba28:	e0423003 	sub	r3, r2, r3
8000ba2c:	e50b3018 	str	r3, [fp, #-24]	; 0xffffffe8
8000ba30:	ea000003 	b	0x8000ba44
8000ba34:	e3a01001 	mov	r1, #1
8000ba38:	e30e0780 	movw	r0, #59264	; 0xe780
8000ba3c:	e3480000 	movt	r0, #32768	; 0x8000
8000ba40:	ebfffb58 	bl	0x8000a7a8
8000ba44:	e51b3018 	ldr	r3, [fp, #-24]	; 0xffffffe8
8000ba48:	e2432001 	sub	r2, r3, #1
8000ba4c:	e50b2018 	str	r2, [fp, #-24]	; 0xffffffe8
8000ba50:	e3530000 	cmp	r3, #0
8000ba54:	1afffff6 	bne	0x8000ba34
8000ba58:	ea000093 	b	0x8000bcac
8000ba5c:	e51b3044 	ldr	r3, [fp, #-68]	; 0xffffffbc
8000ba60:	e2832004 	add	r2, r3, #4
8000ba64:	e50b2044 	str	r2, [fp, #-68]	; 0xffffffbc
8000ba68:	e5933000 	ldr	r3, [r3]
8000ba6c:	e50b303c 	str	r3, [fp, #-60]	; 0xffffffc4
8000ba70:	e3a03000 	mov	r3, #0
8000ba74:	e50b3014 	str	r3, [fp, #-20]	; 0xffffffec
8000ba78:	e3a0300a 	mov	r3, #10
8000ba7c:	e50b301c 	str	r3, [fp, #-28]	; 0xffffffe4
8000ba80:	e3a03000 	mov	r3, #0
8000ba84:	e50b3020 	str	r3, [fp, #-32]	; 0xffffffe0
8000ba88:	ea00000a 	b	0x8000bab8
8000ba8c:	e51b3044 	ldr	r3, [fp, #-68]	; 0xffffffbc
8000ba90:	e2832004 	add	r2, r3, #4
8000ba94:	e50b2044 	str	r2, [fp, #-68]	; 0xffffffbc
8000ba98:	e5933000 	ldr	r3, [r3]
8000ba9c:	e50b303c 	str	r3, [fp, #-60]	; 0xffffffc4
8000baa0:	e3a03000 	mov	r3, #0
8000baa4:	e50b3014 	str	r3, [fp, #-20]	; 0xffffffec
8000baa8:	e3a03010 	mov	r3, #16
8000baac:	e50b301c 	str	r3, [fp, #-28]	; 0xffffffe4
8000bab0:	e3a03000 	mov	r3, #0
8000bab4:	e50b3020 	str	r3, [fp, #-32]	; 0xffffffe0
8000bab8:	e3a03001 	mov	r3, #1
8000babc:	e50b3010 	str	r3, [fp, #-16]
8000bac0:	ea000006 	b	0x8000bae0
8000bac4:	e51b3010 	ldr	r3, [fp, #-16]
8000bac8:	e51b201c 	ldr	r2, [fp, #-28]	; 0xffffffe4
8000bacc:	e0030392 	mul	r3, r2, r3
8000bad0:	e50b3010 	str	r3, [fp, #-16]
8000bad4:	e51b3018 	ldr	r3, [fp, #-24]	; 0xffffffe8
8000bad8:	e2433001 	sub	r3, r3, #1
8000badc:	e50b3018 	str	r3, [fp, #-24]	; 0xffffffe8
8000bae0:	e51b3010 	ldr	r3, [fp, #-16]
8000bae4:	e51b201c 	ldr	r2, [fp, #-28]	; 0xffffffe4
8000bae8:	e0030392 	mul	r3, r2, r3
8000baec:	e51b203c 	ldr	r2, [fp, #-60]	; 0xffffffc4
8000baf0:	e1530002 	cmp	r3, r2
8000baf4:	8a00000a 	bhi	0x8000bb24
8000baf8:	e51b3010 	ldr	r3, [fp, #-16]
8000bafc:	e51b201c 	ldr	r2, [fp, #-28]	; 0xffffffe4
8000bb00:	e0030392 	mul	r3, r2, r3
8000bb04:	e51b101c 	ldr	r1, [fp, #-28]	; 0xffffffe4
8000bb08:	e1a00003 	mov	r0, r3
8000bb0c:	eb00006d 	bl	0x8000bcc8
8000bb10:	e1a03000 	mov	r3, r0
8000bb14:	e1a02003 	mov	r2, r3
8000bb18:	e51b3010 	ldr	r3, [fp, #-16]
8000bb1c:	e1520003 	cmp	r2, r3
8000bb20:	0affffe7 	beq	0x8000bac4
8000bb24:	e51b3020 	ldr	r3, [fp, #-32]	; 0xffffffe0
8000bb28:	e3530000 	cmp	r3, #0
8000bb2c:	0a000002 	beq	0x8000bb3c
8000bb30:	e51b3018 	ldr	r3, [fp, #-24]	; 0xffffffe8
8000bb34:	e2433001 	sub	r3, r3, #1
8000bb38:	e50b3018 	str	r3, [fp, #-24]	; 0xffffffe8
8000bb3c:	e51b3020 	ldr	r3, [fp, #-32]	; 0xffffffe0
8000bb40:	e3530000 	cmp	r3, #0
8000bb44:	0a00000b 	beq	0x8000bb78
8000bb48:	e55b3021 	ldrb	r3, [fp, #-33]	; 0xffffffdf
8000bb4c:	e3530030 	cmp	r3, #48	; 0x30
8000bb50:	1a000008 	bne	0x8000bb78
8000bb54:	e51b3014 	ldr	r3, [fp, #-20]	; 0xffffffec
8000bb58:	e2832001 	add	r2, r3, #1
8000bb5c:	e50b2014 	str	r2, [fp, #-20]	; 0xffffffec
8000bb60:	e24b200c 	sub	r2, fp, #12
8000bb64:	e0823003 	add	r3, r2, r3
8000bb68:	e3a0202d 	mov	r2, #45	; 0x2d
8000bb6c:	e543202c 	strb	r2, [r3, #-44]	; 0xffffffd4
8000bb70:	e3a03000 	mov	r3, #0
8000bb74:	e50b3020 	str	r3, [fp, #-32]	; 0xffffffe0
8000bb78:	e51b3018 	ldr	r3, [fp, #-24]	; 0xffffffe8
8000bb7c:	e3530001 	cmp	r3, #1
8000bb80:	9a000013 	bls	0x8000bbd4
8000bb84:	e51b3018 	ldr	r3, [fp, #-24]	; 0xffffffe8
8000bb88:	e353000f 	cmp	r3, #15
8000bb8c:	8a000010 	bhi	0x8000bbd4
8000bb90:	e51b3018 	ldr	r3, [fp, #-24]	; 0xffffffe8
8000bb94:	e2433001 	sub	r3, r3, #1
8000bb98:	e50b3018 	str	r3, [fp, #-24]	; 0xffffffe8
8000bb9c:	ea000009 	b	0x8000bbc8
8000bba0:	e51b3014 	ldr	r3, [fp, #-20]	; 0xffffffec
8000bba4:	e2832001 	add	r2, r3, #1
8000bba8:	e50b2014 	str	r2, [fp, #-20]	; 0xffffffec
8000bbac:	e24b200c 	sub	r2, fp, #12
8000bbb0:	e0823003 	add	r3, r2, r3
8000bbb4:	e55b2021 	ldrb	r2, [fp, #-33]	; 0xffffffdf
8000bbb8:	e543202c 	strb	r2, [r3, #-44]	; 0xffffffd4
8000bbbc:	e51b3018 	ldr	r3, [fp, #-24]	; 0xffffffe8
8000bbc0:	e2433001 	sub	r3, r3, #1
8000bbc4:	e50b3018 	str	r3, [fp, #-24]	; 0xffffffe8
8000bbc8:	e51b3018 	ldr	r3, [fp, #-24]	; 0xffffffe8
8000bbcc:	e3530000 	cmp	r3, #0
8000bbd0:	1afffff2 	bne	0x8000bba0
8000bbd4:	e51b3020 	ldr	r3, [fp, #-32]	; 0xffffffe0
8000bbd8:	e3530000 	cmp	r3, #0
8000bbdc:	0a00001f 	beq	0x8000bc60
8000bbe0:	e51b3014 	ldr	r3, [fp, #-20]	; 0xffffffec
8000bbe4:	e2832001 	add	r2, r3, #1
8000bbe8:	e50b2014 	str	r2, [fp, #-20]	; 0xffffffec
8000bbec:	e24b200c 	sub	r2, fp, #12
8000bbf0:	e0823003 	add	r3, r2, r3
8000bbf4:	e3a0202d 	mov	r2, #45	; 0x2d
8000bbf8:	e543202c 	strb	r2, [r3, #-44]	; 0xffffffd4
8000bbfc:	ea000017 	b	0x8000bc60
8000bc00:	e51b5014 	ldr	r5, [fp, #-20]	; 0xffffffec
8000bc04:	e2853001 	add	r3, r5, #1
8000bc08:	e50b3014 	str	r3, [fp, #-20]	; 0xffffffec
8000bc0c:	e30e4768 	movw	r4, #59240	; 0xe768
8000bc10:	e3484000 	movt	r4, #32768	; 0x8000
8000bc14:	e51b303c 	ldr	r3, [fp, #-60]	; 0xffffffc4
8000bc18:	e51b1010 	ldr	r1, [fp, #-16]
8000bc1c:	e1a00003 	mov	r0, r3
8000bc20:	eb000028 	bl	0x8000bcc8
8000bc24:	e1a03000 	mov	r3, r0
8000bc28:	e51b101c 	ldr	r1, [fp, #-28]	; 0xffffffe4
8000bc2c:	e1a00003 	mov	r0, r3
8000bc30:	eb000061 	bl	0x8000bdbc
8000bc34:	e1a03001 	mov	r3, r1
8000bc38:	e0843003 	add	r3, r4, r3
8000bc3c:	e5d32000 	ldrb	r2, [r3]
8000bc40:	e24b300c 	sub	r3, fp, #12
8000bc44:	e0833005 	add	r3, r3, r5
8000bc48:	e543202c 	strb	r2, [r3, #-44]	; 0xffffffd4
8000bc4c:	e51b101c 	ldr	r1, [fp, #-28]	; 0xffffffe4
8000bc50:	e51b0010 	ldr	r0, [fp, #-16]
8000bc54:	eb00001b 	bl	0x8000bcc8
8000bc58:	e1a03000 	mov	r3, r0
8000bc5c:	e50b3010 	str	r3, [fp, #-16]
8000bc60:	e51b3010 	ldr	r3, [fp, #-16]
8000bc64:	e3530000 	cmp	r3, #0
8000bc68:	1affffe4 	bne	0x8000bc00
8000bc6c:	e24b3038 	sub	r3, fp, #56	; 0x38
8000bc70:	e51b1014 	ldr	r1, [fp, #-20]	; 0xffffffec
8000bc74:	e1a00003 	mov	r0, r3
8000bc78:	ebfffaca 	bl	0x8000a7a8
8000bc7c:	ea00000a 	b	0x8000bcac
8000bc80:	e51b3040 	ldr	r3, [fp, #-64]	; 0xffffffc0
8000bc84:	e2433001 	sub	r3, r3, #1
8000bc88:	e3a01001 	mov	r1, #1
8000bc8c:	e1a00003 	mov	r0, r3
8000bc90:	ebfffac4 	bl	0x8000a7a8
8000bc94:	ea000004 	b	0x8000bcac
8000bc98:	e3a01005 	mov	r1, #5
8000bc9c:	e30e0784 	movw	r0, #59268	; 0xe784
8000bca0:	e3480000 	movt	r0, #32768	; 0x8000
8000bca4:	ebfffabf 	bl	0x8000a7a8
8000bca8:	e320f000 	nop	{0}
8000bcac:	e51b3040 	ldr	r3, [fp, #-64]	; 0xffffffc0
8000bcb0:	e5d33000 	ldrb	r3, [r3]
8000bcb4:	e3530000 	cmp	r3, #0
8000bcb8:	1afffe8a 	bne	0x8000b6e8
8000bcbc:	e320f000 	nop	{0}
8000bcc0:	e24bd00c 	sub	sp, fp, #12
8000bcc4:	e8bd8830 	pop	{r4, r5, fp, pc}
8000bcc8:	e2512001 	subs	r2, r1, #1
8000bccc:	012fff1e 	bxeq	lr
8000bcd0:	3a000036 	bcc	0x8000bdb0
8000bcd4:	e1500001 	cmp	r0, r1
8000bcd8:	9a000022 	bls	0x8000bd68
8000bcdc:	e1110002 	tst	r1, r2
8000bce0:	0a000023 	beq	0x8000bd74
8000bce4:	e311020e 	tst	r1, #-536870912	; 0xe0000000
8000bce8:	01a01181 	lsleq	r1, r1, #3
8000bcec:	03a03008 	moveq	r3, #8
8000bcf0:	13a03001 	movne	r3, #1
8000bcf4:	e3510201 	cmp	r1, #268435456	; 0x10000000
8000bcf8:	31510000 	cmpcc	r1, r0
8000bcfc:	31a01201 	lslcc	r1, r1, #4
8000bd00:	31a03203 	lslcc	r3, r3, #4
8000bd04:	3afffffa 	bcc	0x8000bcf4
8000bd08:	e3510102 	cmp	r1, #-2147483648	; 0x80000000
8000bd0c:	31510000 	cmpcc	r1, r0
8000bd10:	31a01081 	lslcc	r1, r1, #1
8000bd14:	31a03083 	lslcc	r3, r3, #1
8000bd18:	3afffffa 	bcc	0x8000bd08
8000bd1c:	e3a02000 	mov	r2, #0
8000bd20:	e1500001 	cmp	r0, r1
8000bd24:	20400001 	subcs	r0, r0, r1
8000bd28:	21822003 	orrcs	r2, r2, r3
8000bd2c:	e15000a1 	cmp	r0, r1, lsr #1
8000bd30:	204000a1 	subcs	r0, r0, r1, lsr #1
8000bd34:	218220a3 	orrcs	r2, r2, r3, lsr #1
8000bd38:	e1500121 	cmp	r0, r1, lsr #2
8000bd3c:	20400121 	subcs	r0, r0, r1, lsr #2
8000bd40:	21822123 	orrcs	r2, r2, r3, lsr #2
8000bd44:	e15001a1 	cmp	r0, r1, lsr #3
8000bd48:	204001a1 	subcs	r0, r0, r1, lsr #3
8000bd4c:	218221a3 	orrcs	r2, r2, r3, lsr #3
8000bd50:	e3500000 	cmp	r0, #0
8000bd54:	11b03223 	lsrsne	r3, r3, #4
8000bd58:	11a01221 	lsrne	r1, r1, #4
8000bd5c:	1affffef 	bne	0x8000bd20
8000bd60:	e1a00002 	mov	r0, r2
8000bd64:	e12fff1e 	bx	lr
8000bd68:	03a00001 	moveq	r0, #1
8000bd6c:	13a00000 	movne	r0, #0
8000bd70:	e12fff1e 	bx	lr
8000bd74:	e3510801 	cmp	r1, #65536	; 0x10000
8000bd78:	21a01821 	lsrcs	r1, r1, #16
8000bd7c:	23a02010 	movcs	r2, #16
8000bd80:	33a02000 	movcc	r2, #0
8000bd84:	e3510c01 	cmp	r1, #256	; 0x100
8000bd88:	21a01421 	lsrcs	r1, r1, #8
8000bd8c:	22822008 	addcs	r2, r2, #8
8000bd90:	e3510010 	cmp	r1, #16
8000bd94:	21a01221 	lsrcs	r1, r1, #4
8000bd98:	22822004 	addcs	r2, r2, #4
8000bd9c:	e3510004 	cmp	r1, #4
8000bda0:	82822003 	addhi	r2, r2, #3
8000bda4:	908220a1 	addls	r2, r2, r1, lsr #1
8000bda8:	e1a00230 	lsr	r0, r0, r2
8000bdac:	e12fff1e 	bx	lr
8000bdb0:	e3500000 	cmp	r0, #0
8000bdb4:	13e00000 	mvnne	r0, #0
8000bdb8:	ea000007 	b	0x8000bddc
8000bdbc:	e3510000 	cmp	r1, #0
8000bdc0:	0afffffa 	beq	0x8000bdb0
8000bdc4:	e92d4003 	push	{r0, r1, lr}
8000bdc8:	ebffffbe 	bl	0x8000bcc8
8000bdcc:	e8bd4006 	pop	{r1, r2, lr}
8000bdd0:	e0030092 	mul	r3, r2, r0
8000bdd4:	e0411003 	sub	r1, r1, r3
8000bdd8:	e12fff1e 	bx	lr
8000bddc:	e12fff1e 	bx	lr
8000bde0:	e3530000 	cmp	r3, #0
8000bde4:	03520000 	cmpeq	r2, #0
8000bde8:	1a000004 	bne	0x8000be00
8000bdec:	e3510000 	cmp	r1, #0
8000bdf0:	03500000 	cmpeq	r0, #0
8000bdf4:	13e01000 	mvnne	r1, #0
8000bdf8:	13e00000 	mvnne	r0, #0
8000bdfc:	eafffff6 	b	0x8000bddc
8000be00:	e24dd008 	sub	sp, sp, #8
8000be04:	e92d6000 	push	{sp, lr}
8000be08:	eb000003 	bl	0x8000be1c
8000be0c:	e59de004 	ldr	lr, [sp, #4]
8000be10:	e28dd008 	add	sp, sp, #8
8000be14:	e8bd000c 	pop	{r2, r3}
8000be18:	e12fff1e 	bx	lr
8000be1c:	e92d4ff0 	push	{r4, r5, r6, r7, r8, r9, sl, fp, lr}
8000be20:	e1a04000 	mov	r4, r0
8000be24:	e1a05001 	mov	r5, r1
8000be28:	e1510003 	cmp	r1, r3
8000be2c:	e24dd00c 	sub	sp, sp, #12
8000be30:	01500002 	cmpeq	r0, r2
8000be34:	e88d0030 	stm	sp, {r4, r5}
8000be38:	e59da030 	ldr	sl, [sp, #48]	; 0x30
8000be3c:	33a08000 	movcc	r8, #0
8000be40:	33a09000 	movcc	r9, #0
8000be44:	3a000047 	bcc	0x8000bf68
8000be48:	e1a00002 	mov	r0, r2
8000be4c:	e1a01003 	mov	r1, r3
8000be50:	e1a08002 	mov	r8, r2
8000be54:	e1a09003 	mov	r9, r3
8000be58:	eb00004a 	bl	0x8000bf88
8000be5c:	e1a01005 	mov	r1, r5
8000be60:	e1a0b000 	mov	fp, r0
8000be64:	e1a00004 	mov	r0, r4
8000be68:	eb000046 	bl	0x8000bf88
8000be6c:	e04bb000 	sub	fp, fp, r0
8000be70:	e1a07b19 	lsl	r7, r9, fp
8000be74:	e24b2020 	sub	r2, fp, #32
8000be78:	e1877218 	orr	r7, r7, r8, lsl r2
8000be7c:	e26bc020 	rsb	ip, fp, #32
8000be80:	e1877c38 	orr	r7, r7, r8, lsr ip
8000be84:	e1550007 	cmp	r5, r7
8000be88:	e1a06b18 	lsl	r6, r8, fp
8000be8c:	01540006 	cmpeq	r4, r6
8000be90:	33a08000 	movcc	r8, #0
8000be94:	33a09000 	movcc	r9, #0
8000be98:	3a000006 	bcc	0x8000beb8
8000be9c:	e3a0e001 	mov	lr, #1
8000bea0:	e0544006 	subs	r4, r4, r6
8000bea4:	e0c55007 	sbc	r5, r5, r7
8000bea8:	e88d0030 	stm	sp, {r4, r5}
8000beac:	e1a0921e 	lsl	r9, lr, r2
8000beb0:	e1899c3e 	orr	r9, r9, lr, lsr ip
8000beb4:	e1a08b1e 	lsl	r8, lr, fp
8000beb8:	e35b0000 	cmp	fp, #0
8000bebc:	0a000029 	beq	0x8000bf68
8000bec0:	e1b070a7 	lsrs	r7, r7, #1
8000bec4:	e1a06066 	rrx	r6, r6
8000bec8:	e1a0e00b 	mov	lr, fp
8000becc:	ea000009 	b	0x8000bef8
8000bed0:	e0533006 	subs	r3, r3, r6
8000bed4:	e0c44007 	sbc	r4, r4, r7
8000bed8:	e1a01004 	mov	r1, r4
8000bedc:	e0934003 	adds	r4, r3, r3
8000bee0:	e0a15001 	adc	r5, r1, r1
8000bee4:	e2940001 	adds	r0, r4, #1
8000bee8:	e2a51000 	adc	r1, r5, #0
8000beec:	e25ee001 	subs	lr, lr, #1
8000bef0:	e88d0003 	stm	sp, {r0, r1}
8000bef4:	0a000009 	beq	0x8000bf20
8000bef8:	e89d0018 	ldm	sp, {r3, r4}
8000befc:	e1540007 	cmp	r4, r7
8000bf00:	01530006 	cmpeq	r3, r6
8000bf04:	2afffff1 	bcs	0x8000bed0
8000bf08:	e89d0003 	ldm	sp, {r0, r1}
8000bf0c:	e0903000 	adds	r3, r0, r0
8000bf10:	e0a14001 	adc	r4, r1, r1
8000bf14:	e25ee001 	subs	lr, lr, #1
8000bf18:	e88d0018 	stm	sp, {r3, r4}
8000bf1c:	1afffff5 	bne	0x8000bef8
8000bf20:	e89d0018 	ldm	sp, {r3, r4}
8000bf24:	e1a0eb33 	lsr	lr, r3, fp
8000bf28:	e18eec14 	orr	lr, lr, r4, lsl ip
8000bf2c:	e1a01b34 	lsr	r1, r4, fp
8000bf30:	e18ee234 	orr	lr, lr, r4, lsr r2
8000bf34:	e0936008 	adds	r6, r3, r8
8000bf38:	e58d1004 	str	r1, [sp, #4]
8000bf3c:	e58de000 	str	lr, [sp]
8000bf40:	e0a47009 	adc	r7, r4, r9
8000bf44:	e89d0018 	ldm	sp, {r3, r4}
8000bf48:	e1a01b14 	lsl	r1, r4, fp
8000bf4c:	e1811213 	orr	r1, r1, r3, lsl r2
8000bf50:	e1a00b13 	lsl	r0, r3, fp
8000bf54:	e0566000 	subs	r6, r6, r0
8000bf58:	e1811c33 	orr	r1, r1, r3, lsr ip
8000bf5c:	e0c77001 	sbc	r7, r7, r1
8000bf60:	e1a08006 	mov	r8, r6
8000bf64:	e1a09007 	mov	r9, r7
8000bf68:	e35a0000 	cmp	sl, #0
8000bf6c:	189d0018 	ldmne	sp, {r3, r4}
8000bf70:	188a0018 	stmne	sl, {r3, r4}
8000bf74:	e1a00008 	mov	r0, r8
8000bf78:	e1a01009 	mov	r1, r9
8000bf7c:	e28dd00c 	add	sp, sp, #12
8000bf80:	e8bd4ff0 	pop	{r4, r5, r6, r7, r8, r9, sl, fp, lr}
8000bf84:	e12fff1e 	bx	lr
8000bf88:	e92d4010 	push	{r4, lr}
8000bf8c:	e3510000 	cmp	r1, #0
8000bf90:	1a000002 	bne	0x8000bfa0
8000bf94:	eb000005 	bl	0x8000bfb0
8000bf98:	e2800020 	add	r0, r0, #32
8000bf9c:	ea000001 	b	0x8000bfa8
8000bfa0:	e1a00001 	mov	r0, r1
8000bfa4:	eb000001 	bl	0x8000bfb0
8000bfa8:	e8bd4010 	pop	{r4, lr}
8000bfac:	e12fff1e 	bx	lr
8000bfb0:	e3a0101c 	mov	r1, #28
8000bfb4:	e3500801 	cmp	r0, #65536	; 0x10000
8000bfb8:	21a00820 	lsrcs	r0, r0, #16
8000bfbc:	22411010 	subcs	r1, r1, #16
8000bfc0:	e3500c01 	cmp	r0, #256	; 0x100
8000bfc4:	21a00420 	lsrcs	r0, r0, #8
8000bfc8:	22411008 	subcs	r1, r1, #8
8000bfcc:	e3500010 	cmp	r0, #16
8000bfd0:	21a00220 	lsrcs	r0, r0, #4
8000bfd4:	22411004 	subcs	r1, r1, #4
8000bfd8:	e28f2008 	add	r2, pc, #8
8000bfdc:	e7d20000 	ldrb	r0, [r2, r0]
8000bfe0:	e0800001 	add	r0, r0, r1
8000bfe4:	e12fff1e 	bx	lr
8000bfe8:	02020304 	andeq	r0, r2, #4, 6	; 0x10000000
8000bfec:	01010101 	tsteq	r1, r1, lsl #2
	...
8000bff8:	e2403001 	sub	r3, r0, #1
8000bffc:	e0812002 	add	r2, r1, r2
8000c000:	e1510002 	cmp	r1, r2
8000c004:	1a000000 	bne	0x8000c00c
8000c008:	e12fff1e 	bx	lr
8000c00c:	e4d1c001 	ldrb	ip, [r1], #1
8000c010:	e5e3c001 	strb	ip, [r3, #1]!
8000c014:	eafffff9 	b	0x8000c000
8000c018:	e1a03000 	mov	r3, r0
8000c01c:	e0802002 	add	r2, r0, r2
8000c020:	e1530002 	cmp	r3, r2
8000c024:	1a000000 	bne	0x8000c02c
8000c028:	e12fff1e 	bx	lr
8000c02c:	e4c31001 	strb	r1, [r3], #1
8000c030:	eafffffa 	b	0x8000c020
8000c034:	e92d4800 	push	{fp, lr}
8000c038:	e28db004 	add	fp, sp, #4
8000c03c:	e24dd008 	sub	sp, sp, #8
8000c040:	e50b0008 	str	r0, [fp, #-8]
8000c044:	e51b3008 	ldr	r3, [fp, #-8]
8000c048:	e1a00003 	mov	r0, r3
8000c04c:	eb00050a 	bl	0x8000d47c
8000c050:	e320f000 	nop	{0}
8000c054:	e24bd004 	sub	sp, fp, #4
8000c058:	e8bd8800 	pop	{fp, pc}
8000c05c:	e92d4800 	push	{fp, lr}
8000c060:	e28db004 	add	fp, sp, #4
8000c064:	e24dd018 	sub	sp, sp, #24
8000c068:	e50b0010 	str	r0, [fp, #-16]
8000c06c:	e50b1014 	str	r1, [fp, #-20]	; 0xffffffec
8000c070:	e50b2018 	str	r2, [fp, #-24]	; 0xffffffe8
8000c074:	e51b2018 	ldr	r2, [fp, #-24]	; 0xffffffe8
8000c078:	e51b1014 	ldr	r1, [fp, #-20]	; 0xffffffec
8000c07c:	e51b0010 	ldr	r0, [fp, #-16]
8000c080:	eb000515 	bl	0x8000d4dc
8000c084:	e50b0008 	str	r0, [fp, #-8]
8000c088:	e51b3008 	ldr	r3, [fp, #-8]
8000c08c:	e3530000 	cmp	r3, #0
8000c090:	0a000014 	beq	0x8000c0e8
8000c094:	e30f3158 	movw	r3, #61784	; 0xf158
8000c098:	e3483000 	movt	r3, #32768	; 0x8000
8000c09c:	e5933000 	ldr	r3, [r3]
8000c0a0:	e2832001 	add	r2, r3, #1
8000c0a4:	e30f3158 	movw	r3, #61784	; 0xf158
8000c0a8:	e3483000 	movt	r3, #32768	; 0x8000
8000c0ac:	e5832000 	str	r2, [r3]
8000c0b0:	e30f3158 	movw	r3, #61784	; 0xf158
8000c0b4:	e3483000 	movt	r3, #32768	; 0x8000
8000c0b8:	e5932000 	ldr	r2, [r3]
8000c0bc:	e30f315c 	movw	r3, #61788	; 0xf15c
8000c0c0:	e3483000 	movt	r3, #32768	; 0x8000
8000c0c4:	e5933000 	ldr	r3, [r3]
8000c0c8:	e1520003 	cmp	r2, r3
8000c0cc:	9a000005 	bls	0x8000c0e8
8000c0d0:	e30f3158 	movw	r3, #61784	; 0xf158
8000c0d4:	e3483000 	movt	r3, #32768	; 0x8000
8000c0d8:	e5932000 	ldr	r2, [r3]
8000c0dc:	e30f315c 	movw	r3, #61788	; 0xf15c
8000c0e0:	e3483000 	movt	r3, #32768	; 0x8000
8000c0e4:	e5832000 	str	r2, [r3]
8000c0e8:	e51b3008 	ldr	r3, [fp, #-8]
8000c0ec:	e1a00003 	mov	r0, r3
8000c0f0:	e24bd004 	sub	sp, fp, #4
8000c0f4:	e8bd8800 	pop	{fp, pc}
8000c0f8:	e92d4800 	push	{fp, lr}
8000c0fc:	e28db004 	add	fp, sp, #4
8000c100:	e24dd010 	sub	sp, sp, #16
8000c104:	e50b0010 	str	r0, [fp, #-16]
8000c108:	e51b3010 	ldr	r3, [fp, #-16]
8000c10c:	e3530000 	cmp	r3, #0
8000c110:	03a03001 	moveq	r3, #1
8000c114:	13a03000 	movne	r3, #0
8000c118:	e6ef3073 	uxtb	r3, r3
8000c11c:	e3a0204e 	mov	r2, #78	; 0x4e
8000c120:	e30e17cc 	movw	r1, #59340	; 0xe7cc
8000c124:	e3481000 	movt	r1, #32768	; 0x8000
8000c128:	e1a00003 	mov	r0, r3
8000c12c:	eb0003d5 	bl	0x8000d088
8000c130:	e51b0010 	ldr	r0, [fp, #-16]
8000c134:	eb00057d 	bl	0x8000d730
8000c138:	e1a03000 	mov	r3, r0
8000c13c:	e54b3005 	strb	r3, [fp, #-5]
8000c140:	e15b30d5 	ldrsb	r3, [fp, #-5]
8000c144:	e3530000 	cmp	r3, #0
8000c148:	1a00000b 	bne	0x8000c17c
8000c14c:	e30f3158 	movw	r3, #61784	; 0xf158
8000c150:	e3483000 	movt	r3, #32768	; 0x8000
8000c154:	e5933000 	ldr	r3, [r3]
8000c158:	e3530000 	cmp	r3, #0
8000c15c:	0a000006 	beq	0x8000c17c
8000c160:	e30f3158 	movw	r3, #61784	; 0xf158
8000c164:	e3483000 	movt	r3, #32768	; 0x8000
8000c168:	e5933000 	ldr	r3, [r3]
8000c16c:	e2432001 	sub	r2, r3, #1
8000c170:	e30f3158 	movw	r3, #61784	; 0xf158
8000c174:	e3483000 	movt	r3, #32768	; 0x8000
8000c178:	e5832000 	str	r2, [r3]
8000c17c:	e15b30d5 	ldrsb	r3, [fp, #-5]
8000c180:	e1a00003 	mov	r0, r3
8000c184:	e24bd004 	sub	sp, fp, #4
8000c188:	e8bd8800 	pop	{fp, pc}
8000c18c:	e92d4800 	push	{fp, lr}
8000c190:	e28db004 	add	fp, sp, #4
8000c194:	eb0004c1 	bl	0x8000d4a0
8000c198:	e1a03000 	mov	r3, r0
8000c19c:	e1a00003 	mov	r0, r3
8000c1a0:	e8bd8800 	pop	{fp, pc}
8000c1a4:	e92d4800 	push	{fp, lr}
8000c1a8:	e28db004 	add	fp, sp, #4
8000c1ac:	e24dd008 	sub	sp, sp, #8
8000c1b0:	e50b0008 	str	r0, [fp, #-8]
8000c1b4:	e51b3008 	ldr	r3, [fp, #-8]
8000c1b8:	e1a00003 	mov	r0, r3
8000c1bc:	eb0004a5 	bl	0x8000d458
8000c1c0:	e320f000 	nop	{0}
8000c1c4:	e24bd004 	sub	sp, fp, #4
8000c1c8:	e8bd8800 	pop	{fp, pc}
8000c1cc:	e92d4800 	push	{fp, lr}
8000c1d0:	e28db004 	add	fp, sp, #4
8000c1d4:	e24dd008 	sub	sp, sp, #8
8000c1d8:	e50b0008 	str	r0, [fp, #-8]
8000c1dc:	e51b3008 	ldr	r3, [fp, #-8]
8000c1e0:	e1a00003 	mov	r0, r3
8000c1e4:	eb000492 	bl	0x8000d434
8000c1e8:	e320f000 	nop	{0}
8000c1ec:	e24bd004 	sub	sp, fp, #4
8000c1f0:	e8bd8800 	pop	{fp, pc}
8000c1f4:	e52db004 	push	{fp}		; (str fp, [sp, #-4]!)
8000c1f8:	e28db000 	add	fp, sp, #0
8000c1fc:	e24dd00c 	sub	sp, sp, #12
8000c200:	e50b0008 	str	r0, [fp, #-8]
8000c204:	e3e03001 	mvn	r3, #1
8000c208:	e1a00003 	mov	r0, r3
8000c20c:	e28bd000 	add	sp, fp, #0
8000c210:	e49db004 	pop	{fp}		; (ldr fp, [sp], #4)
8000c214:	e12fff1e 	bx	lr
8000c218:	e52db004 	push	{fp}		; (str fp, [sp, #-4]!)
8000c21c:	e28db000 	add	fp, sp, #0
8000c220:	e24dd00c 	sub	sp, sp, #12
8000c224:	e50b0008 	str	r0, [fp, #-8]
8000c228:	e51b3008 	ldr	r3, [fp, #-8]
8000c22c:	e3a02000 	mov	r2, #0
8000c230:	e5832000 	str	r2, [r3]
8000c234:	e51b3008 	ldr	r3, [fp, #-8]
8000c238:	e3a02000 	mov	r2, #0
8000c23c:	e5832004 	str	r2, [r3, #4]
8000c240:	e51b3008 	ldr	r3, [fp, #-8]
8000c244:	e3e02000 	mvn	r2, #0
8000c248:	e5832008 	str	r2, [r3, #8]
8000c24c:	e51b3008 	ldr	r3, [fp, #-8]
8000c250:	e3a02000 	mov	r2, #0
8000c254:	e583200c 	str	r2, [r3, #12]
8000c258:	e51b3008 	ldr	r3, [fp, #-8]
8000c25c:	e3a02001 	mov	r2, #1
8000c260:	e5832010 	str	r2, [r3, #16]
8000c264:	e320f000 	nop	{0}
8000c268:	e28bd000 	add	sp, fp, #0
8000c26c:	e49db004 	pop	{fp}		; (ldr fp, [sp], #4)
8000c270:	e12fff1e 	bx	lr
8000c274:	e92d4800 	push	{fp, lr}
8000c278:	e28db004 	add	fp, sp, #4
8000c27c:	e24dd008 	sub	sp, sp, #8
8000c280:	e50b0008 	str	r0, [fp, #-8]
8000c284:	e51b0008 	ldr	r0, [fp, #-8]
8000c288:	eb00048a 	bl	0x8000d4b8
8000c28c:	e320f000 	nop	{0}
8000c290:	e24bd004 	sub	sp, fp, #4
8000c294:	e8bd8800 	pop	{fp, pc}
8000c298:	e52db004 	push	{fp}		; (str fp, [sp, #-4]!)
8000c29c:	e28db000 	add	fp, sp, #0
8000c2a0:	e24dd014 	sub	sp, sp, #20
8000c2a4:	e50b0010 	str	r0, [fp, #-16]
8000c2a8:	e50b1014 	str	r1, [fp, #-20]	; 0xffffffec
8000c2ac:	e3a03000 	mov	r3, #0
8000c2b0:	e54b3005 	strb	r3, [fp, #-5]
8000c2b4:	e51b3010 	ldr	r3, [fp, #-16]
8000c2b8:	e5932000 	ldr	r2, [r3]
8000c2bc:	e51b3014 	ldr	r3, [fp, #-20]	; 0xffffffec
8000c2c0:	e5832000 	str	r2, [r3]
8000c2c4:	e51b3010 	ldr	r3, [fp, #-16]
8000c2c8:	e5932010 	ldr	r2, [r3, #16]
8000c2cc:	e51b3014 	ldr	r3, [fp, #-20]	; 0xffffffec
8000c2d0:	e5832008 	str	r2, [r3, #8]
8000c2d4:	e15b30d5 	ldrsb	r3, [fp, #-5]
8000c2d8:	e1a00003 	mov	r0, r3
8000c2dc:	e28bd000 	add	sp, fp, #0
8000c2e0:	e49db004 	pop	{fp}		; (ldr fp, [sp], #4)
8000c2e4:	e12fff1e 	bx	lr
8000c2e8:	e52db004 	push	{fp}		; (str fp, [sp, #-4]!)
8000c2ec:	e28db000 	add	fp, sp, #0
8000c2f0:	e24dd00c 	sub	sp, sp, #12
8000c2f4:	e50b0008 	str	r0, [fp, #-8]
8000c2f8:	e50b100c 	str	r1, [fp, #-12]
8000c2fc:	e320f000 	nop	{0}
8000c300:	e28bd000 	add	sp, fp, #0
8000c304:	e49db004 	pop	{fp}		; (ldr fp, [sp], #4)
8000c308:	e12fff1e 	bx	lr
8000c30c:	e52db004 	push	{fp}		; (str fp, [sp, #-4]!)
8000c310:	e28db000 	add	fp, sp, #0
8000c314:	e24dd00c 	sub	sp, sp, #12
8000c318:	e50b0008 	str	r0, [fp, #-8]
8000c31c:	e50b100c 	str	r1, [fp, #-12]
8000c320:	e320f000 	nop	{0}
8000c324:	e28bd000 	add	sp, fp, #0
8000c328:	e49db004 	pop	{fp}		; (ldr fp, [sp], #4)
8000c32c:	e12fff1e 	bx	lr
8000c330:	e52db004 	push	{fp}		; (str fp, [sp, #-4]!)
8000c334:	e28db000 	add	fp, sp, #0
8000c338:	e24dd00c 	sub	sp, sp, #12
8000c33c:	e50b0008 	str	r0, [fp, #-8]
8000c340:	e50b100c 	str	r1, [fp, #-12]
8000c344:	e320f000 	nop	{0}
8000c348:	e28bd000 	add	sp, fp, #0
8000c34c:	e49db004 	pop	{fp}		; (ldr fp, [sp], #4)
8000c350:	e12fff1e 	bx	lr
8000c354:	e52db004 	push	{fp}		; (str fp, [sp, #-4]!)
8000c358:	e28db000 	add	fp, sp, #0
8000c35c:	e24dd00c 	sub	sp, sp, #12
8000c360:	e50b0008 	str	r0, [fp, #-8]
8000c364:	e50b100c 	str	r1, [fp, #-12]
8000c368:	e320f000 	nop	{0}
8000c36c:	e28bd000 	add	sp, fp, #0
8000c370:	e49db004 	pop	{fp}		; (ldr fp, [sp], #4)
8000c374:	e12fff1e 	bx	lr
8000c378:	e52db004 	push	{fp}		; (str fp, [sp, #-4]!)
8000c37c:	e28db000 	add	fp, sp, #0
8000c380:	e24dd00c 	sub	sp, sp, #12
8000c384:	e50b0008 	str	r0, [fp, #-8]
8000c388:	e50b100c 	str	r1, [fp, #-12]
8000c38c:	e320f000 	nop	{0}
8000c390:	e28bd000 	add	sp, fp, #0
8000c394:	e49db004 	pop	{fp}		; (ldr fp, [sp], #4)
8000c398:	e12fff1e 	bx	lr
8000c39c:	e52db004 	push	{fp}		; (str fp, [sp, #-4]!)
8000c3a0:	e28db000 	add	fp, sp, #0
8000c3a4:	e24dd014 	sub	sp, sp, #20
8000c3a8:	e50b0010 	str	r0, [fp, #-16]
8000c3ac:	e51b3010 	ldr	r3, [fp, #-16]
8000c3b0:	e5933000 	ldr	r3, [r3]
8000c3b4:	e50b3008 	str	r3, [fp, #-8]
8000c3b8:	e51b3008 	ldr	r3, [fp, #-8]
8000c3bc:	e1a00003 	mov	r0, r3
8000c3c0:	e28bd000 	add	sp, fp, #0
8000c3c4:	e49db004 	pop	{fp}		; (ldr fp, [sp], #4)
8000c3c8:	e12fff1e 	bx	lr
8000c3cc:	e52db004 	push	{fp}		; (str fp, [sp, #-4]!)
8000c3d0:	e28db000 	add	fp, sp, #0
8000c3d4:	e24dd00c 	sub	sp, sp, #12
8000c3d8:	e50b0008 	str	r0, [fp, #-8]
8000c3dc:	e50b100c 	str	r1, [fp, #-12]
8000c3e0:	e51b3008 	ldr	r3, [fp, #-8]
8000c3e4:	e51b200c 	ldr	r2, [fp, #-12]
8000c3e8:	e5832000 	str	r2, [r3]
8000c3ec:	e320f000 	nop	{0}
8000c3f0:	e28bd000 	add	sp, fp, #0
8000c3f4:	e49db004 	pop	{fp}		; (ldr fp, [sp], #4)
8000c3f8:	e12fff1e 	bx	lr
8000c3fc:	e52db004 	push	{fp}		; (str fp, [sp, #-4]!)
8000c400:	e28db000 	add	fp, sp, #0
8000c404:	e24dd014 	sub	sp, sp, #20
8000c408:	e50b0010 	str	r0, [fp, #-16]
8000c40c:	e30f3144 	movw	r3, #61764	; 0xf144
8000c410:	e3483000 	movt	r3, #32768	; 0x8000
8000c414:	e5933000 	ldr	r3, [r3]
8000c418:	e3530000 	cmp	r3, #0
8000c41c:	1a000025 	bne	0x8000c4b8
8000c420:	e3a03010 	mov	r3, #16
8000c424:	e3443820 	movt	r3, #18464	; 0x4820
8000c428:	e3a02002 	mov	r2, #2
8000c42c:	e5832000 	str	r2, [r3]
8000c430:	e320f000 	nop	{0}
8000c434:	e3a03014 	mov	r3, #20
8000c438:	e3443820 	movt	r3, #18464	; 0x4820
8000c43c:	e5933000 	ldr	r3, [r3]
8000c440:	e2033001 	and	r3, r3, #1
8000c444:	e3530001 	cmp	r3, #1
8000c448:	1afffff9 	bne	0x8000c434
8000c44c:	e3a03068 	mov	r3, #104	; 0x68
8000c450:	e3443820 	movt	r3, #18464	; 0x4820
8000c454:	e3a020ff 	mov	r2, #255	; 0xff
8000c458:	e5832000 	str	r2, [r3]
8000c45c:	e3a03000 	mov	r3, #0
8000c460:	e50b3008 	str	r3, [fp, #-8]
8000c464:	ea000008 	b	0x8000c48c
8000c468:	e30e3d40 	movw	r3, #60736	; 0xed40
8000c46c:	e3483000 	movt	r3, #32768	; 0x8000
8000c470:	e51b1008 	ldr	r1, [fp, #-8]
8000c474:	e30c290c 	movw	r2, #51468	; 0xc90c
8000c478:	e3482000 	movt	r2, #32768	; 0x8000
8000c47c:	e7832101 	str	r2, [r3, r1, lsl #2]
8000c480:	e51b3008 	ldr	r3, [fp, #-8]
8000c484:	e2833001 	add	r3, r3, #1
8000c488:	e50b3008 	str	r3, [fp, #-8]
8000c48c:	e51b3008 	ldr	r3, [fp, #-8]
8000c490:	e353007f 	cmp	r3, #127	; 0x7f
8000c494:	9afffff3 	bls	0x8000c468
8000c498:	e3a0304c 	mov	r3, #76	; 0x4c
8000c49c:	e3443820 	movt	r3, #18464	; 0x4820
8000c4a0:	e3a02001 	mov	r2, #1
8000c4a4:	e5832000 	str	r2, [r3]
8000c4a8:	e30f3144 	movw	r3, #61764	; 0xf144
8000c4ac:	e3483000 	movt	r3, #32768	; 0x8000
8000c4b0:	e3a02001 	mov	r2, #1
8000c4b4:	e5832000 	str	r2, [r3]
8000c4b8:	e3a03000 	mov	r3, #0
8000c4bc:	e1a00003 	mov	r0, r3
8000c4c0:	e28bd000 	add	sp, fp, #0
8000c4c4:	e49db004 	pop	{fp}		; (ldr fp, [sp], #4)
8000c4c8:	e12fff1e 	bx	lr
8000c4cc:	e92d4800 	push	{fp, lr}
8000c4d0:	e28db004 	add	fp, sp, #4
8000c4d4:	e24dd018 	sub	sp, sp, #24
8000c4d8:	e50b0010 	str	r0, [fp, #-16]
8000c4dc:	e50b1014 	str	r1, [fp, #-20]	; 0xffffffec
8000c4e0:	e50b2018 	str	r2, [fp, #-24]	; 0xffffffe8
8000c4e4:	e3a03000 	mov	r3, #0
8000c4e8:	e50b3008 	str	r3, [fp, #-8]
8000c4ec:	e51b3018 	ldr	r3, [fp, #-24]	; 0xffffffe8
8000c4f0:	e3530001 	cmp	r3, #1
8000c4f4:	0a000006 	beq	0x8000c514
8000c4f8:	e51b3014 	ldr	r3, [fp, #-20]	; 0xffffffec
8000c4fc:	e5933010 	ldr	r3, [r3, #16]
8000c500:	e3530001 	cmp	r3, #1
8000c504:	1a000002 	bne	0x8000c514
8000c508:	e3e03000 	mvn	r3, #0
8000c50c:	e50b3008 	str	r3, [fp, #-8]
8000c510:	ea00002d 	b	0x8000c5cc
8000c514:	e51b3014 	ldr	r3, [fp, #-20]	; 0xffffffec
8000c518:	e5931008 	ldr	r1, [r3, #8]
8000c51c:	e30e3d40 	movw	r3, #60736	; 0xed40
8000c520:	e3483000 	movt	r3, #32768	; 0x8000
8000c524:	e51b2010 	ldr	r2, [fp, #-16]
8000c528:	e7831102 	str	r1, [r3, r2, lsl #2]
8000c52c:	e51b3014 	ldr	r3, [fp, #-20]	; 0xffffffec
8000c530:	e593100c 	ldr	r1, [r3, #12]
8000c534:	e30e3f40 	movw	r3, #61248	; 0xef40
8000c538:	e3483000 	movt	r3, #32768	; 0x8000
8000c53c:	e51b2010 	ldr	r2, [fp, #-16]
8000c540:	e7831102 	str	r1, [r3, r2, lsl #2]
8000c544:	e51b2010 	ldr	r2, [fp, #-16]
8000c548:	e3a03040 	mov	r3, #64	; 0x40
8000c54c:	e3413208 	movt	r3, #4616	; 0x1208
8000c550:	e0823003 	add	r3, r2, r3
8000c554:	e1a03103 	lsl	r3, r3, #2
8000c558:	e1a01003 	mov	r1, r3
8000c55c:	e51b3014 	ldr	r3, [fp, #-20]	; 0xffffffec
8000c560:	e5933004 	ldr	r3, [r3, #4]
8000c564:	e1a03103 	lsl	r3, r3, #2
8000c568:	e2032f7f 	and	r2, r3, #508	; 0x1fc
8000c56c:	e51b3014 	ldr	r3, [fp, #-20]	; 0xffffffec
8000c570:	e5933010 	ldr	r3, [r3, #16]
8000c574:	e1823003 	orr	r3, r2, r3
8000c578:	e5813000 	str	r3, [r1]
8000c57c:	e51b3010 	ldr	r3, [fp, #-16]
8000c580:	e1a032a3 	lsr	r3, r3, #5
8000c584:	e1a02283 	lsl	r2, r3, #5
8000c588:	e3a03088 	mov	r3, #136	; 0x88
8000c58c:	e3443820 	movt	r3, #18464	; 0x4820
8000c590:	e0823003 	add	r3, r2, r3
8000c594:	e1a01003 	mov	r1, r3
8000c598:	e51b3010 	ldr	r3, [fp, #-16]
8000c59c:	e203301f 	and	r3, r3, #31
8000c5a0:	e3a02001 	mov	r2, #1
8000c5a4:	e1a03312 	lsl	r3, r2, r3
8000c5a8:	e5813000 	str	r3, [r1]
8000c5ac:	e51b3018 	ldr	r3, [fp, #-24]	; 0xffffffe8
8000c5b0:	e3530001 	cmp	r3, #1
8000c5b4:	1a000002 	bne	0x8000c5c4
8000c5b8:	e3a000c0 	mov	r0, #192	; 0xc0
8000c5bc:	eb00049d 	bl	0x8000d838
8000c5c0:	ea000001 	b	0x8000c5cc
8000c5c4:	e3a00080 	mov	r0, #128	; 0x80
8000c5c8:	eb00049a 	bl	0x8000d838
8000c5cc:	e51b3008 	ldr	r3, [fp, #-8]
8000c5d0:	e1a00003 	mov	r0, r3
8000c5d4:	e24bd004 	sub	sp, fp, #4
8000c5d8:	e8bd8800 	pop	{fp, pc}
8000c5dc:	e52db004 	push	{fp}		; (str fp, [sp, #-4]!)
8000c5e0:	e28db000 	add	fp, sp, #0
8000c5e4:	e24dd014 	sub	sp, sp, #20
8000c5e8:	e50b0010 	str	r0, [fp, #-16]
8000c5ec:	e3a03000 	mov	r3, #0
8000c5f0:	e50b3008 	str	r3, [fp, #-8]
8000c5f4:	e51b3010 	ldr	r3, [fp, #-16]
8000c5f8:	e353007f 	cmp	r3, #127	; 0x7f
8000c5fc:	8a00000d 	bhi	0x8000c638
8000c600:	f57ff04f 	dsb	sy
8000c604:	e51b3010 	ldr	r3, [fp, #-16]
8000c608:	e1a032a3 	lsr	r3, r3, #5
8000c60c:	e1a02283 	lsl	r2, r3, #5
8000c610:	e3a03088 	mov	r3, #136	; 0x88
8000c614:	e3443820 	movt	r3, #18464	; 0x4820
8000c618:	e0823003 	add	r3, r2, r3
8000c61c:	e1a01003 	mov	r1, r3
8000c620:	e51b3010 	ldr	r3, [fp, #-16]
8000c624:	e203301f 	and	r3, r3, #31
8000c628:	e3a02001 	mov	r2, #1
8000c62c:	e1a03312 	lsl	r3, r2, r3
8000c630:	e5813000 	str	r3, [r1]
8000c634:	ea000001 	b	0x8000c640
8000c638:	e3e03004 	mvn	r3, #4
8000c63c:	e50b3008 	str	r3, [fp, #-8]
8000c640:	e51b3008 	ldr	r3, [fp, #-8]
8000c644:	e1a00003 	mov	r0, r3
8000c648:	e28bd000 	add	sp, fp, #0
8000c64c:	e49db004 	pop	{fp}		; (ldr fp, [sp], #4)
8000c650:	e12fff1e 	bx	lr
8000c654:	e52db004 	push	{fp}		; (str fp, [sp, #-4]!)
8000c658:	e28db000 	add	fp, sp, #0
8000c65c:	e24dd014 	sub	sp, sp, #20
8000c660:	e50b0010 	str	r0, [fp, #-16]
8000c664:	e3a03000 	mov	r3, #0
8000c668:	e50b3008 	str	r3, [fp, #-8]
8000c66c:	e51b3010 	ldr	r3, [fp, #-16]
8000c670:	e353007f 	cmp	r3, #127	; 0x7f
8000c674:	8a00000d 	bhi	0x8000c6b0
8000c678:	f57ff04f 	dsb	sy
8000c67c:	e51b3010 	ldr	r3, [fp, #-16]
8000c680:	e1a032a3 	lsr	r3, r3, #5
8000c684:	e1a02283 	lsl	r2, r3, #5
8000c688:	e3a0308c 	mov	r3, #140	; 0x8c
8000c68c:	e3443820 	movt	r3, #18464	; 0x4820
8000c690:	e0823003 	add	r3, r2, r3
8000c694:	e1a01003 	mov	r1, r3
8000c698:	e51b3010 	ldr	r3, [fp, #-16]
8000c69c:	e203301f 	and	r3, r3, #31
8000c6a0:	e3a02001 	mov	r2, #1
8000c6a4:	e1a03312 	lsl	r3, r2, r3
8000c6a8:	e5813000 	str	r3, [r1]
8000c6ac:	ea000001 	b	0x8000c6b8
8000c6b0:	e3e03004 	mvn	r3, #4
8000c6b4:	e50b3008 	str	r3, [fp, #-8]
8000c6b8:	e51b3008 	ldr	r3, [fp, #-8]
8000c6bc:	e1a00003 	mov	r0, r3
8000c6c0:	e28bd000 	add	sp, fp, #0
8000c6c4:	e49db004 	pop	{fp}		; (ldr fp, [sp], #4)
8000c6c8:	e12fff1e 	bx	lr
8000c6cc:	e92d4800 	push	{fp, lr}
8000c6d0:	e28db004 	add	fp, sp, #4
8000c6d4:	e24dd010 	sub	sp, sp, #16
8000c6d8:	e50b0010 	str	r0, [fp, #-16]
8000c6dc:	e3a03000 	mov	r3, #0
8000c6e0:	e50b3008 	str	r3, [fp, #-8]
8000c6e4:	e51b3010 	ldr	r3, [fp, #-16]
8000c6e8:	e3530080 	cmp	r3, #128	; 0x80
8000c6ec:	0a000005 	beq	0x8000c708
8000c6f0:	e51b3010 	ldr	r3, [fp, #-16]
8000c6f4:	e3530040 	cmp	r3, #64	; 0x40
8000c6f8:	0a000002 	beq	0x8000c708
8000c6fc:	e51b3010 	ldr	r3, [fp, #-16]
8000c700:	e35300c0 	cmp	r3, #192	; 0xc0
8000c704:	1a000002 	bne	0x8000c714
8000c708:	e51b0010 	ldr	r0, [fp, #-16]
8000c70c:	eb000449 	bl	0x8000d838
8000c710:	ea000001 	b	0x8000c71c
8000c714:	e3e03001 	mvn	r3, #1
8000c718:	e50b3008 	str	r3, [fp, #-8]
8000c71c:	e51b3008 	ldr	r3, [fp, #-8]
8000c720:	e1a00003 	mov	r0, r3
8000c724:	e24bd004 	sub	sp, fp, #4
8000c728:	e8bd8800 	pop	{fp, pc}
8000c72c:	e92d4800 	push	{fp, lr}
8000c730:	e28db004 	add	fp, sp, #4
8000c734:	eb00042d 	bl	0x8000d7f0
8000c738:	e1a03000 	mov	r3, r0
8000c73c:	e1a00003 	mov	r0, r3
8000c740:	e8bd8800 	pop	{fp, pc}
8000c744:	e52db004 	push	{fp}		; (str fp, [sp, #-4]!)
8000c748:	e28db000 	add	fp, sp, #0
8000c74c:	e24dd014 	sub	sp, sp, #20
8000c750:	e50b0010 	str	r0, [fp, #-16]
8000c754:	e3a03000 	mov	r3, #0
8000c758:	e50b3008 	str	r3, [fp, #-8]
8000c75c:	e51b3010 	ldr	r3, [fp, #-16]
8000c760:	e353007f 	cmp	r3, #127	; 0x7f
8000c764:	8a00000c 	bhi	0x8000c79c
8000c768:	e51b3010 	ldr	r3, [fp, #-16]
8000c76c:	e1a022a3 	lsr	r2, r3, #5
8000c770:	e3a03004 	mov	r3, #4
8000c774:	e3403241 	movt	r3, #577	; 0x241
8000c778:	e0823003 	add	r3, r2, r3
8000c77c:	e1a03283 	lsl	r3, r3, #5
8000c780:	e1a01003 	mov	r1, r3
8000c784:	e51b3010 	ldr	r3, [fp, #-16]
8000c788:	e203301f 	and	r3, r3, #31
8000c78c:	e3a02001 	mov	r2, #1
8000c790:	e1a03312 	lsl	r3, r2, r3
8000c794:	e5813000 	str	r3, [r1]
8000c798:	ea000001 	b	0x8000c7a4
8000c79c:	e3e03004 	mvn	r3, #4
8000c7a0:	e50b3008 	str	r3, [fp, #-8]
8000c7a4:	e51b3008 	ldr	r3, [fp, #-8]
8000c7a8:	e1a00003 	mov	r0, r3
8000c7ac:	e28bd000 	add	sp, fp, #0
8000c7b0:	e49db004 	pop	{fp}		; (ldr fp, [sp], #4)
8000c7b4:	e12fff1e 	bx	lr
8000c7b8:	e52db004 	push	{fp}		; (str fp, [sp, #-4]!)
8000c7bc:	e28db000 	add	fp, sp, #0
8000c7c0:	e24dd014 	sub	sp, sp, #20
8000c7c4:	e50b0010 	str	r0, [fp, #-16]
8000c7c8:	e3a03000 	mov	r3, #0
8000c7cc:	e50b3008 	str	r3, [fp, #-8]
8000c7d0:	e51b3010 	ldr	r3, [fp, #-16]
8000c7d4:	e353007f 	cmp	r3, #127	; 0x7f
8000c7d8:	8a00000c 	bhi	0x8000c810
8000c7dc:	e51b3010 	ldr	r3, [fp, #-16]
8000c7e0:	e1a032a3 	lsr	r3, r3, #5
8000c7e4:	e1a02283 	lsl	r2, r3, #5
8000c7e8:	e3a03090 	mov	r3, #144	; 0x90
8000c7ec:	e3443820 	movt	r3, #18464	; 0x4820
8000c7f0:	e0823003 	add	r3, r2, r3
8000c7f4:	e1a01003 	mov	r1, r3
8000c7f8:	e51b3010 	ldr	r3, [fp, #-16]
8000c7fc:	e203301f 	and	r3, r3, #31
8000c800:	e3a02001 	mov	r2, #1
8000c804:	e1a03312 	lsl	r3, r2, r3
8000c808:	e5813000 	str	r3, [r1]
8000c80c:	ea000001 	b	0x8000c818
8000c810:	e3e03004 	mvn	r3, #4
8000c814:	e50b3008 	str	r3, [fp, #-8]
8000c818:	e51b3008 	ldr	r3, [fp, #-8]
8000c81c:	e1a00003 	mov	r0, r3
8000c820:	e28bd000 	add	sp, fp, #0
8000c824:	e49db004 	pop	{fp}		; (ldr fp, [sp], #4)
8000c828:	e12fff1e 	bx	lr
8000c82c:	e92d4810 	push	{r4, fp, lr}
8000c830:	e28db008 	add	fp, sp, #8
8000c834:	e24dd014 	sub	sp, sp, #20
8000c838:	e3a00040 	mov	r0, #64	; 0x40
8000c83c:	e3440820 	movt	r0, #18464	; 0x4820
8000c840:	ebfffed5 	bl	0x8000c39c
8000c844:	e50b0010 	str	r0, [fp, #-16]
8000c848:	e51b3010 	ldr	r3, [fp, #-16]
8000c84c:	e203307f 	and	r3, r3, #127	; 0x7f
8000c850:	e50b3014 	str	r3, [fp, #-20]	; 0xffffffec
8000c854:	e3a03000 	mov	r3, #0
8000c858:	e50b3018 	str	r3, [fp, #-24]	; 0xffffffe8
8000c85c:	e3a00068 	mov	r0, #104	; 0x68
8000c860:	e3440820 	movt	r0, #18464	; 0x4820
8000c864:	ebfffecc 	bl	0x8000c39c
8000c868:	e50b001c 	str	r0, [fp, #-28]	; 0xffffffe4
8000c86c:	e3a00060 	mov	r0, #96	; 0x60
8000c870:	e3440820 	movt	r0, #18464	; 0x4820
8000c874:	ebfffec8 	bl	0x8000c39c
8000c878:	e1a03000 	mov	r3, r0
8000c87c:	e1a01003 	mov	r1, r3
8000c880:	e3a00068 	mov	r0, #104	; 0x68
8000c884:	e3440820 	movt	r0, #18464	; 0x4820
8000c888:	ebfffecf 	bl	0x8000c3cc
8000c88c:	e3a01001 	mov	r1, #1
8000c890:	e3a00048 	mov	r0, #72	; 0x48
8000c894:	e3440820 	movt	r0, #18464	; 0x4820
8000c898:	ebfffecb 	bl	0x8000c3cc
8000c89c:	e52d7004 	push	{r7}		; (str r7, [sp, #-4]!)
8000c8a0:	e10f7000 	mrs	r7, CPSR
8000c8a4:	e387701f 	orr	r7, r7, #31
8000c8a8:	e3c77080 	bic	r7, r7, #128	; 0x80
8000c8ac:	e129f007 	msr	CPSR_fc, r7
8000c8b0:	e92d4000 	stmfd	sp!, {lr}
8000c8b4:	e30e3d40 	movw	r3, #60736	; 0xed40
8000c8b8:	e3483000 	movt	r3, #32768	; 0x8000
8000c8bc:	e51b2014 	ldr	r2, [fp, #-20]	; 0xffffffec
8000c8c0:	e7934102 	ldr	r4, [r3, r2, lsl #2]
8000c8c4:	e30e3f40 	movw	r3, #61248	; 0xef40
8000c8c8:	e3483000 	movt	r3, #32768	; 0x8000
8000c8cc:	e51b2014 	ldr	r2, [fp, #-20]	; 0xffffffec
8000c8d0:	e7933102 	ldr	r3, [r3, r2, lsl #2]
8000c8d4:	e1a02003 	mov	r2, r3
8000c8d8:	e51b1018 	ldr	r1, [fp, #-24]	; 0xffffffe8
8000c8dc:	e51b0014 	ldr	r0, [fp, #-20]	; 0xffffffec
8000c8e0:	e12fff34 	blx	r4
8000c8e4:	e8bd4000 	ldmfd	sp!, {lr}
8000c8e8:	f10e0092 	cpsid	i,#18
8000c8ec:	e49d7004 	pop	{r7}		; (ldr r7, [sp], #4)
8000c8f0:	e51b101c 	ldr	r1, [fp, #-28]	; 0xffffffe4
8000c8f4:	e3a00068 	mov	r0, #104	; 0x68
8000c8f8:	e3440820 	movt	r0, #18464	; 0x4820
8000c8fc:	ebfffeb2 	bl	0x8000c3cc
8000c900:	e320f000 	nop	{0}
8000c904:	e24bd008 	sub	sp, fp, #8
8000c908:	e8bd8810 	pop	{r4, fp, pc}
8000c90c:	e52db004 	push	{fp}		; (str fp, [sp, #-4]!)
8000c910:	e28db000 	add	fp, sp, #0
8000c914:	e24dd014 	sub	sp, sp, #20
8000c918:	e50b0008 	str	r0, [fp, #-8]
8000c91c:	e50b100c 	str	r1, [fp, #-12]
8000c920:	e50b2010 	str	r2, [fp, #-16]
8000c924:	e30f3140 	movw	r3, #61760	; 0xf140
8000c928:	e3483000 	movt	r3, #32768	; 0x8000
8000c92c:	e5933000 	ldr	r3, [r3]
8000c930:	e2832001 	add	r2, r3, #1
8000c934:	e30f3140 	movw	r3, #61760	; 0xf140
8000c938:	e3483000 	movt	r3, #32768	; 0x8000
8000c93c:	e5832000 	str	r2, [r3]
8000c940:	e320f000 	nop	{0}
8000c944:	e28bd000 	add	sp, fp, #0
8000c948:	e49db004 	pop	{fp}		; (ldr fp, [sp], #4)
8000c94c:	e12fff1e 	bx	lr
8000c950:	e52db004 	push	{fp}		; (str fp, [sp, #-4]!)
8000c954:	e28db000 	add	fp, sp, #0
8000c958:	e24dd00c 	sub	sp, sp, #12
8000c95c:	e50b0008 	str	r0, [fp, #-8]
8000c960:	e51b3008 	ldr	r3, [fp, #-8]
8000c964:	e3530000 	cmp	r3, #0
8000c968:	0a00001b 	beq	0x8000c9dc
8000c96c:	e51b3008 	ldr	r3, [fp, #-8]
8000c970:	e3a02000 	mov	r2, #0
8000c974:	e5832000 	str	r2, [r3]
8000c978:	e51b3008 	ldr	r3, [fp, #-8]
8000c97c:	e3e02000 	mvn	r2, #0
8000c980:	e5832004 	str	r2, [r3, #4]
8000c984:	e51b3008 	ldr	r3, [fp, #-8]
8000c988:	e3e02000 	mvn	r2, #0
8000c98c:	e5832008 	str	r2, [r3, #8]
8000c990:	e51b3008 	ldr	r3, [fp, #-8]
8000c994:	e3a02000 	mov	r2, #0
8000c998:	e583200c 	str	r2, [r3, #12]
8000c99c:	e51b3008 	ldr	r3, [fp, #-8]
8000c9a0:	e3a02000 	mov	r2, #0
8000c9a4:	e5832010 	str	r2, [r3, #16]
8000c9a8:	e51b3008 	ldr	r3, [fp, #-8]
8000c9ac:	e3a02020 	mov	r2, #32
8000c9b0:	e5832014 	str	r2, [r3, #20]
8000c9b4:	e51b3008 	ldr	r3, [fp, #-8]
8000c9b8:	e3a02003 	mov	r2, #3
8000c9bc:	e5832018 	str	r2, [r3, #24]
8000c9c0:	e51b3008 	ldr	r3, [fp, #-8]
8000c9c4:	e3a02000 	mov	r2, #0
8000c9c8:	e583201c 	str	r2, [r3, #28]
8000c9cc:	e51b3008 	ldr	r3, [fp, #-8]
8000c9d0:	e3a02000 	mov	r2, #0
8000c9d4:	e5832020 	str	r2, [r3, #32]
8000c9d8:	e320f000 	nop	{0}
8000c9dc:	e320f000 	nop	{0}
8000c9e0:	e28bd000 	add	sp, fp, #0
8000c9e4:	e49db004 	pop	{fp}		; (ldr fp, [sp], #4)
8000c9e8:	e12fff1e 	bx	lr
8000c9ec:	e92d4800 	push	{fp, lr}
8000c9f0:	e28db004 	add	fp, sp, #4
8000c9f4:	e24dd028 	sub	sp, sp, #40	; 0x28
8000c9f8:	e50b0028 	str	r0, [fp, #-40]	; 0xffffffd8
8000c9fc:	e50b102c 	str	r1, [fp, #-44]	; 0xffffffd4
8000ca00:	e3a03000 	mov	r3, #0
8000ca04:	e54b3005 	strb	r3, [fp, #-5]
8000ca08:	e3a03000 	mov	r3, #0
8000ca0c:	e50b300c 	str	r3, [fp, #-12]
8000ca10:	e51b3028 	ldr	r3, [fp, #-40]	; 0xffffffd8
8000ca14:	e593300c 	ldr	r3, [r3, #12]
8000ca18:	e3530000 	cmp	r3, #0
8000ca1c:	0a000003 	beq	0x8000ca30
8000ca20:	e51b3028 	ldr	r3, [fp, #-40]	; 0xffffffd8
8000ca24:	e5933004 	ldr	r3, [r3, #4]
8000ca28:	e3530000 	cmp	r3, #0
8000ca2c:	aa000001 	bge	0x8000ca38
8000ca30:	e3e03000 	mvn	r3, #0
8000ca34:	e54b3005 	strb	r3, [fp, #-5]
8000ca38:	e51b3028 	ldr	r3, [fp, #-40]	; 0xffffffd8
8000ca3c:	e5933000 	ldr	r3, [r3]
8000ca40:	e50b3020 	str	r3, [fp, #-32]	; 0xffffffe0
8000ca44:	e51b3028 	ldr	r3, [fp, #-40]	; 0xffffffd8
8000ca48:	e5933010 	ldr	r3, [r3, #16]
8000ca4c:	e50b301c 	str	r3, [fp, #-28]	; 0xffffffe4
8000ca50:	e51b3028 	ldr	r3, [fp, #-40]	; 0xffffffd8
8000ca54:	e5933014 	ldr	r3, [r3, #20]
8000ca58:	e50b3018 	str	r3, [fp, #-24]	; 0xffffffe8
8000ca5c:	e51b3028 	ldr	r3, [fp, #-40]	; 0xffffffd8
8000ca60:	e5933004 	ldr	r3, [r3, #4]
8000ca64:	e50b3014 	str	r3, [fp, #-20]	; 0xffffffec
8000ca68:	e51b3028 	ldr	r3, [fp, #-40]	; 0xffffffd8
8000ca6c:	e5933018 	ldr	r3, [r3, #24]
8000ca70:	e50b3010 	str	r3, [fp, #-16]
8000ca74:	e51b3028 	ldr	r3, [fp, #-40]	; 0xffffffd8
8000ca78:	e5930008 	ldr	r0, [r3, #8]
8000ca7c:	e51b3028 	ldr	r3, [fp, #-40]	; 0xffffffd8
8000ca80:	e593300c 	ldr	r3, [r3, #12]
8000ca84:	e24b2020 	sub	r2, fp, #32
8000ca88:	e1a01003 	mov	r1, r3
8000ca8c:	ebfffd72 	bl	0x8000c05c
8000ca90:	e50b000c 	str	r0, [fp, #-12]
8000ca94:	e51b300c 	ldr	r3, [fp, #-12]
8000ca98:	e3530000 	cmp	r3, #0
8000ca9c:	1a000002 	bne	0x8000caac
8000caa0:	e3e03001 	mvn	r3, #1
8000caa4:	e54b3005 	strb	r3, [fp, #-5]
8000caa8:	e320f000 	nop	{0}
8000caac:	e51b302c 	ldr	r3, [fp, #-44]	; 0xffffffd4
8000cab0:	e51b200c 	ldr	r2, [fp, #-12]
8000cab4:	e5832000 	str	r2, [r3]
8000cab8:	e15b30d5 	ldrsb	r3, [fp, #-5]
8000cabc:	e1a00003 	mov	r0, r3
8000cac0:	e24bd004 	sub	sp, fp, #4
8000cac4:	e8bd8800 	pop	{fp, pc}
8000cac8:	e92d4800 	push	{fp, lr}
8000cacc:	e28db004 	add	fp, sp, #4
8000cad0:	e24dd010 	sub	sp, sp, #16
8000cad4:	e50b0010 	str	r0, [fp, #-16]
8000cad8:	e50b1014 	str	r1, [fp, #-20]	; 0xffffffec
8000cadc:	e3a03000 	mov	r3, #0
8000cae0:	e54b3006 	strb	r3, [fp, #-6]
8000cae4:	e3a03000 	mov	r3, #0
8000cae8:	e54b3005 	strb	r3, [fp, #-5]
8000caec:	e51b0010 	ldr	r0, [fp, #-16]
8000caf0:	ebfffd80 	bl	0x8000c0f8
8000caf4:	e1a03000 	mov	r3, r0
8000caf8:	e54b3006 	strb	r3, [fp, #-6]
8000cafc:	e15b30d6 	ldrsb	r3, [fp, #-6]
8000cb00:	e3530000 	cmp	r3, #0
8000cb04:	0a000001 	beq	0x8000cb10
8000cb08:	e3e03003 	mvn	r3, #3
8000cb0c:	e54b3005 	strb	r3, [fp, #-5]
8000cb10:	e15b30d5 	ldrsb	r3, [fp, #-5]
8000cb14:	e1a00003 	mov	r0, r3
8000cb18:	e24bd004 	sub	sp, fp, #4
8000cb1c:	e8bd8800 	pop	{fp, pc}
8000cb20:	e92d4800 	push	{fp, lr}
8000cb24:	e28db004 	add	fp, sp, #4
8000cb28:	e24dd008 	sub	sp, sp, #8
8000cb2c:	e50b0008 	str	r0, [fp, #-8]
8000cb30:	e50b100c 	str	r1, [fp, #-12]
8000cb34:	e51b000c 	ldr	r0, [fp, #-12]
8000cb38:	ebfffda3 	bl	0x8000c1cc
8000cb3c:	e320f000 	nop	{0}
8000cb40:	e24bd004 	sub	sp, fp, #4
8000cb44:	e8bd8800 	pop	{fp, pc}
8000cb48:	e92d4800 	push	{fp, lr}
8000cb4c:	e28db004 	add	fp, sp, #4
8000cb50:	e24dd008 	sub	sp, sp, #8
8000cb54:	e50b0008 	str	r0, [fp, #-8]
8000cb58:	e50b100c 	str	r1, [fp, #-12]
8000cb5c:	e51b000c 	ldr	r0, [fp, #-12]
8000cb60:	ebfffd8f 	bl	0x8000c1a4
8000cb64:	e320f000 	nop	{0}
8000cb68:	e24bd004 	sub	sp, fp, #4
8000cb6c:	e8bd8800 	pop	{fp, pc}
8000cb70:	e92d4800 	push	{fp, lr}
8000cb74:	e28db004 	add	fp, sp, #4
8000cb78:	e24dd010 	sub	sp, sp, #16
8000cb7c:	e50b0010 	str	r0, [fp, #-16]
8000cb80:	e50b1014 	str	r1, [fp, #-20]	; 0xffffffec
8000cb84:	e51b3014 	ldr	r3, [fp, #-20]	; 0xffffffec
8000cb88:	e50b3008 	str	r3, [fp, #-8]
8000cb8c:	e51b0008 	ldr	r0, [fp, #-8]
8000cb90:	ebfffd27 	bl	0x8000c034
8000cb94:	e320f000 	nop	{0}
8000cb98:	e24bd004 	sub	sp, fp, #4
8000cb9c:	e8bd8800 	pop	{fp, pc}
8000cba0:	e52db004 	push	{fp}		; (str fp, [sp, #-4]!)
8000cba4:	e28db000 	add	fp, sp, #0
8000cba8:	e24dd00c 	sub	sp, sp, #12
8000cbac:	e320f000 	nop	{0}
8000cbb0:	e28bd000 	add	sp, fp, #0
8000cbb4:	e49db004 	pop	{fp}		; (ldr fp, [sp], #4)
8000cbb8:	e12fff1e 	bx	lr
8000cbbc:	e92d4800 	push	{fp, lr}
8000cbc0:	e28db004 	add	fp, sp, #4
8000cbc4:	e24dd020 	sub	sp, sp, #32
8000cbc8:	e50b0020 	str	r0, [fp, #-32]	; 0xffffffe0
8000cbcc:	e50b1024 	str	r1, [fp, #-36]	; 0xffffffdc
8000cbd0:	ebfffd6d 	bl	0x8000c18c
8000cbd4:	e50b0018 	str	r0, [fp, #-24]	; 0xffffffe8
8000cbd8:	e30e3adc 	movw	r3, #60124	; 0xeadc
8000cbdc:	e3483000 	movt	r3, #32768	; 0x8000
8000cbe0:	e5933010 	ldr	r3, [r3, #16]
8000cbe4:	e3530000 	cmp	r3, #0
8000cbe8:	0a00000d 	beq	0x8000cc24
8000cbec:	e30e3adc 	movw	r3, #60124	; 0xeadc
8000cbf0:	e3483000 	movt	r3, #32768	; 0x8000
8000cbf4:	e5933010 	ldr	r3, [r3, #16]
8000cbf8:	e50b3010 	str	r3, [fp, #-16]
8000cbfc:	e30e3adc 	movw	r3, #60124	; 0xeadc
8000cc00:	e3483000 	movt	r3, #32768	; 0x8000
8000cc04:	e5932014 	ldr	r2, [r3, #20]
8000cc08:	e51b3010 	ldr	r3, [fp, #-16]
8000cc0c:	e0823003 	add	r3, r2, r3
8000cc10:	e50b301c 	str	r3, [fp, #-28]	; 0xffffffe4
8000cc14:	e51b301c 	ldr	r3, [fp, #-28]	; 0xffffffe4
8000cc18:	e1a03223 	lsr	r3, r3, #4
8000cc1c:	e50b3014 	str	r3, [fp, #-20]	; 0xffffffec
8000cc20:	ea000004 	b	0x8000cc38
8000cc24:	e30e399c 	movw	r3, #59804	; 0xe99c
8000cc28:	e3483000 	movt	r3, #32768	; 0x8000
8000cc2c:	e50b3010 	str	r3, [fp, #-16]
8000cc30:	e3a03014 	mov	r3, #20
8000cc34:	e50b3014 	str	r3, [fp, #-20]	; 0xffffffec
8000cc38:	e3a03000 	mov	r3, #0
8000cc3c:	e50b3008 	str	r3, [fp, #-8]
8000cc40:	ea00003d 	b	0x8000cd3c
8000cc44:	e51b3008 	ldr	r3, [fp, #-8]
8000cc48:	e1a03203 	lsl	r3, r3, #4
8000cc4c:	e51b2010 	ldr	r2, [fp, #-16]
8000cc50:	e0823003 	add	r3, r2, r3
8000cc54:	e5d33000 	ldrb	r3, [r3]
8000cc58:	e2233001 	eor	r3, r3, #1
8000cc5c:	e6ef3073 	uxtb	r3, r3
8000cc60:	e3530000 	cmp	r3, #0
8000cc64:	0a000031 	beq	0x8000cd30
8000cc68:	e51b3008 	ldr	r3, [fp, #-8]
8000cc6c:	e1a03203 	lsl	r3, r3, #4
8000cc70:	e51b2010 	ldr	r2, [fp, #-16]
8000cc74:	e0823003 	add	r3, r2, r3
8000cc78:	e3a02001 	mov	r2, #1
8000cc7c:	e5c32000 	strb	r2, [r3]
8000cc80:	e30f3148 	movw	r3, #61768	; 0xf148
8000cc84:	e3483000 	movt	r3, #32768	; 0x8000
8000cc88:	e5933000 	ldr	r3, [r3]
8000cc8c:	e2832001 	add	r2, r3, #1
8000cc90:	e30f3148 	movw	r3, #61768	; 0xf148
8000cc94:	e3483000 	movt	r3, #32768	; 0x8000
8000cc98:	e5832000 	str	r2, [r3]
8000cc9c:	e30f3148 	movw	r3, #61768	; 0xf148
8000cca0:	e3483000 	movt	r3, #32768	; 0x8000
8000cca4:	e5932000 	ldr	r2, [r3]
8000cca8:	e30f314c 	movw	r3, #61772	; 0xf14c
8000ccac:	e3483000 	movt	r3, #32768	; 0x8000
8000ccb0:	e5933000 	ldr	r3, [r3]
8000ccb4:	e1520003 	cmp	r2, r3
8000ccb8:	9a000005 	bls	0x8000ccd4
8000ccbc:	e30f3148 	movw	r3, #61768	; 0xf148
8000ccc0:	e3483000 	movt	r3, #32768	; 0x8000
8000ccc4:	e5932000 	ldr	r2, [r3]
8000ccc8:	e30f314c 	movw	r3, #61772	; 0xf14c
8000cccc:	e3483000 	movt	r3, #32768	; 0x8000
8000ccd0:	e5832000 	str	r2, [r3]
8000ccd4:	e51b3008 	ldr	r3, [fp, #-8]
8000ccd8:	e1a03203 	lsl	r3, r3, #4
8000ccdc:	e51b2010 	ldr	r2, [fp, #-16]
8000cce0:	e0823003 	add	r3, r2, r3
8000cce4:	e51b2008 	ldr	r2, [fp, #-8]
8000cce8:	e5832004 	str	r2, [r3, #4]
8000ccec:	e51b3008 	ldr	r3, [fp, #-8]
8000ccf0:	e1a03203 	lsl	r3, r3, #4
8000ccf4:	e51b2010 	ldr	r2, [fp, #-16]
8000ccf8:	e0823003 	add	r3, r2, r3
8000ccfc:	e51b2020 	ldr	r2, [fp, #-32]	; 0xffffffe0
8000cd00:	e5832008 	str	r2, [r3, #8]
8000cd04:	e51b3024 	ldr	r3, [fp, #-36]	; 0xffffffdc
8000cd08:	e3530000 	cmp	r3, #0
8000cd0c:	0a00000f 	beq	0x8000cd50
8000cd10:	e51b3008 	ldr	r3, [fp, #-8]
8000cd14:	e1a03203 	lsl	r3, r3, #4
8000cd18:	e51b2010 	ldr	r2, [fp, #-16]
8000cd1c:	e0823003 	add	r3, r2, r3
8000cd20:	e51b2024 	ldr	r2, [fp, #-36]	; 0xffffffdc
8000cd24:	e5d22004 	ldrb	r2, [r2, #4]
8000cd28:	e5c3200c 	strb	r2, [r3, #12]
8000cd2c:	ea000007 	b	0x8000cd50
8000cd30:	e51b3008 	ldr	r3, [fp, #-8]
8000cd34:	e2833001 	add	r3, r3, #1
8000cd38:	e50b3008 	str	r3, [fp, #-8]
8000cd3c:	e51b2008 	ldr	r2, [fp, #-8]
8000cd40:	e51b3014 	ldr	r3, [fp, #-20]	; 0xffffffec
8000cd44:	e1520003 	cmp	r2, r3
8000cd48:	3affffbd 	bcc	0x8000cc44
8000cd4c:	ea000000 	b	0x8000cd54
8000cd50:	e320f000 	nop	{0}
8000cd54:	e51b0018 	ldr	r0, [fp, #-24]	; 0xffffffe8
8000cd58:	ebfffd45 	bl	0x8000c274
8000cd5c:	e51b2008 	ldr	r2, [fp, #-8]
8000cd60:	e51b3014 	ldr	r3, [fp, #-20]	; 0xffffffec
8000cd64:	e1520003 	cmp	r2, r3
8000cd68:	1a000002 	bne	0x8000cd78
8000cd6c:	e3a03000 	mov	r3, #0
8000cd70:	e50b300c 	str	r3, [fp, #-12]
8000cd74:	ea000004 	b	0x8000cd8c
8000cd78:	e51b3008 	ldr	r3, [fp, #-8]
8000cd7c:	e1a03203 	lsl	r3, r3, #4
8000cd80:	e51b2010 	ldr	r2, [fp, #-16]
8000cd84:	e0823003 	add	r3, r2, r3
8000cd88:	e50b300c 	str	r3, [fp, #-12]
8000cd8c:	e51b300c 	ldr	r3, [fp, #-12]
8000cd90:	e1a00003 	mov	r0, r3
8000cd94:	e24bd004 	sub	sp, fp, #4
8000cd98:	e8bd8800 	pop	{fp, pc}
8000cd9c:	e92d4800 	push	{fp, lr}
8000cda0:	e28db004 	add	fp, sp, #4
8000cda4:	e24dd010 	sub	sp, sp, #16
8000cda8:	e50b0010 	str	r0, [fp, #-16]
8000cdac:	e51b3010 	ldr	r3, [fp, #-16]
8000cdb0:	e3530000 	cmp	r3, #0
8000cdb4:	03a03001 	moveq	r3, #1
8000cdb8:	13a03000 	movne	r3, #0
8000cdbc:	e6ef3073 	uxtb	r3, r3
8000cdc0:	e3a020a2 	mov	r2, #162	; 0xa2
8000cdc4:	e30e1804 	movw	r1, #59396	; 0xe804
8000cdc8:	e3481000 	movt	r1, #32768	; 0x8000
8000cdcc:	e1a00003 	mov	r0, r3
8000cdd0:	eb0000ac 	bl	0x8000d088
8000cdd4:	e51b3010 	ldr	r3, [fp, #-16]
8000cdd8:	e50b3008 	str	r3, [fp, #-8]
8000cddc:	ebfffcea 	bl	0x8000c18c
8000cde0:	e50b000c 	str	r0, [fp, #-12]
8000cde4:	e51b3008 	ldr	r3, [fp, #-8]
8000cde8:	e3a02000 	mov	r2, #0
8000cdec:	e5c32000 	strb	r2, [r3]
8000cdf0:	e30f3148 	movw	r3, #61768	; 0xf148
8000cdf4:	e3483000 	movt	r3, #32768	; 0x8000
8000cdf8:	e5933000 	ldr	r3, [r3]
8000cdfc:	e3530000 	cmp	r3, #0
8000ce00:	0a000006 	beq	0x8000ce20
8000ce04:	e30f3148 	movw	r3, #61768	; 0xf148
8000ce08:	e3483000 	movt	r3, #32768	; 0x8000
8000ce0c:	e5933000 	ldr	r3, [r3]
8000ce10:	e2432001 	sub	r2, r3, #1
8000ce14:	e30f3148 	movw	r3, #61768	; 0xf148
8000ce18:	e3483000 	movt	r3, #32768	; 0x8000
8000ce1c:	e5832000 	str	r2, [r3]
8000ce20:	e51b000c 	ldr	r0, [fp, #-12]
8000ce24:	ebfffd12 	bl	0x8000c274
8000ce28:	e3a03000 	mov	r3, #0
8000ce2c:	e1a00003 	mov	r0, r3
8000ce30:	e24bd004 	sub	sp, fp, #4
8000ce34:	e8bd8800 	pop	{fp, pc}
8000ce38:	e92d4800 	push	{fp, lr}
8000ce3c:	e28db004 	add	fp, sp, #4
8000ce40:	e24dd008 	sub	sp, sp, #8
8000ce44:	e50b0008 	str	r0, [fp, #-8]
8000ce48:	e51b3008 	ldr	r3, [fp, #-8]
8000ce4c:	e3530000 	cmp	r3, #0
8000ce50:	03a03001 	moveq	r3, #1
8000ce54:	13a03000 	movne	r3, #0
8000ce58:	e6ef3073 	uxtb	r3, r3
8000ce5c:	e3a020b8 	mov	r2, #184	; 0xb8
8000ce60:	e30e1804 	movw	r1, #59396	; 0xe804
8000ce64:	e3481000 	movt	r1, #32768	; 0x8000
8000ce68:	e1a00003 	mov	r0, r3
8000ce6c:	eb000085 	bl	0x8000d088
8000ce70:	e51b3008 	ldr	r3, [fp, #-8]
8000ce74:	e3a02000 	mov	r2, #0
8000ce78:	e5c32004 	strb	r2, [r3, #4]
8000ce7c:	e51b3008 	ldr	r3, [fp, #-8]
8000ce80:	e3a02000 	mov	r2, #0
8000ce84:	e5832000 	str	r2, [r3]
8000ce88:	e320f000 	nop	{0}
8000ce8c:	e24bd004 	sub	sp, fp, #4
8000ce90:	e8bd8800 	pop	{fp, pc}
8000ce94:	e92d4800 	push	{fp, lr}
8000ce98:	e28db004 	add	fp, sp, #4
8000ce9c:	e24dd018 	sub	sp, sp, #24
8000cea0:	e50b0018 	str	r0, [fp, #-24]	; 0xffffffe8
8000cea4:	e50b101c 	str	r1, [fp, #-28]	; 0xffffffe4
8000cea8:	e51b3018 	ldr	r3, [fp, #-24]	; 0xffffffe8
8000ceac:	e3530000 	cmp	r3, #0
8000ceb0:	03a03001 	moveq	r3, #1
8000ceb4:	13a03000 	movne	r3, #0
8000ceb8:	e6ef3073 	uxtb	r3, r3
8000cebc:	e3a020c2 	mov	r2, #194	; 0xc2
8000cec0:	e30e1804 	movw	r1, #59396	; 0xe804
8000cec4:	e3481000 	movt	r1, #32768	; 0x8000
8000cec8:	e1a00003 	mov	r0, r3
8000cecc:	eb00006d 	bl	0x8000d088
8000ced0:	e51b3018 	ldr	r3, [fp, #-24]	; 0xffffffe8
8000ced4:	e50b3010 	str	r3, [fp, #-16]
8000ced8:	e51b301c 	ldr	r3, [fp, #-28]	; 0xffffffe4
8000cedc:	e50b3008 	str	r3, [fp, #-8]
8000cee0:	e3a03000 	mov	r3, #0
8000cee4:	e54b3009 	strb	r3, [fp, #-9]
8000cee8:	ea000025 	b	0x8000cf84
8000ceec:	ebfffca6 	bl	0x8000c18c
8000cef0:	e50b0014 	str	r0, [fp, #-20]	; 0xffffffec
8000cef4:	e51b3010 	ldr	r3, [fp, #-16]
8000cef8:	e5933008 	ldr	r3, [r3, #8]
8000cefc:	e3530000 	cmp	r3, #0
8000cf00:	0a00000f 	beq	0x8000cf44
8000cf04:	e51b3010 	ldr	r3, [fp, #-16]
8000cf08:	e5d3300c 	ldrb	r3, [r3, #12]
8000cf0c:	e3530001 	cmp	r3, #1
8000cf10:	1a000003 	bne	0x8000cf24
8000cf14:	e51b3010 	ldr	r3, [fp, #-16]
8000cf18:	e3a02000 	mov	r2, #0
8000cf1c:	e5832008 	str	r2, [r3, #8]
8000cf20:	ea000004 	b	0x8000cf38
8000cf24:	e51b3010 	ldr	r3, [fp, #-16]
8000cf28:	e5933008 	ldr	r3, [r3, #8]
8000cf2c:	e2432001 	sub	r2, r3, #1
8000cf30:	e51b3010 	ldr	r3, [fp, #-16]
8000cf34:	e5832008 	str	r2, [r3, #8]
8000cf38:	e51b0014 	ldr	r0, [fp, #-20]	; 0xffffffec
8000cf3c:	ebfffccc 	bl	0x8000c274
8000cf40:	ea000012 	b	0x8000cf90
8000cf44:	e51b0014 	ldr	r0, [fp, #-20]	; 0xffffffec
8000cf48:	ebfffcc9 	bl	0x8000c274
8000cf4c:	e51b3008 	ldr	r3, [fp, #-8]
8000cf50:	e3530000 	cmp	r3, #0
8000cf54:	1a000002 	bne	0x8000cf64
8000cf58:	e3e03001 	mvn	r3, #1
8000cf5c:	e54b3009 	strb	r3, [fp, #-9]
8000cf60:	ea00000a 	b	0x8000cf90
8000cf64:	e51b3008 	ldr	r3, [fp, #-8]
8000cf68:	e3730001 	cmn	r3, #1
8000cf6c:	0a000004 	beq	0x8000cf84
8000cf70:	e3a00001 	mov	r0, #1
8000cf74:	eb000271 	bl	0x8000d940
8000cf78:	e51b3008 	ldr	r3, [fp, #-8]
8000cf7c:	e2433001 	sub	r3, r3, #1
8000cf80:	e50b3008 	str	r3, [fp, #-8]
8000cf84:	e15b30d9 	ldrsb	r3, [fp, #-9]
8000cf88:	e3530000 	cmp	r3, #0
8000cf8c:	0affffd6 	beq	0x8000ceec
8000cf90:	e15b30d9 	ldrsb	r3, [fp, #-9]
8000cf94:	e1a00003 	mov	r0, r3
8000cf98:	e24bd004 	sub	sp, fp, #4
8000cf9c:	e8bd8800 	pop	{fp, pc}
8000cfa0:	e92d4800 	push	{fp, lr}
8000cfa4:	e28db004 	add	fp, sp, #4
8000cfa8:	e24dd010 	sub	sp, sp, #16
8000cfac:	e50b0010 	str	r0, [fp, #-16]
8000cfb0:	e51b3010 	ldr	r3, [fp, #-16]
8000cfb4:	e3530000 	cmp	r3, #0
8000cfb8:	03a03001 	moveq	r3, #1
8000cfbc:	13a03000 	movne	r3, #0
8000cfc0:	e6ef3073 	uxtb	r3, r3
8000cfc4:	e3a020f5 	mov	r2, #245	; 0xf5
8000cfc8:	e30e1804 	movw	r1, #59396	; 0xe804
8000cfcc:	e3481000 	movt	r1, #32768	; 0x8000
8000cfd0:	e1a00003 	mov	r0, r3
8000cfd4:	eb00002b 	bl	0x8000d088
8000cfd8:	e51b3010 	ldr	r3, [fp, #-16]
8000cfdc:	e50b3008 	str	r3, [fp, #-8]
8000cfe0:	ebfffc69 	bl	0x8000c18c
8000cfe4:	e50b000c 	str	r0, [fp, #-12]
8000cfe8:	e51b3008 	ldr	r3, [fp, #-8]
8000cfec:	e5d3300c 	ldrb	r3, [r3, #12]
8000cff0:	e3530001 	cmp	r3, #1
8000cff4:	1a000003 	bne	0x8000d008
8000cff8:	e51b3008 	ldr	r3, [fp, #-8]
8000cffc:	e3a02001 	mov	r2, #1
8000d000:	e5832008 	str	r2, [r3, #8]
8000d004:	ea000004 	b	0x8000d01c
8000d008:	e51b3008 	ldr	r3, [fp, #-8]
8000d00c:	e5933008 	ldr	r3, [r3, #8]
8000d010:	e2832001 	add	r2, r3, #1
8000d014:	e51b3008 	ldr	r3, [fp, #-8]
8000d018:	e5832008 	str	r2, [r3, #8]
8000d01c:	e51b000c 	ldr	r0, [fp, #-12]
8000d020:	ebfffc93 	bl	0x8000c274
8000d024:	e3a03000 	mov	r3, #0
8000d028:	e1a00003 	mov	r0, r3
8000d02c:	e24bd004 	sub	sp, fp, #4
8000d030:	e8bd8800 	pop	{fp, pc}
8000d034:	e92d4800 	push	{fp, lr}
8000d038:	e28db004 	add	fp, sp, #4
8000d03c:	e24dd010 	sub	sp, sp, #16
8000d040:	e50b0010 	str	r0, [fp, #-16]
8000d044:	e51b3010 	ldr	r3, [fp, #-16]
8000d048:	e3530000 	cmp	r3, #0
8000d04c:	03a03001 	moveq	r3, #1
8000d050:	13a03000 	movne	r3, #0
8000d054:	e6ef3073 	uxtb	r3, r3
8000d058:	e300210e 	movw	r2, #270	; 0x10e
8000d05c:	e30e1804 	movw	r1, #59396	; 0xe804
8000d060:	e3481000 	movt	r1, #32768	; 0x8000
8000d064:	e1a00003 	mov	r0, r3
8000d068:	eb000006 	bl	0x8000d088
8000d06c:	e51b3010 	ldr	r3, [fp, #-16]
8000d070:	e50b3008 	str	r3, [fp, #-8]
8000d074:	e51b3008 	ldr	r3, [fp, #-8]
8000d078:	e5933008 	ldr	r3, [r3, #8]
8000d07c:	e1a00003 	mov	r0, r3
8000d080:	e24bd004 	sub	sp, fp, #4
8000d084:	e8bd8800 	pop	{fp, pc}
8000d088:	e52db004 	push	{fp}		; (str fp, [sp, #-4]!)
8000d08c:	e28db000 	add	fp, sp, #0
8000d090:	e24dd014 	sub	sp, sp, #20
8000d094:	e50b0008 	str	r0, [fp, #-8]
8000d098:	e50b100c 	str	r1, [fp, #-12]
8000d09c:	e50b2010 	str	r2, [fp, #-16]
8000d0a0:	e51b3008 	ldr	r3, [fp, #-8]
8000d0a4:	e3530000 	cmp	r3, #0
8000d0a8:	0a000000 	beq	0x8000d0b0
8000d0ac:	eafffffe 	b	0x8000d0ac
8000d0b0:	e320f000 	nop	{0}
8000d0b4:	e28bd000 	add	sp, fp, #0
8000d0b8:	e49db004 	pop	{fp}		; (ldr fp, [sp], #4)
8000d0bc:	e12fff1e 	bx	lr
8000d0c0:	e52db004 	push	{fp}		; (str fp, [sp, #-4]!)
8000d0c4:	e28db000 	add	fp, sp, #0
8000d0c8:	e3a03003 	mov	r3, #3
8000d0cc:	e1a00003 	mov	r0, r3
8000d0d0:	e28bd000 	add	sp, fp, #0
8000d0d4:	e49db004 	pop	{fp}		; (ldr fp, [sp], #4)
8000d0d8:	e12fff1e 	bx	lr
8000d0dc:	e92d4800 	push	{fp, lr}
8000d0e0:	e28db004 	add	fp, sp, #4
8000d0e4:	e24dd010 	sub	sp, sp, #16
8000d0e8:	e50b0010 	str	r0, [fp, #-16]
8000d0ec:	e50b1014 	str	r1, [fp, #-20]	; 0xffffffec
8000d0f0:	e3e03000 	mvn	r3, #0
8000d0f4:	e50b3008 	str	r3, [fp, #-8]
8000d0f8:	e51b3014 	ldr	r3, [fp, #-20]	; 0xffffffec
8000d0fc:	e3530000 	cmp	r3, #0
8000d100:	0a00004e 	beq	0x8000d240
8000d104:	e51b3010 	ldr	r3, [fp, #-16]
8000d108:	e2033001 	and	r3, r3, #1
8000d10c:	e3530000 	cmp	r3, #0
8000d110:	0a000006 	beq	0x8000d130
8000d114:	e51b3014 	ldr	r3, [fp, #-20]	; 0xffffffec
8000d118:	e5932004 	ldr	r2, [r3, #4]
8000d11c:	e30e3adc 	movw	r3, #60124	; 0xeadc
8000d120:	e3483000 	movt	r3, #32768	; 0x8000
8000d124:	e5832004 	str	r2, [r3, #4]
8000d128:	e3a03000 	mov	r3, #0
8000d12c:	e50b3008 	str	r3, [fp, #-8]
8000d130:	e51b3010 	ldr	r3, [fp, #-16]
8000d134:	e2033004 	and	r3, r3, #4
8000d138:	e3530000 	cmp	r3, #0
8000d13c:	0a000006 	beq	0x8000d15c
8000d140:	e51b3014 	ldr	r3, [fp, #-20]	; 0xffffffec
8000d144:	e5d32008 	ldrb	r2, [r3, #8]
8000d148:	e30e3adc 	movw	r3, #60124	; 0xeadc
8000d14c:	e3483000 	movt	r3, #32768	; 0x8000
8000d150:	e5c32008 	strb	r2, [r3, #8]
8000d154:	e3a03000 	mov	r3, #0
8000d158:	e50b3008 	str	r3, [fp, #-8]
8000d15c:	e51b3010 	ldr	r3, [fp, #-16]
8000d160:	e2033008 	and	r3, r3, #8
8000d164:	e3530000 	cmp	r3, #0
8000d168:	0a000006 	beq	0x8000d188
8000d16c:	e51b3014 	ldr	r3, [fp, #-20]	; 0xffffffec
8000d170:	e593200c 	ldr	r2, [r3, #12]
8000d174:	e30e3adc 	movw	r3, #60124	; 0xeadc
8000d178:	e3483000 	movt	r3, #32768	; 0x8000
8000d17c:	e583200c 	str	r2, [r3, #12]
8000d180:	e3a03000 	mov	r3, #0
8000d184:	e50b3008 	str	r3, [fp, #-8]
8000d188:	e51b3010 	ldr	r3, [fp, #-16]
8000d18c:	e2033010 	and	r3, r3, #16
8000d190:	e3530000 	cmp	r3, #0
8000d194:	0a000012 	beq	0x8000d1e4
8000d198:	e30e3adc 	movw	r3, #60124	; 0xeadc
8000d19c:	e3483000 	movt	r3, #32768	; 0x8000
8000d1a0:	e51b2014 	ldr	r2, [fp, #-20]	; 0xffffffec
8000d1a4:	e2833010 	add	r3, r3, #16
8000d1a8:	e2822010 	add	r2, r2, #16
8000d1ac:	e8920003 	ldm	r2, {r0, r1}
8000d1b0:	e8830003 	stm	r3, {r0, r1}
8000d1b4:	e30e3adc 	movw	r3, #60124	; 0xeadc
8000d1b8:	e3483000 	movt	r3, #32768	; 0x8000
8000d1bc:	e5933010 	ldr	r3, [r3, #16]
8000d1c0:	e1a00003 	mov	r0, r3
8000d1c4:	e30e3adc 	movw	r3, #60124	; 0xeadc
8000d1c8:	e3483000 	movt	r3, #32768	; 0x8000
8000d1cc:	e5933014 	ldr	r3, [r3, #20]
8000d1d0:	e1a02003 	mov	r2, r3
8000d1d4:	e3a01000 	mov	r1, #0
8000d1d8:	ebfffb8e 	bl	0x8000c018
8000d1dc:	e3a03000 	mov	r3, #0
8000d1e0:	e50b3008 	str	r3, [fp, #-8]
8000d1e4:	e51b3010 	ldr	r3, [fp, #-16]
8000d1e8:	e2033020 	and	r3, r3, #32
8000d1ec:	e3530000 	cmp	r3, #0
8000d1f0:	0a000012 	beq	0x8000d240
8000d1f4:	e30e3adc 	movw	r3, #60124	; 0xeadc
8000d1f8:	e3483000 	movt	r3, #32768	; 0x8000
8000d1fc:	e51b2014 	ldr	r2, [fp, #-20]	; 0xffffffec
8000d200:	e2833018 	add	r3, r3, #24
8000d204:	e2822018 	add	r2, r2, #24
8000d208:	e8920003 	ldm	r2, {r0, r1}
8000d20c:	e8830003 	stm	r3, {r0, r1}
8000d210:	e30e3adc 	movw	r3, #60124	; 0xeadc
8000d214:	e3483000 	movt	r3, #32768	; 0x8000
8000d218:	e5933018 	ldr	r3, [r3, #24]
8000d21c:	e1a00003 	mov	r0, r3
8000d220:	e30e3adc 	movw	r3, #60124	; 0xeadc
8000d224:	e3483000 	movt	r3, #32768	; 0x8000
8000d228:	e593301c 	ldr	r3, [r3, #28]
8000d22c:	e1a02003 	mov	r2, r3
8000d230:	e3a01000 	mov	r1, #0
8000d234:	ebfffb77 	bl	0x8000c018
8000d238:	e3a03000 	mov	r3, #0
8000d23c:	e50b3008 	str	r3, [fp, #-8]
8000d240:	e51b3008 	ldr	r3, [fp, #-8]
8000d244:	e1a00003 	mov	r0, r3
8000d248:	e24bd004 	sub	sp, fp, #4
8000d24c:	e8bd8800 	pop	{fp, pc}
8000d250:	e92d4800 	push	{fp, lr}
8000d254:	e28db004 	add	fp, sp, #4
8000d258:	e24dd010 	sub	sp, sp, #16
8000d25c:	e50b0010 	str	r0, [fp, #-16]
8000d260:	e3e03000 	mvn	r3, #0
8000d264:	e50b3008 	str	r3, [fp, #-8]
8000d268:	e51b3010 	ldr	r3, [fp, #-16]
8000d26c:	e3530000 	cmp	r3, #0
8000d270:	0a000006 	beq	0x8000d290
8000d274:	e3a02020 	mov	r2, #32
8000d278:	e30e1adc 	movw	r1, #60124	; 0xeadc
8000d27c:	e3481000 	movt	r1, #32768	; 0x8000
8000d280:	e51b0010 	ldr	r0, [fp, #-16]
8000d284:	ebfffb5b 	bl	0x8000bff8
8000d288:	e3a03000 	mov	r3, #0
8000d28c:	e50b3008 	str	r3, [fp, #-8]
8000d290:	e51b3008 	ldr	r3, [fp, #-8]
8000d294:	e1a00003 	mov	r0, r3
8000d298:	e24bd004 	sub	sp, fp, #4
8000d29c:	e8bd8800 	pop	{fp, pc}
8000d2a0:	e92d4800 	push	{fp, lr}
8000d2a4:	e28db004 	add	fp, sp, #4
8000d2a8:	e24dd010 	sub	sp, sp, #16
8000d2ac:	e50b0010 	str	r0, [fp, #-16]
8000d2b0:	e3a03000 	mov	r3, #0
8000d2b4:	e50b3008 	str	r3, [fp, #-8]
8000d2b8:	e51b3010 	ldr	r3, [fp, #-16]
8000d2bc:	e3530000 	cmp	r3, #0
8000d2c0:	0a000034 	beq	0x8000d398
8000d2c4:	ebfffbb0 	bl	0x8000c18c
8000d2c8:	e50b000c 	str	r0, [fp, #-12]
8000d2cc:	e30f314c 	movw	r3, #61772	; 0xf14c
8000d2d0:	e3483000 	movt	r3, #32768	; 0x8000
8000d2d4:	e5932000 	ldr	r2, [r3]
8000d2d8:	e51b3010 	ldr	r3, [fp, #-16]
8000d2dc:	e5832000 	str	r2, [r3]
8000d2e0:	e51b3010 	ldr	r3, [fp, #-16]
8000d2e4:	e3a02014 	mov	r2, #20
8000d2e8:	e5832004 	str	r2, [r3, #4]
8000d2ec:	e51b3010 	ldr	r3, [fp, #-16]
8000d2f0:	e5932004 	ldr	r2, [r3, #4]
8000d2f4:	e30f3148 	movw	r3, #61768	; 0xf148
8000d2f8:	e3483000 	movt	r3, #32768	; 0x8000
8000d2fc:	e5933000 	ldr	r3, [r3]
8000d300:	e0422003 	sub	r2, r2, r3
8000d304:	e51b3010 	ldr	r3, [fp, #-16]
8000d308:	e5832008 	str	r2, [r3, #8]
8000d30c:	e30f3154 	movw	r3, #61780	; 0xf154
8000d310:	e3483000 	movt	r3, #32768	; 0x8000
8000d314:	e5932000 	ldr	r2, [r3]
8000d318:	e51b3010 	ldr	r3, [fp, #-16]
8000d31c:	e583200c 	str	r2, [r3, #12]
8000d320:	e51b3010 	ldr	r3, [fp, #-16]
8000d324:	e3a02006 	mov	r2, #6
8000d328:	e5832010 	str	r2, [r3, #16]
8000d32c:	e51b3010 	ldr	r3, [fp, #-16]
8000d330:	e5932010 	ldr	r2, [r3, #16]
8000d334:	e30f3150 	movw	r3, #61776	; 0xf150
8000d338:	e3483000 	movt	r3, #32768	; 0x8000
8000d33c:	e5933000 	ldr	r3, [r3]
8000d340:	e0422003 	sub	r2, r2, r3
8000d344:	e51b3010 	ldr	r3, [fp, #-16]
8000d348:	e5832014 	str	r2, [r3, #20]
8000d34c:	e30f315c 	movw	r3, #61788	; 0xf15c
8000d350:	e3483000 	movt	r3, #32768	; 0x8000
8000d354:	e5932000 	ldr	r2, [r3]
8000d358:	e51b3010 	ldr	r3, [fp, #-16]
8000d35c:	e5832018 	str	r2, [r3, #24]
8000d360:	e51b3010 	ldr	r3, [fp, #-16]
8000d364:	e3a0200a 	mov	r2, #10
8000d368:	e583201c 	str	r2, [r3, #28]
8000d36c:	e51b3010 	ldr	r3, [fp, #-16]
8000d370:	e593201c 	ldr	r2, [r3, #28]
8000d374:	e30f3158 	movw	r3, #61784	; 0xf158
8000d378:	e3483000 	movt	r3, #32768	; 0x8000
8000d37c:	e5933000 	ldr	r3, [r3]
8000d380:	e0422003 	sub	r2, r2, r3
8000d384:	e51b3010 	ldr	r3, [fp, #-16]
8000d388:	e5832020 	str	r2, [r3, #32]
8000d38c:	e51b000c 	ldr	r0, [fp, #-12]
8000d390:	ebfffbb7 	bl	0x8000c274
8000d394:	ea000001 	b	0x8000d3a0
8000d398:	e3e03000 	mvn	r3, #0
8000d39c:	e50b3008 	str	r3, [fp, #-8]
8000d3a0:	e51b3008 	ldr	r3, [fp, #-8]
8000d3a4:	e1a00003 	mov	r0, r3
8000d3a8:	e24bd004 	sub	sp, fp, #4
8000d3ac:	e8bd8800 	pop	{fp, pc}
8000d3b0:	e52db004 	push	{fp}		; (str fp, [sp, #-4]!)
8000d3b4:	e28db000 	add	fp, sp, #0
8000d3b8:	e24dd00c 	sub	sp, sp, #12
8000d3bc:	e320f000 	nop	{0}
8000d3c0:	e28bd000 	add	sp, fp, #0
8000d3c4:	e49db004 	pop	{fp}		; (ldr fp, [sp], #4)
8000d3c8:	e12fff1e 	bx	lr
8000d3cc:	e92d4800 	push	{fp, lr}
8000d3d0:	e28db004 	add	fp, sp, #4
8000d3d4:	e24dd018 	sub	sp, sp, #24
8000d3d8:	e50b0010 	str	r0, [fp, #-16]
8000d3dc:	e50b1014 	str	r1, [fp, #-20]	; 0xffffffec
8000d3e0:	e50b2018 	str	r2, [fp, #-24]	; 0xffffffe8
8000d3e4:	e51b3018 	ldr	r3, [fp, #-24]	; 0xffffffe8
8000d3e8:	e50b3008 	str	r3, [fp, #-8]
8000d3ec:	e51b3008 	ldr	r3, [fp, #-8]
8000d3f0:	e5933004 	ldr	r3, [r3, #4]
8000d3f4:	e51b2008 	ldr	r2, [fp, #-8]
8000d3f8:	e5922008 	ldr	r2, [r2, #8]
8000d3fc:	e1a00002 	mov	r0, r2
8000d400:	e12fff33 	blx	r3
8000d404:	e320f000 	nop	{0}
8000d408:	e24bd004 	sub	sp, fp, #4
8000d40c:	e8bd8800 	pop	{fp, pc}
8000d410:	e52db004 	push	{fp}		; (str fp, [sp, #-4]!)
8000d414:	e28db000 	add	fp, sp, #0
8000d418:	e24dd00c 	sub	sp, sp, #12
8000d41c:	e50b0008 	str	r0, [fp, #-8]
8000d420:	e3a03000 	mov	r3, #0
8000d424:	e1a00003 	mov	r0, r3
8000d428:	e28bd000 	add	sp, fp, #0
8000d42c:	e49db004 	pop	{fp}		; (ldr fp, [sp], #4)
8000d430:	e12fff1e 	bx	lr
8000d434:	e92d4800 	push	{fp, lr}
8000d438:	e28db004 	add	fp, sp, #4
8000d43c:	e24dd008 	sub	sp, sp, #8
8000d440:	e50b0008 	str	r0, [fp, #-8]
8000d444:	e51b0008 	ldr	r0, [fp, #-8]
8000d448:	ebfffc63 	bl	0x8000c5dc
8000d44c:	e320f000 	nop	{0}
8000d450:	e24bd004 	sub	sp, fp, #4
8000d454:	e8bd8800 	pop	{fp, pc}
8000d458:	e92d4800 	push	{fp, lr}
8000d45c:	e28db004 	add	fp, sp, #4
8000d460:	e24dd008 	sub	sp, sp, #8
8000d464:	e50b0008 	str	r0, [fp, #-8]
8000d468:	e51b0008 	ldr	r0, [fp, #-8]
8000d46c:	ebfffc78 	bl	0x8000c654
8000d470:	e320f000 	nop	{0}
8000d474:	e24bd004 	sub	sp, fp, #4
8000d478:	e8bd8800 	pop	{fp, pc}
8000d47c:	e92d4800 	push	{fp, lr}
8000d480:	e28db004 	add	fp, sp, #4
8000d484:	e24dd008 	sub	sp, sp, #8
8000d488:	e50b0008 	str	r0, [fp, #-8]
8000d48c:	e51b0008 	ldr	r0, [fp, #-8]
8000d490:	ebfffcab 	bl	0x8000c744
8000d494:	e320f000 	nop	{0}
8000d498:	e24bd004 	sub	sp, fp, #4
8000d49c:	e8bd8800 	pop	{fp, pc}
8000d4a0:	e92d4800 	push	{fp, lr}
8000d4a4:	e28db004 	add	fp, sp, #4
8000d4a8:	ebfffc9f 	bl	0x8000c72c
8000d4ac:	e1a03000 	mov	r3, r0
8000d4b0:	e1a00003 	mov	r0, r3
8000d4b4:	e8bd8800 	pop	{fp, pc}
8000d4b8:	e92d4800 	push	{fp, lr}
8000d4bc:	e28db004 	add	fp, sp, #4
8000d4c0:	e24dd008 	sub	sp, sp, #8
8000d4c4:	e50b0008 	str	r0, [fp, #-8]
8000d4c8:	e51b0008 	ldr	r0, [fp, #-8]
8000d4cc:	ebfffc7e 	bl	0x8000c6cc
8000d4d0:	e320f000 	nop	{0}
8000d4d4:	e24bd004 	sub	sp, fp, #4
8000d4d8:	e8bd8800 	pop	{fp, pc}
8000d4dc:	e92d4800 	push	{fp, lr}
8000d4e0:	e28db004 	add	fp, sp, #4
8000d4e4:	e24dd040 	sub	sp, sp, #64	; 0x40
8000d4e8:	e50b0038 	str	r0, [fp, #-56]	; 0xffffffc8
8000d4ec:	e50b103c 	str	r1, [fp, #-60]	; 0xffffffc4
8000d4f0:	e50b2040 	str	r2, [fp, #-64]	; 0xffffffc0
8000d4f4:	e3a03000 	mov	r3, #0
8000d4f8:	e50b3008 	str	r3, [fp, #-8]
8000d4fc:	e30e3adc 	movw	r3, #60124	; 0xeadc
8000d500:	e3483000 	movt	r3, #32768	; 0x8000
8000d504:	e5933018 	ldr	r3, [r3, #24]
8000d508:	e3530000 	cmp	r3, #0
8000d50c:	0a000010 	beq	0x8000d554
8000d510:	e30e3adc 	movw	r3, #60124	; 0xeadc
8000d514:	e3483000 	movt	r3, #32768	; 0x8000
8000d518:	e5933018 	ldr	r3, [r3, #24]
8000d51c:	e50b3010 	str	r3, [fp, #-16]
8000d520:	e30e3adc 	movw	r3, #60124	; 0xeadc
8000d524:	e3483000 	movt	r3, #32768	; 0x8000
8000d528:	e593201c 	ldr	r2, [r3, #28]
8000d52c:	e51b3010 	ldr	r3, [fp, #-16]
8000d530:	e0823003 	add	r3, r2, r3
8000d534:	e50b301c 	str	r3, [fp, #-28]	; 0xffffffe4
8000d538:	e51b201c 	ldr	r2, [fp, #-28]	; 0xffffffe4
8000d53c:	e30a3aab 	movw	r3, #43691	; 0xaaab
8000d540:	e34a3aaa 	movt	r3, #43690	; 0xaaaa
8000d544:	e0832392 	umull	r2, r3, r2, r3
8000d548:	e1a031a3 	lsr	r3, r3, #3
8000d54c:	e50b3014 	str	r3, [fp, #-20]	; 0xffffffec
8000d550:	ea000004 	b	0x8000d568
8000d554:	e30f3160 	movw	r3, #61792	; 0xf160
8000d558:	e3483000 	movt	r3, #32768	; 0x8000
8000d55c:	e50b3010 	str	r3, [fp, #-16]
8000d560:	e3a0300a 	mov	r3, #10
8000d564:	e50b3014 	str	r3, [fp, #-20]	; 0xffffffec
8000d568:	e51b3040 	ldr	r3, [fp, #-64]	; 0xffffffc0
8000d56c:	e3530000 	cmp	r3, #0
8000d570:	1a000001 	bne	0x8000d57c
8000d574:	e3a03000 	mov	r3, #0
8000d578:	ea000069 	b	0x8000d724
8000d57c:	ebffffc7 	bl	0x8000d4a0
8000d580:	e50b0020 	str	r0, [fp, #-32]	; 0xffffffe0
8000d584:	e3a03000 	mov	r3, #0
8000d588:	e50b300c 	str	r3, [fp, #-12]
8000d58c:	ea000010 	b	0x8000d5d4
8000d590:	e51b300c 	ldr	r3, [fp, #-12]
8000d594:	e1a03203 	lsl	r3, r3, #4
8000d598:	e51b2010 	ldr	r2, [fp, #-16]
8000d59c:	e0823003 	add	r3, r2, r3
8000d5a0:	e1d330b0 	ldrh	r3, [r3]
8000d5a4:	e3530000 	cmp	r3, #0
8000d5a8:	1a000006 	bne	0x8000d5c8
8000d5ac:	e51b300c 	ldr	r3, [fp, #-12]
8000d5b0:	e1a03203 	lsl	r3, r3, #4
8000d5b4:	e51b2010 	ldr	r2, [fp, #-16]
8000d5b8:	e0823003 	add	r3, r2, r3
8000d5bc:	e3a02001 	mov	r2, #1
8000d5c0:	e1c320b0 	strh	r2, [r3]
8000d5c4:	ea000006 	b	0x8000d5e4
8000d5c8:	e51b300c 	ldr	r3, [fp, #-12]
8000d5cc:	e2833001 	add	r3, r3, #1
8000d5d0:	e50b300c 	str	r3, [fp, #-12]
8000d5d4:	e51b200c 	ldr	r2, [fp, #-12]
8000d5d8:	e51b3014 	ldr	r3, [fp, #-20]	; 0xffffffec
8000d5dc:	e1520003 	cmp	r2, r3
8000d5e0:	3affffea 	bcc	0x8000d590
8000d5e4:	e51b0020 	ldr	r0, [fp, #-32]	; 0xffffffe0
8000d5e8:	ebffffb2 	bl	0x8000d4b8
8000d5ec:	e51b200c 	ldr	r2, [fp, #-12]
8000d5f0:	e51b3014 	ldr	r3, [fp, #-20]	; 0xffffffec
8000d5f4:	e1520003 	cmp	r2, r3
8000d5f8:	0a00000b 	beq	0x8000d62c
8000d5fc:	e51b300c 	ldr	r3, [fp, #-12]
8000d600:	e1a03203 	lsl	r3, r3, #4
8000d604:	e51b2010 	ldr	r2, [fp, #-16]
8000d608:	e0823003 	add	r3, r2, r3
8000d60c:	e2833004 	add	r3, r3, #4
8000d610:	e50b3008 	str	r3, [fp, #-8]
8000d614:	e51b300c 	ldr	r3, [fp, #-12]
8000d618:	e1a03203 	lsl	r3, r3, #4
8000d61c:	e51b2010 	ldr	r2, [fp, #-16]
8000d620:	e0823003 	add	r3, r2, r3
8000d624:	e50b3018 	str	r3, [fp, #-24]	; 0xffffffe8
8000d628:	ea000001 	b	0x8000d634
8000d62c:	e3a03000 	mov	r3, #0
8000d630:	e50b3018 	str	r3, [fp, #-24]	; 0xffffffe8
8000d634:	e3a00000 	mov	r0, #0
8000d638:	ebfffb6f 	bl	0x8000c3fc
8000d63c:	e51b3040 	ldr	r3, [fp, #-64]	; 0xffffffc0
8000d640:	e5933010 	ldr	r3, [r3, #16]
8000d644:	e2433002 	sub	r3, r3, #2
8000d648:	e3530004 	cmp	r3, #4
8000d64c:	979ff103 	ldrls	pc, [pc, r3, lsl #2]
8000d650:	ea000010 	b	0x8000d698
8000d654:	8000d668 	andhi	sp, r0, r8, ror #12
8000d658:	8000d698 	mulhi	r0, r8, r6
8000d65c:	8000d68c 	andhi	sp, r0, ip, lsl #13
8000d660:	8000d680 	andhi	sp, r0, r0, lsl #13
8000d664:	8000d674 	andhi	sp, r0, r4, ror r6
8000d668:	e3a03004 	mov	r3, #4
8000d66c:	e54b3034 	strb	r3, [fp, #-52]	; 0xffffffcc
8000d670:	ea00000b 	b	0x8000d6a4
8000d674:	e3a03003 	mov	r3, #3
8000d678:	e54b3034 	strb	r3, [fp, #-52]	; 0xffffffcc
8000d67c:	ea000008 	b	0x8000d6a4
8000d680:	e3a03002 	mov	r3, #2
8000d684:	e54b3034 	strb	r3, [fp, #-52]	; 0xffffffcc
8000d688:	ea000005 	b	0x8000d6a4
8000d68c:	e3a03001 	mov	r3, #1
8000d690:	e54b3034 	strb	r3, [fp, #-52]	; 0xffffffcc
8000d694:	ea000002 	b	0x8000d6a4
8000d698:	e3a03000 	mov	r3, #0
8000d69c:	e54b3034 	strb	r3, [fp, #-52]	; 0xffffffcc
8000d6a0:	e320f000 	nop	{0}
8000d6a4:	e51b3008 	ldr	r3, [fp, #-8]
8000d6a8:	e3530000 	cmp	r3, #0
8000d6ac:	0a00001b 	beq	0x8000d720
8000d6b0:	e51b3040 	ldr	r3, [fp, #-64]	; 0xffffffc0
8000d6b4:	e5933004 	ldr	r3, [r3, #4]
8000d6b8:	e1a02003 	mov	r2, r3
8000d6bc:	e51b3008 	ldr	r3, [fp, #-8]
8000d6c0:	e5832008 	str	r2, [r3, #8]
8000d6c4:	e51b3008 	ldr	r3, [fp, #-8]
8000d6c8:	e51b203c 	ldr	r2, [fp, #-60]	; 0xffffffc4
8000d6cc:	e5832004 	str	r2, [r3, #4]
8000d6d0:	e51b2038 	ldr	r2, [fp, #-56]	; 0xffffffc8
8000d6d4:	e51b3008 	ldr	r3, [fp, #-8]
8000d6d8:	e5832000 	str	r2, [r3]
8000d6dc:	e51b3040 	ldr	r3, [fp, #-64]	; 0xffffffc0
8000d6e0:	e5933008 	ldr	r3, [r3, #8]
8000d6e4:	e50b3030 	str	r3, [fp, #-48]	; 0xffffffd0
8000d6e8:	e30d33cc 	movw	r3, #54220	; 0xd3cc
8000d6ec:	e3483000 	movt	r3, #32768	; 0x8000
8000d6f0:	e50b302c 	str	r3, [fp, #-44]	; 0xffffffd4
8000d6f4:	e51b3008 	ldr	r3, [fp, #-8]
8000d6f8:	e50b3028 	str	r3, [fp, #-40]	; 0xffffffd8
8000d6fc:	e3a03000 	mov	r3, #0
8000d700:	e50b3024 	str	r3, [fp, #-36]	; 0xffffffdc
8000d704:	e51b3038 	ldr	r3, [fp, #-56]	; 0xffffffc8
8000d708:	e24b1034 	sub	r1, fp, #52	; 0x34
8000d70c:	e3a02000 	mov	r2, #0
8000d710:	e1a00003 	mov	r0, r3
8000d714:	ebfffb6c 	bl	0x8000c4cc
8000d718:	e51b0038 	ldr	r0, [fp, #-56]	; 0xffffffc8
8000d71c:	ebfffaaa 	bl	0x8000c1cc
8000d720:	e51b3018 	ldr	r3, [fp, #-24]	; 0xffffffe8
8000d724:	e1a00003 	mov	r0, r3
8000d728:	e24bd004 	sub	sp, fp, #4
8000d72c:	e8bd8800 	pop	{fp, pc}
8000d730:	e92d4800 	push	{fp, lr}
8000d734:	e28db004 	add	fp, sp, #4
8000d738:	e24dd010 	sub	sp, sp, #16
8000d73c:	e50b0010 	str	r0, [fp, #-16]
8000d740:	e51b3010 	ldr	r3, [fp, #-16]
8000d744:	e50b3008 	str	r3, [fp, #-8]
8000d748:	ebffff54 	bl	0x8000d4a0
8000d74c:	e50b000c 	str	r0, [fp, #-12]
8000d750:	e51b3008 	ldr	r3, [fp, #-8]
8000d754:	e3a02000 	mov	r2, #0
8000d758:	e1c320b0 	strh	r2, [r3]
8000d75c:	e51b000c 	ldr	r0, [fp, #-12]
8000d760:	ebffff54 	bl	0x8000d4b8
8000d764:	e3a03000 	mov	r3, #0
8000d768:	e1a00003 	mov	r0, r3
8000d76c:	e24bd004 	sub	sp, fp, #4
8000d770:	e8bd8800 	pop	{fp, pc}
8000d774:	e52db004 	push	{fp}		; (str fp, [sp, #-4]!)
8000d778:	e28db000 	add	fp, sp, #0
8000d77c:	ef000001 	svc	0x00000001
8000d780:	e320f000 	nop	{0}
8000d784:	e28bd000 	add	sp, fp, #0
8000d788:	e49db004 	pop	{fp}		; (ldr fp, [sp], #4)
8000d78c:	e12fff1e 	bx	lr
8000d790:	e52db004 	push	{fp}		; (str fp, [sp, #-4]!)
8000d794:	e28db000 	add	fp, sp, #0
8000d798:	e10f0000 	mrs	r0, CPSR
8000d79c:	e3c0000f 	bic	r0, r0, #15
8000d7a0:	e3800010 	orr	r0, r0, #16
8000d7a4:	e129f000 	msr	CPSR_fc, r0
8000d7a8:	e320f000 	nop	{0}
8000d7ac:	e28bd000 	add	sp, fp, #0
8000d7b0:	e49db004 	pop	{fp}		; (ldr fp, [sp], #4)
8000d7b4:	e12fff1e 	bx	lr
8000d7b8:	e52db004 	push	{fp}		; (str fp, [sp, #-4]!)
8000d7bc:	e28db000 	add	fp, sp, #0
8000d7c0:	eafffffe 	b	0x8000d7c0
8000d7c4:	e52db004 	push	{fp}		; (str fp, [sp, #-4]!)
8000d7c8:	e28db000 	add	fp, sp, #0
8000d7cc:	e24dd00c 	sub	sp, sp, #12
8000d7d0:	e10f0000 	mrs	r0, CPSR
8000d7d4:	e20030c0 	and	r3, r0, #192	; 0xc0
8000d7d8:	e50b3008 	str	r3, [fp, #-8]
8000d7dc:	e51b3008 	ldr	r3, [fp, #-8]
8000d7e0:	e1a00003 	mov	r0, r3
8000d7e4:	e28bd000 	add	sp, fp, #0
8000d7e8:	e49db004 	pop	{fp}		; (ldr fp, [sp], #4)
8000d7ec:	e12fff1e 	bx	lr
8000d7f0:	e52db004 	push	{fp}		; (str fp, [sp, #-4]!)
8000d7f4:	e28db000 	add	fp, sp, #0
8000d7f8:	e24dd00c 	sub	sp, sp, #12
8000d7fc:	e10f0000 	mrs	r0, CPSR
8000d800:	e1a01000 	mov	r1, r0
8000d804:	e20030c0 	and	r3, r0, #192	; 0xc0
8000d808:	e50b3008 	str	r3, [fp, #-8]
8000d80c:	e38110c0 	orr	r1, r1, #192	; 0xc0
8000d810:	e129f001 	msr	CPSR_fc, r1
8000d814:	e51b3008 	ldr	r3, [fp, #-8]
8000d818:	e1e03003 	mvn	r3, r3
8000d81c:	e20330c0 	and	r3, r3, #192	; 0xc0
8000d820:	e50b3008 	str	r3, [fp, #-8]
8000d824:	e51b3008 	ldr	r3, [fp, #-8]
8000d828:	e1a00003 	mov	r0, r3
8000d82c:	e28bd000 	add	sp, fp, #0
8000d830:	e49db004 	pop	{fp}		; (ldr fp, [sp], #4)
8000d834:	e12fff1e 	bx	lr
8000d838:	e52db004 	push	{fp}		; (str fp, [sp, #-4]!)
8000d83c:	e28db000 	add	fp, sp, #0
8000d840:	e24dd00c 	sub	sp, sp, #12
8000d844:	e50b0008 	str	r0, [fp, #-8]
8000d848:	e51b3008 	ldr	r3, [fp, #-8]
8000d84c:	e20330c0 	and	r3, r3, #192	; 0xc0
8000d850:	e50b3008 	str	r3, [fp, #-8]
8000d854:	e10f0000 	mrs	r0, CPSR
8000d858:	e1c00003 	bic	r0, r0, r3
8000d85c:	e50b3008 	str	r3, [fp, #-8]
8000d860:	e129f000 	msr	CPSR_fc, r0
8000d864:	e320f000 	nop	{0}
8000d868:	e28bd000 	add	sp, fp, #0
8000d86c:	e49db004 	pop	{fp}		; (ldr fp, [sp], #4)
8000d870:	e12fff1e 	bx	lr
8000d874:	e92d4800 	push	{fp, lr}
8000d878:	e28db004 	add	fp, sp, #4
8000d87c:	e24dd028 	sub	sp, sp, #40	; 0x28
8000d880:	e50b0020 	str	r0, [fp, #-32]	; 0xffffffe0
8000d884:	e50b1024 	str	r1, [fp, #-36]	; 0xffffffdc
8000d888:	e50b2028 	str	r2, [fp, #-40]	; 0xffffffd8
8000d88c:	e50b302c 	str	r3, [fp, #-44]	; 0xffffffd4
8000d890:	e51b3020 	ldr	r3, [fp, #-32]	; 0xffffffe0
8000d894:	e50b3008 	str	r3, [fp, #-8]
8000d898:	e51b302c 	ldr	r3, [fp, #-44]	; 0xffffffd4
8000d89c:	e1a03283 	lsl	r3, r3, #5
8000d8a0:	e50b300c 	str	r3, [fp, #-12]
8000d8a4:	e3a03003 	mov	r3, #3
8000d8a8:	e50b3010 	str	r3, [fp, #-16]
8000d8ac:	e30f3200 	movw	r3, #61952	; 0xf200
8000d8b0:	e3483000 	movt	r3, #32768	; 0x8000
8000d8b4:	e5933000 	ldr	r3, [r3]
8000d8b8:	e3530000 	cmp	r3, #0
8000d8bc:	1a00000c 	bne	0x8000d8f4
8000d8c0:	e51b0008 	ldr	r0, [fp, #-8]
8000d8c4:	eb000088 	bl	0x8000daec
8000d8c8:	e51b1010 	ldr	r1, [fp, #-16]
8000d8cc:	e51b0008 	ldr	r0, [fp, #-8]
8000d8d0:	eb000095 	bl	0x8000db2c
8000d8d4:	e51b1024 	ldr	r1, [fp, #-36]	; 0xffffffdc
8000d8d8:	e51b0008 	ldr	r0, [fp, #-8]
8000d8dc:	eb0000ee 	bl	0x8000dc9c
8000d8e0:	e51b1028 	ldr	r1, [fp, #-40]	; 0xffffffd8
8000d8e4:	e51b0008 	ldr	r0, [fp, #-8]
8000d8e8:	eb00010a 	bl	0x8000dd18
8000d8ec:	e51b0008 	ldr	r0, [fp, #-8]
8000d8f0:	eb00006d 	bl	0x8000daac
8000d8f4:	e51b0008 	ldr	r0, [fp, #-8]
8000d8f8:	eb0000f7 	bl	0x8000dcdc
8000d8fc:	e1a03000 	mov	r3, r0
8000d900:	e50b3014 	str	r3, [fp, #-20]	; 0xffffffec
8000d904:	e51b0008 	ldr	r0, [fp, #-8]
8000d908:	eb0000f3 	bl	0x8000dcdc
8000d90c:	e1a03000 	mov	r3, r0
8000d910:	e50b3018 	str	r3, [fp, #-24]	; 0xffffffe8
8000d914:	e51b2018 	ldr	r2, [fp, #-24]	; 0xffffffe8
8000d918:	e51b3014 	ldr	r3, [fp, #-20]	; 0xffffffec
8000d91c:	e0423003 	sub	r3, r2, r3
8000d920:	e1a02003 	mov	r2, r3
8000d924:	e51b300c 	ldr	r3, [fp, #-12]
8000d928:	e1520003 	cmp	r2, r3
8000d92c:	9afffff4 	bls	0x8000d904
8000d930:	e3a03000 	mov	r3, #0
8000d934:	e1a00003 	mov	r0, r3
8000d938:	e24bd004 	sub	sp, fp, #4
8000d93c:	e8bd8800 	pop	{fp, pc}
8000d940:	e92d4800 	push	{fp, lr}
8000d944:	e28db004 	add	fp, sp, #4
8000d948:	e24dd008 	sub	sp, sp, #8
8000d94c:	e50b0008 	str	r0, [fp, #-8]
8000d950:	e30e3adc 	movw	r3, #60124	; 0xeadc
8000d954:	e3483000 	movt	r3, #32768	; 0x8000
8000d958:	e593000c 	ldr	r0, [r3, #12]
8000d95c:	e51b3008 	ldr	r3, [fp, #-8]
8000d960:	e3a02000 	mov	r2, #0
8000d964:	e34f2ff0 	movt	r2, #65520	; 0xfff0
8000d968:	e3a01000 	mov	r1, #0
8000d96c:	e34f1ff0 	movt	r1, #65520	; 0xfff0
8000d970:	ebffffbf 	bl	0x8000d874
8000d974:	e1a03000 	mov	r3, r0
8000d978:	e1a00003 	mov	r0, r3
8000d97c:	e24bd004 	sub	sp, fp, #4
8000d980:	e8bd8800 	pop	{fp, pc}
8000d984:	e52db004 	push	{fp}		; (str fp, [sp, #-4]!)
8000d988:	e28db000 	add	fp, sp, #0
8000d98c:	e24dd014 	sub	sp, sp, #20
8000d990:	e50b0010 	str	r0, [fp, #-16]
8000d994:	e51b3010 	ldr	r3, [fp, #-16]
8000d998:	e5933000 	ldr	r3, [r3]
8000d99c:	e50b3008 	str	r3, [fp, #-8]
8000d9a0:	e51b3008 	ldr	r3, [fp, #-8]
8000d9a4:	e1a00003 	mov	r0, r3
8000d9a8:	e28bd000 	add	sp, fp, #0
8000d9ac:	e49db004 	pop	{fp}		; (ldr fp, [sp], #4)
8000d9b0:	e12fff1e 	bx	lr
8000d9b4:	e52db004 	push	{fp}		; (str fp, [sp, #-4]!)
8000d9b8:	e28db000 	add	fp, sp, #0
8000d9bc:	e24dd00c 	sub	sp, sp, #12
8000d9c0:	e50b0008 	str	r0, [fp, #-8]
8000d9c4:	e50b100c 	str	r1, [fp, #-12]
8000d9c8:	e51b3008 	ldr	r3, [fp, #-8]
8000d9cc:	e51b200c 	ldr	r2, [fp, #-12]
8000d9d0:	e5832000 	str	r2, [r3]
8000d9d4:	e320f000 	nop	{0}
8000d9d8:	e28bd000 	add	sp, fp, #0
8000d9dc:	e49db004 	pop	{fp}		; (ldr fp, [sp], #4)
8000d9e0:	e12fff1e 	bx	lr
8000d9e4:	e52db004 	push	{fp}		; (str fp, [sp, #-4]!)
8000d9e8:	e28db000 	add	fp, sp, #0
8000d9ec:	e24dd01c 	sub	sp, sp, #28
8000d9f0:	e50b0010 	str	r0, [fp, #-16]
8000d9f4:	e50b1014 	str	r1, [fp, #-20]	; 0xffffffec
8000d9f8:	e50b2018 	str	r2, [fp, #-24]	; 0xffffffe8
8000d9fc:	e50b301c 	str	r3, [fp, #-28]	; 0xffffffe4
8000da00:	e51b3010 	ldr	r3, [fp, #-16]
8000da04:	e5933000 	ldr	r3, [r3]
8000da08:	e50b3008 	str	r3, [fp, #-8]
8000da0c:	e51b3014 	ldr	r3, [fp, #-20]	; 0xffffffec
8000da10:	e1e03003 	mvn	r3, r3
8000da14:	e51b2008 	ldr	r2, [fp, #-8]
8000da18:	e0033002 	and	r3, r3, r2
8000da1c:	e50b3008 	str	r3, [fp, #-8]
8000da20:	e51b201c 	ldr	r2, [fp, #-28]	; 0xffffffe4
8000da24:	e51b3018 	ldr	r3, [fp, #-24]	; 0xffffffe8
8000da28:	e1a02312 	lsl	r2, r2, r3
8000da2c:	e51b3014 	ldr	r3, [fp, #-20]	; 0xffffffec
8000da30:	e0033002 	and	r3, r3, r2
8000da34:	e51b2008 	ldr	r2, [fp, #-8]
8000da38:	e1823003 	orr	r3, r2, r3
8000da3c:	e50b3008 	str	r3, [fp, #-8]
8000da40:	e51b3010 	ldr	r3, [fp, #-16]
8000da44:	e51b2008 	ldr	r2, [fp, #-8]
8000da48:	e5832000 	str	r2, [r3]
8000da4c:	e320f000 	nop	{0}
8000da50:	e28bd000 	add	sp, fp, #0
8000da54:	e49db004 	pop	{fp}		; (ldr fp, [sp], #4)
8000da58:	e12fff1e 	bx	lr
8000da5c:	e52db004 	push	{fp}		; (str fp, [sp, #-4]!)
8000da60:	e28db000 	add	fp, sp, #0
8000da64:	e24dd01c 	sub	sp, sp, #28
8000da68:	e50b0010 	str	r0, [fp, #-16]
8000da6c:	e50b1014 	str	r1, [fp, #-20]	; 0xffffffec
8000da70:	e50b2018 	str	r2, [fp, #-24]	; 0xffffffe8
8000da74:	e51b3010 	ldr	r3, [fp, #-16]
8000da78:	e5933000 	ldr	r3, [r3]
8000da7c:	e50b3008 	str	r3, [fp, #-8]
8000da80:	e51b2008 	ldr	r2, [fp, #-8]
8000da84:	e51b3014 	ldr	r3, [fp, #-20]	; 0xffffffec
8000da88:	e0022003 	and	r2, r2, r3
8000da8c:	e51b3018 	ldr	r3, [fp, #-24]	; 0xffffffe8
8000da90:	e1a03332 	lsr	r3, r2, r3
8000da94:	e50b3008 	str	r3, [fp, #-8]
8000da98:	e51b3008 	ldr	r3, [fp, #-8]
8000da9c:	e1a00003 	mov	r0, r3
8000daa0:	e28bd000 	add	sp, fp, #0
8000daa4:	e49db004 	pop	{fp}		; (ldr fp, [sp], #4)
8000daa8:	e12fff1e 	bx	lr
8000daac:	e92d4800 	push	{fp, lr}
8000dab0:	e28db004 	add	fp, sp, #4
8000dab4:	e24dd008 	sub	sp, sp, #8
8000dab8:	e50b0008 	str	r0, [fp, #-8]
8000dabc:	e51b1008 	ldr	r1, [fp, #-8]
8000dac0:	e3a00001 	mov	r0, #1
8000dac4:	eb0002a7 	bl	0x8000e568
8000dac8:	e51b3008 	ldr	r3, [fp, #-8]
8000dacc:	e2830038 	add	r0, r3, #56	; 0x38
8000dad0:	e3a03001 	mov	r3, #1
8000dad4:	e3a02000 	mov	r2, #0
8000dad8:	e3a01001 	mov	r1, #1
8000dadc:	ebffffc0 	bl	0x8000d9e4
8000dae0:	e320f000 	nop	{0}
8000dae4:	e24bd004 	sub	sp, fp, #4
8000dae8:	e8bd8800 	pop	{fp, pc}
8000daec:	e92d4800 	push	{fp, lr}
8000daf0:	e28db004 	add	fp, sp, #4
8000daf4:	e24dd008 	sub	sp, sp, #8
8000daf8:	e50b0008 	str	r0, [fp, #-8]
8000dafc:	e51b1008 	ldr	r1, [fp, #-8]
8000db00:	e3a00001 	mov	r0, #1
8000db04:	eb000297 	bl	0x8000e568
8000db08:	e51b3008 	ldr	r3, [fp, #-8]
8000db0c:	e2830038 	add	r0, r3, #56	; 0x38
8000db10:	e3a03000 	mov	r3, #0
8000db14:	e3a02000 	mov	r2, #0
8000db18:	e3a01001 	mov	r1, #1
8000db1c:	ebffffb0 	bl	0x8000d9e4
8000db20:	e320f000 	nop	{0}
8000db24:	e24bd004 	sub	sp, fp, #4
8000db28:	e8bd8800 	pop	{fp, pc}
8000db2c:	e92d4800 	push	{fp, lr}
8000db30:	e28db004 	add	fp, sp, #4
8000db34:	e24dd010 	sub	sp, sp, #16
8000db38:	e50b0010 	str	r0, [fp, #-16]
8000db3c:	e50b1014 	str	r1, [fp, #-20]	; 0xffffffec
8000db40:	e51b1010 	ldr	r1, [fp, #-16]
8000db44:	e3a00001 	mov	r0, #1
8000db48:	eb000286 	bl	0x8000e568
8000db4c:	e51b3010 	ldr	r3, [fp, #-16]
8000db50:	e2830038 	add	r0, r3, #56	; 0x38
8000db54:	e3a03000 	mov	r3, #0
8000db58:	e3a02001 	mov	r2, #1
8000db5c:	e3a01002 	mov	r1, #2
8000db60:	ebffff9f 	bl	0x8000d9e4
8000db64:	e51b3010 	ldr	r3, [fp, #-16]
8000db68:	e2830038 	add	r0, r3, #56	; 0x38
8000db6c:	e3a03000 	mov	r3, #0
8000db70:	e3a02006 	mov	r2, #6
8000db74:	e3a01040 	mov	r1, #64	; 0x40
8000db78:	ebffff99 	bl	0x8000d9e4
8000db7c:	e51b1010 	ldr	r1, [fp, #-16]
8000db80:	e3a00001 	mov	r0, #1
8000db84:	eb000277 	bl	0x8000e568
8000db88:	e51b3010 	ldr	r3, [fp, #-16]
8000db8c:	e2833038 	add	r3, r3, #56	; 0x38
8000db90:	e1a00003 	mov	r0, r3
8000db94:	ebffff7a 	bl	0x8000d984
8000db98:	e50b0008 	str	r0, [fp, #-8]
8000db9c:	e51b3014 	ldr	r3, [fp, #-20]	; 0xffffffec
8000dba0:	e2033042 	and	r3, r3, #66	; 0x42
8000dba4:	e51b2008 	ldr	r2, [fp, #-8]
8000dba8:	e1823003 	orr	r3, r2, r3
8000dbac:	e50b3008 	str	r3, [fp, #-8]
8000dbb0:	e51b3010 	ldr	r3, [fp, #-16]
8000dbb4:	e2833038 	add	r3, r3, #56	; 0x38
8000dbb8:	e51b1008 	ldr	r1, [fp, #-8]
8000dbbc:	e1a00003 	mov	r0, r3
8000dbc0:	ebffff7b 	bl	0x8000d9b4
8000dbc4:	e320f000 	nop	{0}
8000dbc8:	e24bd004 	sub	sp, fp, #4
8000dbcc:	e8bd8800 	pop	{fp, pc}
8000dbd0:	e92d4800 	push	{fp, lr}
8000dbd4:	e28db004 	add	fp, sp, #4
8000dbd8:	e24dd010 	sub	sp, sp, #16
8000dbdc:	e50b0010 	str	r0, [fp, #-16]
8000dbe0:	e50b1014 	str	r1, [fp, #-20]	; 0xffffffec
8000dbe4:	e51b1010 	ldr	r1, [fp, #-16]
8000dbe8:	e3a00001 	mov	r0, #1
8000dbec:	eb00025d 	bl	0x8000e568
8000dbf0:	e51b3010 	ldr	r3, [fp, #-16]
8000dbf4:	e2830038 	add	r0, r3, #56	; 0x38
8000dbf8:	e3a03000 	mov	r3, #0
8000dbfc:	e3a02002 	mov	r2, #2
8000dc00:	e3a0101c 	mov	r1, #28
8000dc04:	ebffff76 	bl	0x8000d9e4
8000dc08:	e51b1010 	ldr	r1, [fp, #-16]
8000dc0c:	e3a00001 	mov	r0, #1
8000dc10:	eb000254 	bl	0x8000e568
8000dc14:	e51b3010 	ldr	r3, [fp, #-16]
8000dc18:	e2833038 	add	r3, r3, #56	; 0x38
8000dc1c:	e1a00003 	mov	r0, r3
8000dc20:	ebffff57 	bl	0x8000d984
8000dc24:	e50b0008 	str	r0, [fp, #-8]
8000dc28:	e51b3014 	ldr	r3, [fp, #-20]	; 0xffffffec
8000dc2c:	e203303c 	and	r3, r3, #60	; 0x3c
8000dc30:	e51b2008 	ldr	r2, [fp, #-8]
8000dc34:	e1823003 	orr	r3, r2, r3
8000dc38:	e50b3008 	str	r3, [fp, #-8]
8000dc3c:	e51b3010 	ldr	r3, [fp, #-16]
8000dc40:	e2833038 	add	r3, r3, #56	; 0x38
8000dc44:	e51b1008 	ldr	r1, [fp, #-8]
8000dc48:	e1a00003 	mov	r0, r3
8000dc4c:	ebffff58 	bl	0x8000d9b4
8000dc50:	e320f000 	nop	{0}
8000dc54:	e24bd004 	sub	sp, fp, #4
8000dc58:	e8bd8800 	pop	{fp, pc}
8000dc5c:	e92d4800 	push	{fp, lr}
8000dc60:	e28db004 	add	fp, sp, #4
8000dc64:	e24dd008 	sub	sp, sp, #8
8000dc68:	e50b0008 	str	r0, [fp, #-8]
8000dc6c:	e51b1008 	ldr	r1, [fp, #-8]
8000dc70:	e3a00001 	mov	r0, #1
8000dc74:	eb00023b 	bl	0x8000e568
8000dc78:	e51b3008 	ldr	r3, [fp, #-8]
8000dc7c:	e2830038 	add	r0, r3, #56	; 0x38
8000dc80:	e3a03000 	mov	r3, #0
8000dc84:	e3a02005 	mov	r2, #5
8000dc88:	e3a01020 	mov	r1, #32
8000dc8c:	ebffff54 	bl	0x8000d9e4
8000dc90:	e320f000 	nop	{0}
8000dc94:	e24bd004 	sub	sp, fp, #4
8000dc98:	e8bd8800 	pop	{fp, pc}
8000dc9c:	e92d4800 	push	{fp, lr}
8000dca0:	e28db004 	add	fp, sp, #4
8000dca4:	e24dd008 	sub	sp, sp, #8
8000dca8:	e50b0008 	str	r0, [fp, #-8]
8000dcac:	e50b100c 	str	r1, [fp, #-12]
8000dcb0:	e51b1008 	ldr	r1, [fp, #-8]
8000dcb4:	e3a00002 	mov	r0, #2
8000dcb8:	eb00022a 	bl	0x8000e568
8000dcbc:	e51b3008 	ldr	r3, [fp, #-8]
8000dcc0:	e283303c 	add	r3, r3, #60	; 0x3c
8000dcc4:	e51b100c 	ldr	r1, [fp, #-12]
8000dcc8:	e1a00003 	mov	r0, r3
8000dccc:	ebffff38 	bl	0x8000d9b4
8000dcd0:	e320f000 	nop	{0}
8000dcd4:	e24bd004 	sub	sp, fp, #4
8000dcd8:	e8bd8800 	pop	{fp, pc}
8000dcdc:	e92d4800 	push	{fp, lr}
8000dce0:	e28db004 	add	fp, sp, #4
8000dce4:	e24dd008 	sub	sp, sp, #8
8000dce8:	e50b0008 	str	r0, [fp, #-8]
8000dcec:	e51b1008 	ldr	r1, [fp, #-8]
8000dcf0:	e3a00002 	mov	r0, #2
8000dcf4:	eb00021b 	bl	0x8000e568
8000dcf8:	e51b3008 	ldr	r3, [fp, #-8]
8000dcfc:	e283303c 	add	r3, r3, #60	; 0x3c
8000dd00:	e1a00003 	mov	r0, r3
8000dd04:	ebffff1e 	bl	0x8000d984
8000dd08:	e1a03000 	mov	r3, r0
8000dd0c:	e1a00003 	mov	r0, r3
8000dd10:	e24bd004 	sub	sp, fp, #4
8000dd14:	e8bd8800 	pop	{fp, pc}
8000dd18:	e92d4800 	push	{fp, lr}
8000dd1c:	e28db004 	add	fp, sp, #4
8000dd20:	e24dd008 	sub	sp, sp, #8
8000dd24:	e50b0008 	str	r0, [fp, #-8]
8000dd28:	e50b100c 	str	r1, [fp, #-12]
8000dd2c:	e51b1008 	ldr	r1, [fp, #-8]
8000dd30:	e3a00004 	mov	r0, #4
8000dd34:	eb00020b 	bl	0x8000e568
8000dd38:	e51b3008 	ldr	r3, [fp, #-8]
8000dd3c:	e2833040 	add	r3, r3, #64	; 0x40
8000dd40:	e51b100c 	ldr	r1, [fp, #-12]
8000dd44:	e1a00003 	mov	r0, r3
8000dd48:	ebffff19 	bl	0x8000d9b4
8000dd4c:	e320f000 	nop	{0}
8000dd50:	e24bd004 	sub	sp, fp, #4
8000dd54:	e8bd8800 	pop	{fp, pc}
8000dd58:	e92d4800 	push	{fp, lr}
8000dd5c:	e28db004 	add	fp, sp, #4
8000dd60:	e24dd008 	sub	sp, sp, #8
8000dd64:	e50b0008 	str	r0, [fp, #-8]
8000dd68:	e51b3008 	ldr	r3, [fp, #-8]
8000dd6c:	e2833040 	add	r3, r3, #64	; 0x40
8000dd70:	e1a00003 	mov	r0, r3
8000dd74:	ebffff02 	bl	0x8000d984
8000dd78:	e1a03000 	mov	r3, r0
8000dd7c:	e1a00003 	mov	r0, r3
8000dd80:	e24bd004 	sub	sp, fp, #4
8000dd84:	e8bd8800 	pop	{fp, pc}
8000dd88:	e92d4800 	push	{fp, lr}
8000dd8c:	e28db004 	add	fp, sp, #4
8000dd90:	e24dd008 	sub	sp, sp, #8
8000dd94:	e50b0008 	str	r0, [fp, #-8]
8000dd98:	e50b100c 	str	r1, [fp, #-12]
8000dd9c:	e51b1008 	ldr	r1, [fp, #-8]
8000dda0:	e3a00001 	mov	r0, #1
8000dda4:	eb0001ef 	bl	0x8000e568
8000dda8:	e51b3008 	ldr	r3, [fp, #-8]
8000ddac:	e2830038 	add	r0, r3, #56	; 0x38
8000ddb0:	e3a03000 	mov	r3, #0
8000ddb4:	e3a0200e 	mov	r2, #14
8000ddb8:	e3a01901 	mov	r1, #16384	; 0x4000
8000ddbc:	ebffff08 	bl	0x8000d9e4
8000ddc0:	e51b1008 	ldr	r1, [fp, #-8]
8000ddc4:	e3a00001 	mov	r0, #1
8000ddc8:	eb0001e6 	bl	0x8000e568
8000ddcc:	e51b3008 	ldr	r3, [fp, #-8]
8000ddd0:	e2830038 	add	r0, r3, #56	; 0x38
8000ddd4:	e51b300c 	ldr	r3, [fp, #-12]
8000ddd8:	e1a03723 	lsr	r3, r3, #14
8000dddc:	e3a0200e 	mov	r2, #14
8000dde0:	e3a01901 	mov	r1, #16384	; 0x4000
8000dde4:	ebfffefe 	bl	0x8000d9e4
8000dde8:	e320f000 	nop	{0}
8000ddec:	e24bd004 	sub	sp, fp, #4
8000ddf0:	e8bd8800 	pop	{fp, pc}
8000ddf4:	e92d4800 	push	{fp, lr}
8000ddf8:	e28db004 	add	fp, sp, #4
8000ddfc:	e24dd008 	sub	sp, sp, #8
8000de00:	e50b0008 	str	r0, [fp, #-8]
8000de04:	e50b100c 	str	r1, [fp, #-12]
8000de08:	e51b1008 	ldr	r1, [fp, #-8]
8000de0c:	e3a00010 	mov	r0, #16
8000de10:	eb0001d4 	bl	0x8000e568
8000de14:	e51b3008 	ldr	r3, [fp, #-8]
8000de18:	e283304c 	add	r3, r3, #76	; 0x4c
8000de1c:	e51b100c 	ldr	r1, [fp, #-12]
8000de20:	e1a00003 	mov	r0, r3
8000de24:	ebfffee2 	bl	0x8000d9b4
8000de28:	e320f000 	nop	{0}
8000de2c:	e24bd004 	sub	sp, fp, #4
8000de30:	e8bd8800 	pop	{fp, pc}
8000de34:	e92d4800 	push	{fp, lr}
8000de38:	e28db004 	add	fp, sp, #4
8000de3c:	e24dd008 	sub	sp, sp, #8
8000de40:	e50b0008 	str	r0, [fp, #-8]
8000de44:	e51b3008 	ldr	r3, [fp, #-8]
8000de48:	e283304c 	add	r3, r3, #76	; 0x4c
8000de4c:	e1a00003 	mov	r0, r3
8000de50:	ebfffecb 	bl	0x8000d984
8000de54:	e1a03000 	mov	r3, r0
8000de58:	e1a00003 	mov	r0, r3
8000de5c:	e24bd004 	sub	sp, fp, #4
8000de60:	e8bd8800 	pop	{fp, pc}
8000de64:	e92d4800 	push	{fp, lr}
8000de68:	e28db004 	add	fp, sp, #4
8000de6c:	e24dd008 	sub	sp, sp, #8
8000de70:	e50b0008 	str	r0, [fp, #-8]
8000de74:	e50b100c 	str	r1, [fp, #-12]
8000de78:	e51b3008 	ldr	r3, [fp, #-8]
8000de7c:	e2832024 	add	r2, r3, #36	; 0x24
8000de80:	e51b300c 	ldr	r3, [fp, #-12]
8000de84:	e2033007 	and	r3, r3, #7
8000de88:	e1a01003 	mov	r1, r3
8000de8c:	e1a00002 	mov	r0, r2
8000de90:	ebfffec7 	bl	0x8000d9b4
8000de94:	e320f000 	nop	{0}
8000de98:	e24bd004 	sub	sp, fp, #4
8000de9c:	e8bd8800 	pop	{fp, pc}
8000dea0:	e92d4800 	push	{fp, lr}
8000dea4:	e28db004 	add	fp, sp, #4
8000dea8:	e24dd008 	sub	sp, sp, #8
8000deac:	e50b0008 	str	r0, [fp, #-8]
8000deb0:	e51b3008 	ldr	r3, [fp, #-8]
8000deb4:	e2833024 	add	r3, r3, #36	; 0x24
8000deb8:	e1a00003 	mov	r0, r3
8000debc:	ebfffeb0 	bl	0x8000d984
8000dec0:	e1a03000 	mov	r3, r0
8000dec4:	e1a00003 	mov	r0, r3
8000dec8:	e24bd004 	sub	sp, fp, #4
8000decc:	e8bd8800 	pop	{fp, pc}
8000ded0:	e92d4800 	push	{fp, lr}
8000ded4:	e28db004 	add	fp, sp, #4
8000ded8:	e24dd008 	sub	sp, sp, #8
8000dedc:	e50b0008 	str	r0, [fp, #-8]
8000dee0:	e51b3008 	ldr	r3, [fp, #-8]
8000dee4:	e2833028 	add	r3, r3, #40	; 0x28
8000dee8:	e1a00003 	mov	r0, r3
8000deec:	ebfffea4 	bl	0x8000d984
8000def0:	e1a03000 	mov	r3, r0
8000def4:	e1a00003 	mov	r0, r3
8000def8:	e24bd004 	sub	sp, fp, #4
8000defc:	e8bd8800 	pop	{fp, pc}
8000df00:	e92d4800 	push	{fp, lr}
8000df04:	e28db004 	add	fp, sp, #4
8000df08:	e24dd008 	sub	sp, sp, #8
8000df0c:	e50b0008 	str	r0, [fp, #-8]
8000df10:	e50b100c 	str	r1, [fp, #-12]
8000df14:	e51b3008 	ldr	r3, [fp, #-8]
8000df18:	e2832028 	add	r2, r3, #40	; 0x28
8000df1c:	e51b300c 	ldr	r3, [fp, #-12]
8000df20:	e2033007 	and	r3, r3, #7
8000df24:	e1a01003 	mov	r1, r3
8000df28:	e1a00002 	mov	r0, r2
8000df2c:	ebfffea0 	bl	0x8000d9b4
8000df30:	e320f000 	nop	{0}
8000df34:	e24bd004 	sub	sp, fp, #4
8000df38:	e8bd8800 	pop	{fp, pc}
8000df3c:	e92d4800 	push	{fp, lr}
8000df40:	e28db004 	add	fp, sp, #4
8000df44:	e24dd008 	sub	sp, sp, #8
8000df48:	e50b0008 	str	r0, [fp, #-8]
8000df4c:	e50b100c 	str	r1, [fp, #-12]
8000df50:	e51b3008 	ldr	r3, [fp, #-8]
8000df54:	e283202c 	add	r2, r3, #44	; 0x2c
8000df58:	e51b300c 	ldr	r3, [fp, #-12]
8000df5c:	e2033007 	and	r3, r3, #7
8000df60:	e1a01003 	mov	r1, r3
8000df64:	e1a00002 	mov	r0, r2
8000df68:	ebfffe91 	bl	0x8000d9b4
8000df6c:	e320f000 	nop	{0}
8000df70:	e24bd004 	sub	sp, fp, #4
8000df74:	e8bd8800 	pop	{fp, pc}
8000df78:	e92d4800 	push	{fp, lr}
8000df7c:	e28db004 	add	fp, sp, #4
8000df80:	e24dd008 	sub	sp, sp, #8
8000df84:	e50b0008 	str	r0, [fp, #-8]
8000df88:	e50b100c 	str	r1, [fp, #-12]
8000df8c:	e51b3008 	ldr	r3, [fp, #-8]
8000df90:	e2832030 	add	r2, r3, #48	; 0x30
8000df94:	e51b300c 	ldr	r3, [fp, #-12]
8000df98:	e2033007 	and	r3, r3, #7
8000df9c:	e1a01003 	mov	r1, r3
8000dfa0:	e1a00002 	mov	r0, r2
8000dfa4:	ebfffe82 	bl	0x8000d9b4
8000dfa8:	e320f000 	nop	{0}
8000dfac:	e24bd004 	sub	sp, fp, #4
8000dfb0:	e8bd8800 	pop	{fp, pc}
8000dfb4:	e92d4800 	push	{fp, lr}
8000dfb8:	e28db004 	add	fp, sp, #4
8000dfbc:	e24dd010 	sub	sp, sp, #16
8000dfc0:	e50b0010 	str	r0, [fp, #-16]
8000dfc4:	e50b1014 	str	r1, [fp, #-20]	; 0xffffffec
8000dfc8:	e51b3010 	ldr	r3, [fp, #-16]
8000dfcc:	e2833034 	add	r3, r3, #52	; 0x34
8000dfd0:	e1a00003 	mov	r0, r3
8000dfd4:	ebfffe6a 	bl	0x8000d984
8000dfd8:	e50b0008 	str	r0, [fp, #-8]
8000dfdc:	e51b3014 	ldr	r3, [fp, #-20]	; 0xffffffec
8000dfe0:	e2033007 	and	r3, r3, #7
8000dfe4:	e51b2008 	ldr	r2, [fp, #-8]
8000dfe8:	e1823003 	orr	r3, r2, r3
8000dfec:	e50b3008 	str	r3, [fp, #-8]
8000dff0:	e51b3010 	ldr	r3, [fp, #-16]
8000dff4:	e2833034 	add	r3, r3, #52	; 0x34
8000dff8:	e51b1008 	ldr	r1, [fp, #-8]
8000dffc:	e1a00003 	mov	r0, r3
8000e000:	ebfffe6b 	bl	0x8000d9b4
8000e004:	e320f000 	nop	{0}
8000e008:	e24bd004 	sub	sp, fp, #4
8000e00c:	e8bd8800 	pop	{fp, pc}
8000e010:	e92d4800 	push	{fp, lr}
8000e014:	e28db004 	add	fp, sp, #4
8000e018:	e24dd010 	sub	sp, sp, #16
8000e01c:	e50b0010 	str	r0, [fp, #-16]
8000e020:	e50b1014 	str	r1, [fp, #-20]	; 0xffffffec
8000e024:	e51b3014 	ldr	r3, [fp, #-20]	; 0xffffffec
8000e028:	e2033007 	and	r3, r3, #7
8000e02c:	e1e03003 	mvn	r3, r3
8000e030:	e50b3008 	str	r3, [fp, #-8]
8000e034:	e51b3010 	ldr	r3, [fp, #-16]
8000e038:	e2833034 	add	r3, r3, #52	; 0x34
8000e03c:	e1a00003 	mov	r0, r3
8000e040:	ebfffe4f 	bl	0x8000d984
8000e044:	e1a02000 	mov	r2, r0
8000e048:	e51b3008 	ldr	r3, [fp, #-8]
8000e04c:	e0033002 	and	r3, r3, r2
8000e050:	e50b300c 	str	r3, [fp, #-12]
8000e054:	e51b3010 	ldr	r3, [fp, #-16]
8000e058:	e2833034 	add	r3, r3, #52	; 0x34
8000e05c:	e51b100c 	ldr	r1, [fp, #-12]
8000e060:	e1a00003 	mov	r0, r3
8000e064:	ebfffe52 	bl	0x8000d9b4
8000e068:	e320f000 	nop	{0}
8000e06c:	e24bd004 	sub	sp, fp, #4
8000e070:	e8bd8800 	pop	{fp, pc}
8000e074:	e92d4800 	push	{fp, lr}
8000e078:	e28db004 	add	fp, sp, #4
8000e07c:	e24dd008 	sub	sp, sp, #8
8000e080:	e50b0008 	str	r0, [fp, #-8]
8000e084:	e51b1008 	ldr	r1, [fp, #-8]
8000e088:	e3a00008 	mov	r0, #8
8000e08c:	eb000135 	bl	0x8000e568
8000e090:	e51b3008 	ldr	r3, [fp, #-8]
8000e094:	e2833044 	add	r3, r3, #68	; 0x44
8000e098:	e3e01000 	mvn	r1, #0
8000e09c:	e1a00003 	mov	r0, r3
8000e0a0:	ebfffe43 	bl	0x8000d9b4
8000e0a4:	e320f000 	nop	{0}
8000e0a8:	e24bd004 	sub	sp, fp, #4
8000e0ac:	e8bd8800 	pop	{fp, pc}
8000e0b0:	e92d4800 	push	{fp, lr}
8000e0b4:	e28db004 	add	fp, sp, #4
8000e0b8:	e24dd008 	sub	sp, sp, #8
8000e0bc:	e50b0008 	str	r0, [fp, #-8]
8000e0c0:	e51b3008 	ldr	r3, [fp, #-8]
8000e0c4:	e283302c 	add	r3, r3, #44	; 0x2c
8000e0c8:	e1a00003 	mov	r0, r3
8000e0cc:	ebfffe2c 	bl	0x8000d984
8000e0d0:	e1a03000 	mov	r3, r0
8000e0d4:	e1a00003 	mov	r0, r3
8000e0d8:	e24bd004 	sub	sp, fp, #4
8000e0dc:	e8bd8800 	pop	{fp, pc}
8000e0e0:	e92d4800 	push	{fp, lr}
8000e0e4:	e28db004 	add	fp, sp, #4
8000e0e8:	e24dd008 	sub	sp, sp, #8
8000e0ec:	e50b0008 	str	r0, [fp, #-8]
8000e0f0:	e50b100c 	str	r1, [fp, #-12]
8000e0f4:	e51b3008 	ldr	r3, [fp, #-8]
8000e0f8:	e2830054 	add	r0, r3, #84	; 0x54
8000e0fc:	e51b300c 	ldr	r3, [fp, #-12]
8000e100:	e1a030a3 	lsr	r3, r3, #1
8000e104:	e3a02001 	mov	r2, #1
8000e108:	e3a01002 	mov	r1, #2
8000e10c:	ebfffe34 	bl	0x8000d9e4
8000e110:	e320f000 	nop	{0}
8000e114:	e24bd004 	sub	sp, fp, #4
8000e118:	e8bd8800 	pop	{fp, pc}
8000e11c:	e92d4800 	push	{fp, lr}
8000e120:	e28db004 	add	fp, sp, #4
8000e124:	e24dd008 	sub	sp, sp, #8
8000e128:	e50b0008 	str	r0, [fp, #-8]
8000e12c:	e51b3008 	ldr	r3, [fp, #-8]
8000e130:	e2830010 	add	r0, r3, #16
8000e134:	e3a03001 	mov	r3, #1
8000e138:	e3a02000 	mov	r2, #0
8000e13c:	e3a01001 	mov	r1, #1
8000e140:	ebfffe27 	bl	0x8000d9e4
8000e144:	e320f000 	nop	{0}
8000e148:	e51b3008 	ldr	r3, [fp, #-8]
8000e14c:	e2833010 	add	r3, r3, #16
8000e150:	e3a02000 	mov	r2, #0
8000e154:	e3a01001 	mov	r1, #1
8000e158:	e1a00003 	mov	r0, r3
8000e15c:	ebfffe3e 	bl	0x8000da5c
8000e160:	e1a03000 	mov	r3, r0
8000e164:	e3530001 	cmp	r3, #1
8000e168:	0afffff6 	beq	0x8000e148
8000e16c:	e320f000 	nop	{0}
8000e170:	e24bd004 	sub	sp, fp, #4
8000e174:	e8bd8800 	pop	{fp, pc}
8000e178:	e92d4800 	push	{fp, lr}
8000e17c:	e28db004 	add	fp, sp, #4
8000e180:	e24dd008 	sub	sp, sp, #8
8000e184:	e50b0008 	str	r0, [fp, #-8]
8000e188:	e50b100c 	str	r1, [fp, #-12]
8000e18c:	e51b3008 	ldr	r3, [fp, #-8]
8000e190:	e2833040 	add	r3, r3, #64	; 0x40
8000e194:	e1a00003 	mov	r0, r3
8000e198:	ebfffdf9 	bl	0x8000d984
8000e19c:	e1a02000 	mov	r2, r0
8000e1a0:	e51b300c 	ldr	r3, [fp, #-12]
8000e1a4:	e5832000 	str	r2, [r3]
8000e1a8:	e51b3008 	ldr	r3, [fp, #-8]
8000e1ac:	e283304c 	add	r3, r3, #76	; 0x4c
8000e1b0:	e1a00003 	mov	r0, r3
8000e1b4:	ebfffdf2 	bl	0x8000d984
8000e1b8:	e1a02000 	mov	r2, r0
8000e1bc:	e51b300c 	ldr	r3, [fp, #-12]
8000e1c0:	e5832004 	str	r2, [r3, #4]
8000e1c4:	e51b3008 	ldr	r3, [fp, #-8]
8000e1c8:	e283302c 	add	r3, r3, #44	; 0x2c
8000e1cc:	e1a00003 	mov	r0, r3
8000e1d0:	ebfffdeb 	bl	0x8000d984
8000e1d4:	e1a02000 	mov	r2, r0
8000e1d8:	e51b300c 	ldr	r3, [fp, #-12]
8000e1dc:	e5832008 	str	r2, [r3, #8]
8000e1e0:	e51b1008 	ldr	r1, [fp, #-8]
8000e1e4:	e3a00002 	mov	r0, #2
8000e1e8:	eb0000de 	bl	0x8000e568
8000e1ec:	e51b3008 	ldr	r3, [fp, #-8]
8000e1f0:	e283303c 	add	r3, r3, #60	; 0x3c
8000e1f4:	e1a00003 	mov	r0, r3
8000e1f8:	ebfffde1 	bl	0x8000d984
8000e1fc:	e1a02000 	mov	r2, r0
8000e200:	e51b300c 	ldr	r3, [fp, #-12]
8000e204:	e583200c 	str	r2, [r3, #12]
8000e208:	e51b3008 	ldr	r3, [fp, #-8]
8000e20c:	e2833038 	add	r3, r3, #56	; 0x38
8000e210:	e1a00003 	mov	r0, r3
8000e214:	ebfffdda 	bl	0x8000d984
8000e218:	e1a02000 	mov	r2, r0
8000e21c:	e51b300c 	ldr	r3, [fp, #-12]
8000e220:	e5832010 	str	r2, [r3, #16]
8000e224:	e320f000 	nop	{0}
8000e228:	e24bd004 	sub	sp, fp, #4
8000e22c:	e8bd8800 	pop	{fp, pc}
8000e230:	e92d4800 	push	{fp, lr}
8000e234:	e28db004 	add	fp, sp, #4
8000e238:	e24dd008 	sub	sp, sp, #8
8000e23c:	e50b0008 	str	r0, [fp, #-8]
8000e240:	e50b100c 	str	r1, [fp, #-12]
8000e244:	e51b1008 	ldr	r1, [fp, #-8]
8000e248:	e3a00004 	mov	r0, #4
8000e24c:	eb0000c5 	bl	0x8000e568
8000e250:	e51b3008 	ldr	r3, [fp, #-8]
8000e254:	e2832040 	add	r2, r3, #64	; 0x40
8000e258:	e51b300c 	ldr	r3, [fp, #-12]
8000e25c:	e5933000 	ldr	r3, [r3]
8000e260:	e1a01003 	mov	r1, r3
8000e264:	e1a00002 	mov	r0, r2
8000e268:	ebfffdd1 	bl	0x8000d9b4
8000e26c:	e51b1008 	ldr	r1, [fp, #-8]
8000e270:	e3a00010 	mov	r0, #16
8000e274:	eb0000bb 	bl	0x8000e568
8000e278:	e51b3008 	ldr	r3, [fp, #-8]
8000e27c:	e283204c 	add	r2, r3, #76	; 0x4c
8000e280:	e51b300c 	ldr	r3, [fp, #-12]
8000e284:	e5933004 	ldr	r3, [r3, #4]
8000e288:	e1a01003 	mov	r1, r3
8000e28c:	e1a00002 	mov	r0, r2
8000e290:	ebfffdc7 	bl	0x8000d9b4
8000e294:	e51b3008 	ldr	r3, [fp, #-8]
8000e298:	e283202c 	add	r2, r3, #44	; 0x2c
8000e29c:	e51b300c 	ldr	r3, [fp, #-12]
8000e2a0:	e5933008 	ldr	r3, [r3, #8]
8000e2a4:	e1a01003 	mov	r1, r3
8000e2a8:	e1a00002 	mov	r0, r2
8000e2ac:	ebfffdc0 	bl	0x8000d9b4
8000e2b0:	e51b1008 	ldr	r1, [fp, #-8]
8000e2b4:	e3a00002 	mov	r0, #2
8000e2b8:	eb0000aa 	bl	0x8000e568
8000e2bc:	e51b3008 	ldr	r3, [fp, #-8]
8000e2c0:	e283203c 	add	r2, r3, #60	; 0x3c
8000e2c4:	e51b300c 	ldr	r3, [fp, #-12]
8000e2c8:	e593300c 	ldr	r3, [r3, #12]
8000e2cc:	e1a01003 	mov	r1, r3
8000e2d0:	e1a00002 	mov	r0, r2
8000e2d4:	ebfffdb6 	bl	0x8000d9b4
8000e2d8:	e51b1008 	ldr	r1, [fp, #-8]
8000e2dc:	e3a00001 	mov	r0, #1
8000e2e0:	eb0000a0 	bl	0x8000e568
8000e2e4:	e51b3008 	ldr	r3, [fp, #-8]
8000e2e8:	e2832038 	add	r2, r3, #56	; 0x38
8000e2ec:	e51b300c 	ldr	r3, [fp, #-12]
8000e2f0:	e5933010 	ldr	r3, [r3, #16]
8000e2f4:	e1a01003 	mov	r1, r3
8000e2f8:	e1a00002 	mov	r0, r2
8000e2fc:	ebfffdac 	bl	0x8000d9b4
8000e300:	e320f000 	nop	{0}
8000e304:	e24bd004 	sub	sp, fp, #4
8000e308:	e8bd8800 	pop	{fp, pc}
8000e30c:	e92d4800 	push	{fp, lr}
8000e310:	e28db004 	add	fp, sp, #4
8000e314:	e24dd008 	sub	sp, sp, #8
8000e318:	e50b0008 	str	r0, [fp, #-8]
8000e31c:	e50b100c 	str	r1, [fp, #-12]
8000e320:	e51b3008 	ldr	r3, [fp, #-8]
8000e324:	e2830054 	add	r0, r3, #84	; 0x54
8000e328:	e51b300c 	ldr	r3, [fp, #-12]
8000e32c:	e1a03123 	lsr	r3, r3, #2
8000e330:	e3a02002 	mov	r2, #2
8000e334:	e3a01004 	mov	r1, #4
8000e338:	ebfffda9 	bl	0x8000d9e4
8000e33c:	e320f000 	nop	{0}
8000e340:	e24bd004 	sub	sp, fp, #4
8000e344:	e8bd8800 	pop	{fp, pc}
8000e348:	e92d4800 	push	{fp, lr}
8000e34c:	e28db004 	add	fp, sp, #4
8000e350:	e24dd008 	sub	sp, sp, #8
8000e354:	e50b0008 	str	r0, [fp, #-8]
8000e358:	e50b100c 	str	r1, [fp, #-12]
8000e35c:	e51b3008 	ldr	r3, [fp, #-8]
8000e360:	e2830054 	add	r0, r3, #84	; 0x54
8000e364:	e51b300c 	ldr	r3, [fp, #-12]
8000e368:	e1a031a3 	lsr	r3, r3, #3
8000e36c:	e3a02003 	mov	r2, #3
8000e370:	e3a01008 	mov	r1, #8
8000e374:	ebfffd9a 	bl	0x8000d9e4
8000e378:	e320f000 	nop	{0}
8000e37c:	e24bd004 	sub	sp, fp, #4
8000e380:	e8bd8800 	pop	{fp, pc}
8000e384:	e92d4800 	push	{fp, lr}
8000e388:	e28db004 	add	fp, sp, #4
8000e38c:	e24dd008 	sub	sp, sp, #8
8000e390:	e50b0008 	str	r0, [fp, #-8]
8000e394:	e51b3008 	ldr	r3, [fp, #-8]
8000e398:	e2833048 	add	r3, r3, #72	; 0x48
8000e39c:	e1a00003 	mov	r0, r3
8000e3a0:	ebfffd77 	bl	0x8000d984
8000e3a4:	e1a03000 	mov	r3, r0
8000e3a8:	e1a00003 	mov	r0, r3
8000e3ac:	e24bd004 	sub	sp, fp, #4
8000e3b0:	e8bd8800 	pop	{fp, pc}
8000e3b4:	e92d4800 	push	{fp, lr}
8000e3b8:	e28db004 	add	fp, sp, #4
8000e3bc:	e24dd008 	sub	sp, sp, #8
8000e3c0:	e50b0008 	str	r0, [fp, #-8]
8000e3c4:	e50b100c 	str	r1, [fp, #-12]
8000e3c8:	e51b3008 	ldr	r3, [fp, #-8]
8000e3cc:	e2830010 	add	r0, r3, #16
8000e3d0:	e51b300c 	ldr	r3, [fp, #-12]
8000e3d4:	e3a02002 	mov	r2, #2
8000e3d8:	e3a0100c 	mov	r1, #12
8000e3dc:	ebfffd80 	bl	0x8000d9e4
8000e3e0:	e320f000 	nop	{0}
8000e3e4:	e24bd004 	sub	sp, fp, #4
8000e3e8:	e8bd8800 	pop	{fp, pc}
8000e3ec:	e92d4800 	push	{fp, lr}
8000e3f0:	e28db004 	add	fp, sp, #4
8000e3f4:	e24dd008 	sub	sp, sp, #8
8000e3f8:	e50b0008 	str	r0, [fp, #-8]
8000e3fc:	e50b100c 	str	r1, [fp, #-12]
8000e400:	e51b3008 	ldr	r3, [fp, #-8]
8000e404:	e2830010 	add	r0, r3, #16
8000e408:	e51b300c 	ldr	r3, [fp, #-12]
8000e40c:	e3a02001 	mov	r2, #1
8000e410:	e3a01002 	mov	r1, #2
8000e414:	ebfffd72 	bl	0x8000d9e4
8000e418:	e320f000 	nop	{0}
8000e41c:	e24bd004 	sub	sp, fp, #4
8000e420:	e8bd8800 	pop	{fp, pc}
8000e424:	e92d4800 	push	{fp, lr}
8000e428:	e28db004 	add	fp, sp, #4
8000e42c:	e24dd008 	sub	sp, sp, #8
8000e430:	e50b0008 	str	r0, [fp, #-8]
8000e434:	e50b100c 	str	r1, [fp, #-12]
8000e438:	e51b3008 	ldr	r3, [fp, #-8]
8000e43c:	e283305c 	add	r3, r3, #92	; 0x5c
8000e440:	e51b100c 	ldr	r1, [fp, #-12]
8000e444:	e1a00003 	mov	r0, r3
8000e448:	ebfffd59 	bl	0x8000d9b4
8000e44c:	e320f000 	nop	{0}
8000e450:	e24bd004 	sub	sp, fp, #4
8000e454:	e8bd8800 	pop	{fp, pc}
8000e458:	e92d4800 	push	{fp, lr}
8000e45c:	e28db004 	add	fp, sp, #4
8000e460:	e24dd008 	sub	sp, sp, #8
8000e464:	e50b0008 	str	r0, [fp, #-8]
8000e468:	e50b100c 	str	r1, [fp, #-12]
8000e46c:	e51b3008 	ldr	r3, [fp, #-8]
8000e470:	e2833060 	add	r3, r3, #96	; 0x60
8000e474:	e51b100c 	ldr	r1, [fp, #-12]
8000e478:	e1a00003 	mov	r0, r3
8000e47c:	ebfffd4c 	bl	0x8000d9b4
8000e480:	e320f000 	nop	{0}
8000e484:	e24bd004 	sub	sp, fp, #4
8000e488:	e8bd8800 	pop	{fp, pc}
8000e48c:	e92d4800 	push	{fp, lr}
8000e490:	e28db004 	add	fp, sp, #4
8000e494:	e24dd008 	sub	sp, sp, #8
8000e498:	e50b0008 	str	r0, [fp, #-8]
8000e49c:	e50b100c 	str	r1, [fp, #-12]
8000e4a0:	e51b3008 	ldr	r3, [fp, #-8]
8000e4a4:	e2833064 	add	r3, r3, #100	; 0x64
8000e4a8:	e51b100c 	ldr	r1, [fp, #-12]
8000e4ac:	e1a00003 	mov	r0, r3
8000e4b0:	ebfffd3f 	bl	0x8000d9b4
8000e4b4:	e320f000 	nop	{0}
8000e4b8:	e24bd004 	sub	sp, fp, #4
8000e4bc:	e8bd8800 	pop	{fp, pc}
8000e4c0:	e92d4800 	push	{fp, lr}
8000e4c4:	e28db004 	add	fp, sp, #4
8000e4c8:	e24dd008 	sub	sp, sp, #8
8000e4cc:	e50b0008 	str	r0, [fp, #-8]
8000e4d0:	e50b100c 	str	r1, [fp, #-12]
8000e4d4:	e51b3008 	ldr	r3, [fp, #-8]
8000e4d8:	e2830068 	add	r0, r3, #104	; 0x68
8000e4dc:	e51b300c 	ldr	r3, [fp, #-12]
8000e4e0:	e3a02000 	mov	r2, #0
8000e4e4:	e3e014ff 	mvn	r1, #-16777216	; 0xff000000
8000e4e8:	ebfffd3d 	bl	0x8000d9e4
8000e4ec:	e320f000 	nop	{0}
8000e4f0:	e24bd004 	sub	sp, fp, #4
8000e4f4:	e8bd8800 	pop	{fp, pc}
8000e4f8:	e92d4800 	push	{fp, lr}
8000e4fc:	e28db004 	add	fp, sp, #4
8000e500:	e24dd008 	sub	sp, sp, #8
8000e504:	e50b0008 	str	r0, [fp, #-8]
8000e508:	e51b3008 	ldr	r3, [fp, #-8]
8000e50c:	e283306c 	add	r3, r3, #108	; 0x6c
8000e510:	e3a02000 	mov	r2, #0
8000e514:	e3e014ff 	mvn	r1, #-16777216	; 0xff000000
8000e518:	e1a00003 	mov	r0, r3
8000e51c:	ebfffd4e 	bl	0x8000da5c
8000e520:	e1a03000 	mov	r3, r0
8000e524:	e1a00003 	mov	r0, r3
8000e528:	e24bd004 	sub	sp, fp, #4
8000e52c:	e8bd8800 	pop	{fp, pc}
8000e530:	e92d4800 	push	{fp, lr}
8000e534:	e28db004 	add	fp, sp, #4
8000e538:	e24dd008 	sub	sp, sp, #8
8000e53c:	e50b0008 	str	r0, [fp, #-8]
8000e540:	e50b100c 	str	r1, [fp, #-12]
8000e544:	e51b3008 	ldr	r3, [fp, #-8]
8000e548:	e283006c 	add	r0, r3, #108	; 0x6c
8000e54c:	e51b300c 	ldr	r3, [fp, #-12]
8000e550:	e3a02000 	mov	r2, #0
8000e554:	e3e014ff 	mvn	r1, #-16777216	; 0xff000000
8000e558:	ebfffd21 	bl	0x8000d9e4
8000e55c:	e320f000 	nop	{0}
8000e560:	e24bd004 	sub	sp, fp, #4
8000e564:	e8bd8800 	pop	{fp, pc}
8000e568:	e92d4800 	push	{fp, lr}
8000e56c:	e28db004 	add	fp, sp, #4
8000e570:	e24dd008 	sub	sp, sp, #8
8000e574:	e50b0008 	str	r0, [fp, #-8]
8000e578:	e50b100c 	str	r1, [fp, #-12]
8000e57c:	e51b300c 	ldr	r3, [fp, #-12]
8000e580:	e2833054 	add	r3, r3, #84	; 0x54
8000e584:	e3a02002 	mov	r2, #2
8000e588:	e3a01004 	mov	r1, #4
8000e58c:	e1a00003 	mov	r0, r3
8000e590:	ebfffd31 	bl	0x8000da5c
8000e594:	e1a03000 	mov	r3, r0
8000e598:	e3530000 	cmp	r3, #0
8000e59c:	0a000007 	beq	0x8000e5c0
8000e5a0:	e320f000 	nop	{0}
8000e5a4:	e51b000c 	ldr	r0, [fp, #-12]
8000e5a8:	ebffff75 	bl	0x8000e384
8000e5ac:	e1a02000 	mov	r2, r0
8000e5b0:	e51b3008 	ldr	r3, [fp, #-8]
8000e5b4:	e0033002 	and	r3, r3, r2
8000e5b8:	e3530000 	cmp	r3, #0
8000e5bc:	1afffff8 	bne	0x8000e5a4
8000e5c0:	e320f000 	nop	{0}
8000e5c4:	e24bd004 	sub	sp, fp, #4
8000e5c8:	e8bd8800 	pop	{fp, pc}
8000e5cc:	6f727245 	svcvs	0x00727245
8000e5d0:	49202172 	stmdbmi	r0!, {r1, r4, r5, r6, r8, sp}
8000e5d4:	6c61766e 	stclvs	6, cr7, [r1], #-440	; 0xfffffe48
8000e5d8:	43206469 			; <UNDEFINED> instruction: 0x43206469
8000e5dc:	6f736e6f 	svcvs	0x00736e6f
8000e5e0:	7320656c 			; <UNDEFINED> instruction: 0x7320656c
8000e5e4:	63656c65 	cmnvs	r5, #25856	; 0x6500
8000e5e8:	6e6f6974 			; <UNDEFINED> instruction: 0x6e6f6974
8000e5ec:	00000a0d 	andeq	r0, r0, sp, lsl #20
8000e5f0:	6f727245 	svcvs	0x00727245
8000e5f4:	53202172 			; <UNDEFINED> instruction: 0x53202172
8000e5f8:	48696d65 	stmdami	r9!, {r0, r2, r5, r6, r8, sl, fp, sp, lr}^
8000e5fc:	6974736f 	ldmdbvs	r4!, {r0, r1, r2, r3, r5, r6, r8, r9, ip, sp, lr}^
8000e600:	5320676e 			; <UNDEFINED> instruction: 0x5320676e
8000e604:	6f707075 	svcvs	0x00707075
8000e608:	69207472 	stmdbvs	r0!, {r1, r4, r5, r6, sl, ip, sp, lr}
8000e60c:	6f6e2073 	svcvs	0x006e2073
8000e610:	6e652074 	mcrvs	0, 3, r2, cr5, cr4, {3}
8000e614:	656c6261 	strbvs	r6, [ip, #-609]!	; 0xfffffd9f
8000e618:	000a0d64 	andeq	r0, sl, r4, ror #26
8000e61c:	6c6c6568 	cfstr64vs	mvdx6, [ip], #-416	; 0xfffffe60
8000e620:	0000006f 	andeq	r0, r0, pc, rrx
	...
8000e62c:	555c3a43 	ldrbpl	r3, [ip, #-2627]	; 0xfffff5bd
8000e630:	73726573 	cmnvc	r2, #482344960	; 0x1cc00000
8000e634:	72614d5c 	rsbvc	r4, r1, #92, 26	; 0x1700
8000e638:	69726167 	ldmdbvs	r2!, {r0, r1, r2, r5, r6, r8, sp, lr}^
8000e63c:	445c6174 	ldrbmi	r6, [ip], #-372	; 0xfffffe8c
8000e640:	746b7365 	strbtvc	r7, [fp], #-869	; 0xfffffc9b
8000e644:	4f5c706f 	svcmi	0x005c706f
8000e648:	5c4c4153 	stfple	f4, [ip], {83}	; 0x53
8000e64c:	6a6f7270 	bvs	0x81beb014
8000e650:	5c746365 	ldclpl	3, cr6, [r4], #-404	; 0xfffffe6c
8000e654:	6a6f7270 	bvs	0x81beb01c
8000e658:	32746365 	rsbscc	r6, r4, #-1811939327	; 0x94000001
8000e65c:	6372735c 	cmnvs	r2, #92, 6	; 0x70000001
8000e660:	434d4d5c 	movtmi	r4, #56668	; 0xdd5c
8000e664:	645f4453 	ldrbvs	r4, [pc], #-1107	; 0x8000e66c
8000e668:	632e7672 			; <UNDEFINED> instruction: 0x632e7672
8000e66c:	00000000 	andeq	r0, r0, r0
8000e670:	8000e6ec 	andhi	lr, r0, ip, ror #13
8000e674:	8000f208 	andhi	pc, r0, r8, lsl #4
8000e678:	8000e864 	andhi	lr, r0, r4, ror #16
8000e67c:	8000e6ec 	andhi	lr, r0, ip, ror #13
8000e680:	8000f4c0 	andhi	pc, r0, r0, asr #9
8000e684:	8000e8cc 	andhi	lr, r0, ip, asr #17
8000e688:	8000e6ec 	andhi	lr, r0, ip, ror #13
8000e68c:	8000f778 	andhi	pc, r0, r8, ror r7	; <UNPREDICTABLE>
8000e690:	8000e934 	andhi	lr, r0, r4, lsr r9
	...
8000e6ac:	00ff0fff 	ldrshteq	r0, [pc], #255
8000e6b0:	ccc3ccff 	stclgt	12, cr12, [r3], {255}	; 0xff
8000e6b4:	ffcc3cc3 			; <UNDEFINED> instruction: 0xffcc3cc3
8000e6b8:	effefffe 	svc	0x00fefffe
8000e6bc:	ddffdfff 	ldclle	15, cr13, [pc, #1020]!	; 0x8000eac0
8000e6c0:	fbfffbff 	blx	0x8000d6c6
8000e6c4:	ff7fffbf 			; <UNDEFINED> instruction: 0xff7fffbf
8000e6c8:	efbdf777 	svc	0x00bdf777
8000e6cc:	f0fff0ff 			; <UNDEFINED> instruction: 0xf0fff0ff
8000e6d0:	3cccfc0f 	stclcc	12, cr15, [ip], {15}
8000e6d4:	cfcc33cc 	svcgt	0x00cc33cc
8000e6d8:	eeffefff 	mrc	15, 7, lr, cr15, cr15, {7}
8000e6dc:	fdfffdff 	ldc2l	13, cr15, [pc, #1020]!	; 0x8000eae0
8000e6e0:	ffbfffdf 			; <UNDEFINED> instruction: 0xffbfffdf
8000e6e4:	fff7ffbb 			; <UNDEFINED> instruction: 0xfff7ffbb
8000e6e8:	de7b7ff7 	mrcle	15, 3, r7, cr11, cr7, {7}
8000e6ec:	800014e8 	andhi	r1, r0, r8, ror #9
8000e6f0:	80004614 	andhi	r4, r0, r4, lsl r6
8000e6f4:	8000162c 	andhi	r1, r0, ip, lsr #12
8000e6f8:	80001684 	andhi	r1, r0, r4, lsl #13
8000e6fc:	80001120 	andhi	r1, r0, r0, lsr #2
8000e700:	80001304 	andhi	r1, r0, r4, lsl #6
8000e704:	555c3a43 	ldrbpl	r3, [ip, #-2627]	; 0xfffff5bd
8000e708:	73726573 	cmnvc	r2, #482344960	; 0x1cc00000
8000e70c:	72614d5c 	rsbvc	r4, r1, #92, 26	; 0x1700
8000e710:	69726167 	ldmdbvs	r2!, {r0, r1, r2, r5, r6, r8, sp, lr}^
8000e714:	445c6174 	ldrbmi	r6, [ip], #-372	; 0xfffffe8c
8000e718:	746b7365 	strbtvc	r7, [fp], #-869	; 0xfffffc9b
8000e71c:	4f5c706f 	svcmi	0x005c706f
8000e720:	5c4c4153 	stfple	f4, [ip], {83}	; 0x53
8000e724:	6a6f7270 	bvs	0x81beb0ec
8000e728:	5c746365 	ldclpl	3, cr6, [r4], #-404	; 0xfffffe6c
8000e72c:	6a6f7270 	bvs	0x81beb0f4
8000e730:	32746365 	rsbscc	r6, r4, #-1811939327	; 0x94000001
8000e734:	6372735c 	cmnvs	r2, #92, 6	; 0x70000001
8000e738:	434d4d5c 	movtmi	r4, #56668	; 0xdd5c
8000e73c:	765f4453 			; <UNDEFINED> instruction: 0x765f4453
8000e740:	00632e31 	rsbeq	r2, r3, r1, lsr lr
8000e744:	00000003 	andeq	r0, r0, r3
8000e748:	00000002 	andeq	r0, r0, r2
8000e74c:	00000004 	andeq	r0, r0, r4
8000e750:	00000001 	andeq	r0, r0, r1
8000e754:	00000000 	andeq	r0, r0, r0
8000e758:	00000002 	andeq	r0, r0, r2
8000e75c:	00000032 	andeq	r0, r0, r2, lsr r0
	...
8000e768:	33323130 	teqcc	r2, #48, 2
8000e76c:	37363534 			; <UNDEFINED> instruction: 0x37363534
8000e770:	62613938 	rsbvs	r3, r1, #56, 18	; 0xe0000
8000e774:	66656463 	strbtvs	r6, [r5], -r3, ror #8
8000e778:	00000000 	andeq	r0, r0, r0
8000e77c:	8000e768 	andhi	lr, r0, r8, ror #14
8000e780:	00000020 	andeq	r0, r0, r0, lsr #32
8000e784:	4f525245 	svcmi	0x00525245
8000e788:	00000052 	andeq	r0, r0, r2, asr r0
8000e78c:	6d726f46 	ldclvs	15, cr6, [r2, #-280]!	; 0xfffffee8
8000e790:	73207461 			; <UNDEFINED> instruction: 0x73207461
8000e794:	69636570 	stmdbvs	r3!, {r4, r5, r6, r8, sl, sp, lr}^
8000e798:	72656966 	rsbvc	r6, r5, #1671168	; 0x198000
8000e79c:	20736920 	rsbscs	r6, r3, r0, lsr #18
8000e7a0:	20746f6e 	rsbscs	r6, r4, lr, ror #30
8000e7a4:	70707573 	rsbsvc	r7, r0, r3, ror r5
8000e7a8:	6574726f 	ldrbvs	r7, [r4, #-623]!	; 0xfffffd91
8000e7ac:	000a0d64 	andeq	r0, sl, r4, ror #26
8000e7b0:	61766e49 	cmnvs	r6, r9, asr #28
8000e7b4:	2064696c 	rsbcs	r6, r4, ip, ror #18
8000e7b8:	6d726f66 	ldclvs	15, cr6, [r2, #-408]!	; 0xfffffe68
8000e7bc:	73207461 			; <UNDEFINED> instruction: 0x73207461
8000e7c0:	69636570 	stmdbvs	r3!, {r4, r5, r6, r8, sl, sp, lr}^
8000e7c4:	72656966 	rsbvc	r6, r5, #1671168	; 0x198000
8000e7c8:	000a0d73 	andeq	r0, sl, r3, ror sp
8000e7cc:	555c3a43 	ldrbpl	r3, [ip, #-2627]	; 0xfffff5bd
8000e7d0:	73726573 	cmnvc	r2, #482344960	; 0x1cc00000
8000e7d4:	72614d5c 	rsbvc	r4, r1, #92, 26	; 0x1700
8000e7d8:	69726167 	ldmdbvs	r2!, {r0, r1, r2, r5, r6, r8, sp, lr}^
8000e7dc:	445c6174 	ldrbmi	r6, [ip], #-372	; 0xfffffe8c
8000e7e0:	746b7365 	strbtvc	r7, [fp], #-869	; 0xfffffc9b
8000e7e4:	4f5c706f 	svcmi	0x005c706f
8000e7e8:	5c4c4153 	stfple	f4, [ip], {83}	; 0x53
8000e7ec:	6c61736f 	stclvs	3, cr7, [r1], #-444	; 0xfffffe44
8000e7f0:	6372732f 	cmnvs	r2, #-1140850688	; 0xbc000000
8000e7f4:	6977482f 	ldmdbvs	r7!, {r0, r1, r2, r3, r5, fp, lr}^
8000e7f8:	6f6e5f50 	svcvs	0x006e5f50
8000e7fc:	2e736f6e 	cdpcs	15, 7, cr6, cr3, cr14, {3}
8000e800:	00000063 	andeq	r0, r0, r3, rrx
8000e804:	555c3a43 	ldrbpl	r3, [ip, #-2627]	; 0xfffff5bd
8000e808:	73726573 	cmnvc	r2, #482344960	; 0x1cc00000
8000e80c:	72614d5c 	rsbvc	r4, r1, #92, 26	; 0x1700
8000e810:	69726167 	ldmdbvs	r2!, {r0, r1, r2, r5, r6, r8, sp, lr}^
8000e814:	445c6174 	ldrbmi	r6, [ip], #-372	; 0xfffffe8c
8000e818:	746b7365 	strbtvc	r7, [fp], #-869	; 0xfffffc9b
8000e81c:	4f5c706f 	svcmi	0x005c706f
8000e820:	5c4c4153 	stfple	f4, [ip], {83}	; 0x53
8000e824:	6c61736f 	stclvs	3, cr7, [r1], #-444	; 0xfffffe44
8000e828:	6372732f 	cmnvs	r2, #-1140850688	; 0xbc000000
8000e82c:	6d65532f 	stclvs	3, cr5, [r5, #-188]!	; 0xffffff44
8000e830:	6f687061 	svcvs	0x00687061
8000e834:	5f506572 	svcpl	0x00506572
8000e838:	6f6e6f6e 	svcvs	0x006e6f6e
8000e83c:	00632e73 	rsbeq	r2, r3, r3, ror lr

Disassembly of section .init:

8000e840 <.init>:
8000e840:	e24bd028 	sub	sp, fp, #40	; 0x28
8000e844:	e89d6ff0 	ldm	sp, {r4, r5, r6, r7, r8, r9, sl, fp, sp, lr}
8000e848:	e12fff1e 	bx	lr

Disassembly of section .fini:

8000e84c <.fini>:
8000e84c:	e24bd028 	sub	sp, fp, #40	; 0x28
8000e850:	e89d6ff0 	ldm	sp, {r4, r5, r6, r7, r8, r9, sl, fp, sp, lr}
8000e854:	e12fff1e 	bx	lr

Disassembly of section .ARM.exidx:

8000e858 <.ARM.exidx>:
8000e858:	7fffd5c4 	svcvc	0x00ffd5c4
8000e85c:	00000001 	andeq	r0, r0, r1

Disassembly of section .data:

8000e860 <.data>:
8000e860:	ffffffff 			; <UNDEFINED> instruction: 0xffffffff
8000e864:	00000000 	andeq	r0, r0, r0
8000e868:	48060000 	stmdami	r6, {}	; <UNPREDICTABLE>
8000e86c:	00000040 	andeq	r0, r0, r0, asr #32
8000e870:	00000052 	andeq	r0, r0, r2, asr r0
8000e874:	05b8d800 	ldreq	sp, [r8, #2048]!	; 0x800
8000e878:	00061a80 	andeq	r1, r6, r0, lsl #21
8000e87c:	00000000 	andeq	r0, r0, r0
8000e880:	00000005 	andeq	r0, r0, r5
8000e884:	00000002 	andeq	r0, r0, r2
8000e888:	00000001 	andeq	r0, r0, r1
	...
8000e89c:	00000001 	andeq	r0, r0, r1
8000e8a0:	00000019 	andeq	r0, r0, r9, lsl r0
8000e8a4:	00000018 	andeq	r0, r0, r8, lsl r0
	...
8000e8c0:	ffffffff 			; <UNDEFINED> instruction: 0xffffffff
8000e8c4:	ffffffff 			; <UNDEFINED> instruction: 0xffffffff
8000e8c8:	ffffffff 			; <UNDEFINED> instruction: 0xffffffff
8000e8cc:	00000001 	andeq	r0, r0, r1
8000e8d0:	481d8000 	ldmdami	sp, {pc}
8000e8d4:	0000001c 	andeq	r0, r0, ip, lsl r0
8000e8d8:	00000052 	andeq	r0, r0, r2, asr r0
8000e8dc:	05b8d800 	ldreq	sp, [r8, #2048]!	; 0x800
8000e8e0:	00061a80 	andeq	r1, r6, r0, lsl #21
8000e8e4:	00000002 	andeq	r0, r0, r2
8000e8e8:	00000008 	andeq	r0, r0, r8
8000e8ec:	00000002 	andeq	r0, r0, r2
8000e8f0:	00000001 	andeq	r0, r0, r1
	...
8000e904:	00000001 	andeq	r0, r0, r1
8000e908:	00000003 	andeq	r0, r0, r3
8000e90c:	00000002 	andeq	r0, r0, r2
	...
8000e928:	ffffffff 			; <UNDEFINED> instruction: 0xffffffff
8000e92c:	ffffffff 			; <UNDEFINED> instruction: 0xffffffff
8000e930:	ffffffff 			; <UNDEFINED> instruction: 0xffffffff
8000e934:	00000002 	andeq	r0, r0, r2
8000e938:	47810000 	strmi	r0, [r1, r0]
8000e93c:	0000001d 	andeq	r0, r0, sp, lsl r0
8000e940:	00000052 	andeq	r0, r0, r2, asr r0
8000e944:	05b8d800 	ldreq	sp, [r8, #2048]!	; 0x800
8000e948:	00061a80 	andeq	r1, r6, r0, lsl #21
8000e94c:	00000000 	andeq	r0, r0, r0
8000e950:	00000005 	andeq	r0, r0, r5
8000e954:	00000002 	andeq	r0, r0, r2
8000e958:	00000001 	andeq	r0, r0, r1
	...
8000e96c:	00000001 	andeq	r0, r0, r1
8000e970:	00000040 	andeq	r0, r0, r0, asr #32
8000e974:	00000040 	andeq	r0, r0, r0, asr #32
	...
8000e990:	ffffffff 			; <UNDEFINED> instruction: 0xffffffff
8000e994:	ffffffff 			; <UNDEFINED> instruction: 0xffffffff
8000e998:	ffffffff 			; <UNDEFINED> instruction: 0xffffffff
	...
8000e9b0:	00000001 	andeq	r0, r0, r1
	...
8000e9c0:	00000002 	andeq	r0, r0, r2
	...
8000e9d0:	00000003 	andeq	r0, r0, r3
	...
8000e9e0:	00000004 	andeq	r0, r0, r4
	...
8000e9f0:	00000005 	andeq	r0, r0, r5
	...
8000ea00:	00000006 	andeq	r0, r0, r6
	...
8000ea10:	00000007 	andeq	r0, r0, r7
	...
8000eadc:	00061a80 	andeq	r1, r6, r0, lsl #21
8000eae0:	00005dc0 	andeq	r5, r0, r0, asr #27
8000eae4:	00000000 	andeq	r0, r0, r0
8000eae8:	44e05000 	strbtmi	r5, [r0], #0
	...

Disassembly of section .bss:

8000eb00 <.bss>:
	...

Disassembly of section .heap:

8000fa30 <.heap>:
	...

Disassembly of section .stack:

80010230 <.stack>:
	...

Disassembly of section .comment:

00000000 <.comment>:
   0:	3a434347 	bcc	0x10d0d24
   4:	4e472820 	cdpmi	8, 4, cr2, cr7, cr0, {1}
   8:	6f542055 	svcvs	0x00542055
   c:	20736c6f 	rsbscs	r6, r3, pc, ror #24
  10:	20726f66 	rsbscs	r6, r2, r6, ror #30
  14:	204d5241 	subcs	r5, sp, r1, asr #4
  18:	65626d45 	strbvs	r6, [r2, #-3397]!	; 0xfffff2bb
  1c:	64656464 	strbtvs	r6, [r5], #-1124	; 0xfffffb9c
  20:	6f725020 	svcvs	0x00725020
  24:	73736563 	cmnvc	r3, #415236096	; 0x18c00000
  28:	2073726f 	rsbscs	r7, r3, pc, ror #4
  2c:	30322d36 	eorscc	r2, r2, r6, lsr sp
  30:	712d3731 			; <UNDEFINED> instruction: 0x712d3731
  34:	70752d31 	rsbsvc	r2, r5, r1, lsr sp
  38:	65746164 	ldrbvs	r6, [r4, #-356]!	; 0xfffffe9c
  3c:	2e362029 	cdpcs	0, 3, cr2, cr6, cr9, {1}
  40:	20312e33 	eorscs	r2, r1, r3, lsr lr
  44:	37313032 			; <UNDEFINED> instruction: 0x37313032
  48:	35313230 	ldrcc	r3, [r1, #-560]!	; 0xfffffdd0
  4c:	65722820 	ldrbvs	r2, [r2, #-2080]!	; 0xfffff7e0
  50:	7361656c 	cmnvc	r1, #108, 10	; 0x1b000000
  54:	5b202965 	blpl	0x80a5f0
  58:	2f4d5241 	svccs	0x004d5241
  5c:	65626d65 	strbvs	r6, [r2, #-3429]!	; 0xfffff29b
  60:	64656464 	strbtvs	r6, [r5], #-1124	; 0xfffffb9c
  64:	622d362d 	eorvs	r3, sp, #47185920	; 0x2d00000
  68:	636e6172 	cmnvs	lr, #-2147483620	; 0x8000001c
  6c:	65722068 	ldrbvs	r2, [r2, #-104]!	; 0xffffff98
  70:	69736976 	ldmdbvs	r3!, {r1, r2, r4, r5, r6, r8, fp, sp, lr}^
  74:	32206e6f 	eorcc	r6, r0, #1776	; 0x6f0
  78:	31353534 	teqcc	r5, r4, lsr r5
  7c:	Address 0x0000007c is out of bounds.


Disassembly of section .ARM.attributes:

00000000 <.ARM.attributes>:
   0:	00003841 	andeq	r3, r0, r1, asr #16
   4:	61656100 	cmnvs	r5, r0, lsl #2
   8:	01006962 	tsteq	r0, r2, ror #18
   c:	0000002e 	andeq	r0, r0, lr, lsr #32
  10:	726f4305 	rsbvc	r4, pc, #335544320	; 0x14000000
  14:	2d786574 	cfldr64cs	mvdx6, [r8, #-464]!	; 0xfffffe30
  18:	06003841 	streq	r3, [r0], -r1, asr #16
  1c:	0841070a 	stmdaeq	r1, {r1, r3, r8, r9, sl}^
  20:	0a020901 	beq	0x8242c
  24:	12010c03 	andne	r0, r1, #768	; 0x300
  28:	15011404 	strne	r1, [r1, #-1028]	; 0xfffffbfc
  2c:	18031701 	stmdane	r3, {r0, r8, r9, sl, ip}
  30:	1e011a01 	vmlane.f32	s2, s2, s2
  34:	44012206 	strmi	r2, [r1], #-518	; 0xfffffdfa
  38:	Address 0x00000038 is out of bounds.

