
C:\Users\Margarita\Desktop\OSAL\\flash\OSAL_APP.out:     file format elf32-littlearm


Disassembly of section .text:

00008000 <HW_RD_REG32_RAW>:
    8000:	e52db004 	push	{fp}		; (str fp, [sp, #-4]!)
    8004:	e28db000 	add	fp, sp, #0
    8008:	e24dd014 	sub	sp, sp, #20
    800c:	e50b0010 	str	r0, [fp, #-16]
    8010:	e51b3010 	ldr	r3, [fp, #-16]
    8014:	e5933000 	ldr	r3, [r3]
    8018:	e50b3008 	str	r3, [fp, #-8]
    801c:	e51b3008 	ldr	r3, [fp, #-8]
    8020:	e1a00003 	mov	r0, r3
    8024:	e28bd000 	add	sp, fp, #0
    8028:	e49db004 	pop	{fp}		; (ldr fp, [sp], #4)
    802c:	e12fff1e 	bx	lr

00008030 <CHIPDBEnable>:
    8030:	e52db004 	push	{fp}		; (str fp, [sp, #-4]!)
    8034:	e28db000 	add	fp, sp, #0
    8038:	e30d3a18 	movw	r3, #55832	; 0xda18
    803c:	e3403001 	movt	r3, #1
    8040:	e3a02001 	mov	r2, #1
    8044:	e5832000 	str	r2, [r3]
    8048:	e320f000 	nop	{0}
    804c:	e28bd000 	add	sp, fp, #0
    8050:	e49db004 	pop	{fp}		; (ldr fp, [sp], #4)
    8054:	e12fff1e 	bx	lr

00008058 <CHIPDBDisable>:
    8058:	e52db004 	push	{fp}		; (str fp, [sp, #-4]!)
    805c:	e28db000 	add	fp, sp, #0
    8060:	e30d3a18 	movw	r3, #55832	; 0xda18
    8064:	e3403001 	movt	r3, #1
    8068:	e3a02000 	mov	r2, #0
    806c:	e5832000 	str	r2, [r3]
    8070:	e320f000 	nop	{0}
    8074:	e28bd000 	add	sp, fp, #0
    8078:	e49db004 	pop	{fp}		; (ldr fp, [sp], #4)
    807c:	e12fff1e 	bx	lr

00008080 <CHIPDBModuleMaxInstanceNumber>:
    8080:	e52db004 	push	{fp}		; (str fp, [sp, #-4]!)
    8084:	e28db000 	add	fp, sp, #0
    8088:	e24dd014 	sub	sp, sp, #20
    808c:	e50b0010 	str	r0, [fp, #-16]
    8090:	e3a03000 	mov	r3, #0
    8094:	e50b3008 	str	r3, [fp, #-8]
    8098:	e51b3010 	ldr	r3, [fp, #-16]
    809c:	e353008f 	cmp	r3, #143	; 0x8f
    80a0:	8a00000a 	bhi	80d0 <CHIPDBModuleMaxInstanceNumber+0x50>
    80a4:	e51b3010 	ldr	r3, [fp, #-16]
    80a8:	e2832001 	add	r2, r3, #1
    80ac:	e30d3460 	movw	r3, #54368	; 0xd460
    80b0:	e3403000 	movt	r3, #0
    80b4:	e7932102 	ldr	r2, [r3, r2, lsl #2]
    80b8:	e30d3460 	movw	r3, #54368	; 0xd460
    80bc:	e3403000 	movt	r3, #0
    80c0:	e51b1010 	ldr	r1, [fp, #-16]
    80c4:	e7933101 	ldr	r3, [r3, r1, lsl #2]
    80c8:	e0423003 	sub	r3, r2, r3
    80cc:	e50b3008 	str	r3, [fp, #-8]
    80d0:	e51b3008 	ldr	r3, [fp, #-8]
    80d4:	e1a00003 	mov	r0, r3
    80d8:	e28bd000 	add	sp, fp, #0
    80dc:	e49db004 	pop	{fp}		; (ldr fp, [sp], #4)
    80e0:	e12fff1e 	bx	lr

000080e4 <CHIPDBIsResourcePresent>:
    80e4:	e92d4800 	push	{fp, lr}
    80e8:	e28db004 	add	fp, sp, #4
    80ec:	e24dd018 	sub	sp, sp, #24
    80f0:	e50b0018 	str	r0, [fp, #-24]	; 0xffffffe8
    80f4:	e50b101c 	str	r1, [fp, #-28]	; 0xffffffe4
    80f8:	e3a03000 	mov	r3, #0
    80fc:	e50b3008 	str	r3, [fp, #-8]
    8100:	e51b3018 	ldr	r3, [fp, #-24]	; 0xffffffe8
    8104:	e353008f 	cmp	r3, #143	; 0x8f
    8108:	8a00003b 	bhi	81fc <CHIPDBIsResourcePresent+0x118>
    810c:	e51b3018 	ldr	r3, [fp, #-24]	; 0xffffffe8
    8110:	e2832001 	add	r2, r3, #1
    8114:	e30d3460 	movw	r3, #54368	; 0xd460
    8118:	e3403000 	movt	r3, #0
    811c:	e7932102 	ldr	r2, [r3, r2, lsl #2]
    8120:	e30d3460 	movw	r3, #54368	; 0xd460
    8124:	e3403000 	movt	r3, #0
    8128:	e51b1018 	ldr	r1, [fp, #-24]	; 0xffffffe8
    812c:	e7933101 	ldr	r3, [r3, r1, lsl #2]
    8130:	e0422003 	sub	r2, r2, r3
    8134:	e51b301c 	ldr	r3, [fp, #-28]	; 0xffffffe4
    8138:	e1520003 	cmp	r2, r3
    813c:	9a00002e 	bls	81fc <CHIPDBIsResourcePresent+0x118>
    8140:	e30d3460 	movw	r3, #54368	; 0xd460
    8144:	e3403000 	movt	r3, #0
    8148:	e51b2018 	ldr	r2, [fp, #-24]	; 0xffffffe8
    814c:	e7932102 	ldr	r2, [r3, r2, lsl #2]
    8150:	e51b301c 	ldr	r3, [fp, #-28]	; 0xffffffe4
    8154:	e0823003 	add	r3, r2, r3
    8158:	e50b300c 	str	r3, [fp, #-12]
    815c:	e51b300c 	ldr	r3, [fp, #-12]
    8160:	e353005b 	cmp	r3, #91	; 0x5b
    8164:	8a000024 	bhi	81fc <CHIPDBIsResourcePresent+0x118>
    8168:	eb0000d8 	bl	84d0 <ChipDBReadBasePNEncoding>
    816c:	e50b0010 	str	r0, [fp, #-16]
    8170:	e51b3010 	ldr	r3, [fp, #-16]
    8174:	e35300ff 	cmp	r3, #255	; 0xff
    8178:	1a000002 	bne	8188 <CHIPDBIsResourcePresent+0xa4>
    817c:	e3a03001 	mov	r3, #1
    8180:	e50b3008 	str	r3, [fp, #-8]
    8184:	ea00001c 	b	81fc <CHIPDBIsResourcePresent+0x118>
    8188:	e51b3010 	ldr	r3, [fp, #-16]
    818c:	e3530001 	cmp	r3, #1
    8190:	8a000019 	bhi	81fc <CHIPDBIsResourcePresent+0x118>
    8194:	e51b300c 	ldr	r3, [fp, #-12]
    8198:	e1a002a3 	lsr	r0, r3, #5
    819c:	e30d26a4 	movw	r2, #54948	; 0xd6a4
    81a0:	e3402000 	movt	r2, #0
    81a4:	e51b1010 	ldr	r1, [fp, #-16]
    81a8:	e1a03001 	mov	r3, r1
    81ac:	e1a03083 	lsl	r3, r3, #1
    81b0:	e0833001 	add	r3, r3, r1
    81b4:	e0833000 	add	r3, r3, r0
    81b8:	e7922103 	ldr	r2, [r2, r3, lsl #2]
    81bc:	e51b300c 	ldr	r3, [fp, #-12]
    81c0:	e203301f 	and	r3, r3, #31
    81c4:	e1a03332 	lsr	r3, r2, r3
    81c8:	e2033001 	and	r3, r3, #1
    81cc:	e50b3008 	str	r3, [fp, #-8]
    81d0:	e51b0018 	ldr	r0, [fp, #-24]	; 0xffffffe8
    81d4:	eb0004fa 	bl	95c4 <CHIPDBIsSecureModule>
    81d8:	e1a03000 	mov	r3, r0
    81dc:	e3530000 	cmp	r3, #0
    81e0:	0a000005 	beq	81fc <CHIPDBIsResourcePresent+0x118>
    81e4:	eb00006c 	bl	839c <CHIPDBSecurityLevel>
    81e8:	e1a03000 	mov	r3, r0
    81ec:	e3530002 	cmp	r3, #2
    81f0:	0a000001 	beq	81fc <CHIPDBIsResourcePresent+0x118>
    81f4:	e3a03000 	mov	r3, #0
    81f8:	e50b3008 	str	r3, [fp, #-8]
    81fc:	e51b3008 	ldr	r3, [fp, #-8]
    8200:	e1a00003 	mov	r0, r3
    8204:	e24bd004 	sub	sp, fp, #4
    8208:	e8bd8800 	pop	{fp, pc}

0000820c <CHIPDBResourceMaxFrequency>:
    820c:	e92d4800 	push	{fp, lr}
    8210:	e28db004 	add	fp, sp, #4
    8214:	e24dd018 	sub	sp, sp, #24
    8218:	e50b0018 	str	r0, [fp, #-24]	; 0xffffffe8
    821c:	e3a03000 	mov	r3, #0
    8220:	e50b3008 	str	r3, [fp, #-8]
    8224:	e51b3018 	ldr	r3, [fp, #-24]	; 0xffffffe8
    8228:	e353008f 	cmp	r3, #143	; 0x8f
    822c:	8a000017 	bhi	8290 <CHIPDBResourceMaxFrequency+0x84>
    8230:	e3a01000 	mov	r1, #0
    8234:	e51b0018 	ldr	r0, [fp, #-24]	; 0xffffffe8
    8238:	ebffffa9 	bl	80e4 <CHIPDBIsResourcePresent>
    823c:	e1a03000 	mov	r3, r0
    8240:	e3530001 	cmp	r3, #1
    8244:	1a000011 	bne	8290 <CHIPDBResourceMaxFrequency+0x84>
    8248:	e51b0018 	ldr	r0, [fp, #-24]	; 0xffffffe8
    824c:	eb0004d3 	bl	95a0 <CHIPDBSpeedGradeProcID>
    8250:	e50b000c 	str	r0, [fp, #-12]
    8254:	e51b300c 	ldr	r3, [fp, #-12]
    8258:	e3530000 	cmp	r3, #0
    825c:	1a00000b 	bne	8290 <CHIPDBResourceMaxFrequency+0x84>
    8260:	eb0000a1 	bl	84ec <ChipDBReadSGEncoding>
    8264:	e50b0010 	str	r0, [fp, #-16]
    8268:	e51b3010 	ldr	r3, [fp, #-16]
    826c:	e3530000 	cmp	r3, #0
    8270:	1a000006 	bne	8290 <CHIPDBResourceMaxFrequency+0x84>
    8274:	e30d36bc 	movw	r3, #54972	; 0xd6bc
    8278:	e3403000 	movt	r3, #0
    827c:	e51b100c 	ldr	r1, [fp, #-12]
    8280:	e51b2010 	ldr	r2, [fp, #-16]
    8284:	e0812002 	add	r2, r1, r2
    8288:	e7933102 	ldr	r3, [r3, r2, lsl #2]
    828c:	e50b3008 	str	r3, [fp, #-8]
    8290:	e51b3008 	ldr	r3, [fp, #-8]
    8294:	e1a00003 	mov	r0, r3
    8298:	e24bd004 	sub	sp, fp, #4
    829c:	e8bd8800 	pop	{fp, pc}

000082a0 <CHIPDBMaxJunctionTemperature>:
    82a0:	e92d4800 	push	{fp, lr}
    82a4:	e28db004 	add	fp, sp, #4
    82a8:	e24dd008 	sub	sp, sp, #8
    82ac:	eb000098 	bl	8514 <ChipDBReadJTEncoding>
    82b0:	e50b000c 	str	r0, [fp, #-12]
    82b4:	e51b300c 	ldr	r3, [fp, #-12]
    82b8:	e3530001 	cmp	r3, #1
    82bc:	1a000002 	bne	82cc <CHIPDBMaxJunctionTemperature+0x2c>
    82c0:	e3a0307d 	mov	r3, #125	; 0x7d
    82c4:	e50b3008 	str	r3, [fp, #-8]
    82c8:	ea000001 	b	82d4 <CHIPDBMaxJunctionTemperature+0x34>
    82cc:	e3a03069 	mov	r3, #105	; 0x69
    82d0:	e50b3008 	str	r3, [fp, #-8]
    82d4:	e51b3008 	ldr	r3, [fp, #-8]
    82d8:	e1a00003 	mov	r0, r3
    82dc:	e24bd004 	sub	sp, fp, #4
    82e0:	e8bd8800 	pop	{fp, pc}

000082e4 <CHIPDBMinJunctionTemperature>:
    82e4:	e92d4800 	push	{fp, lr}
    82e8:	e28db004 	add	fp, sp, #4
    82ec:	e24dd008 	sub	sp, sp, #8
    82f0:	eb000087 	bl	8514 <ChipDBReadJTEncoding>
    82f4:	e50b000c 	str	r0, [fp, #-12]
    82f8:	e51b300c 	ldr	r3, [fp, #-12]
    82fc:	e3530001 	cmp	r3, #1
    8300:	1a000002 	bne	8310 <CHIPDBMinJunctionTemperature+0x2c>
    8304:	e3e03027 	mvn	r3, #39	; 0x27
    8308:	e50b3008 	str	r3, [fp, #-8]
    830c:	ea000001 	b	8318 <CHIPDBMinJunctionTemperature+0x34>
    8310:	e3e03027 	mvn	r3, #39	; 0x27
    8314:	e50b3008 	str	r3, [fp, #-8]
    8318:	e51b3008 	ldr	r3, [fp, #-8]
    831c:	e1a00003 	mov	r0, r3
    8320:	e24bd004 	sub	sp, fp, #4
    8324:	e8bd8800 	pop	{fp, pc}

00008328 <CHIPDBPackageType>:
    8328:	e92d4800 	push	{fp, lr}
    832c:	e28db004 	add	fp, sp, #4
    8330:	e24dd008 	sub	sp, sp, #8
    8334:	eb000080 	bl	853c <ChipDBReadPackageEncoding>
    8338:	e50b000c 	str	r0, [fp, #-12]
    833c:	e51b300c 	ldr	r3, [fp, #-12]
    8340:	e3530001 	cmp	r3, #1
    8344:	1a000002 	bne	8354 <CHIPDBPackageType+0x2c>
    8348:	e3a03002 	mov	r3, #2
    834c:	e50b3008 	str	r3, [fp, #-8]
    8350:	ea000007 	b	8374 <CHIPDBPackageType+0x4c>
    8354:	e51b300c 	ldr	r3, [fp, #-12]
    8358:	e3530002 	cmp	r3, #2
    835c:	1a000002 	bne	836c <CHIPDBPackageType+0x44>
    8360:	e3a03001 	mov	r3, #1
    8364:	e50b3008 	str	r3, [fp, #-8]
    8368:	ea000001 	b	8374 <CHIPDBPackageType+0x4c>
    836c:	e3e03000 	mvn	r3, #0
    8370:	e50b3008 	str	r3, [fp, #-8]
    8374:	e51b3008 	ldr	r3, [fp, #-8]
    8378:	e1a00003 	mov	r0, r3
    837c:	e24bd004 	sub	sp, fp, #4
    8380:	e8bd8800 	pop	{fp, pc}

00008384 <CHIPDBDeviceRevision>:
    8384:	e92d4800 	push	{fp, lr}
    8388:	e28db004 	add	fp, sp, #4
    838c:	eb000074 	bl	8564 <ChipDBReadRevisionEncoding>
    8390:	e1a03000 	mov	r3, r0
    8394:	e1a00003 	mov	r0, r3
    8398:	e8bd8800 	pop	{fp, pc}

0000839c <CHIPDBSecurityLevel>:
    839c:	e92d4800 	push	{fp, lr}
    83a0:	e28db004 	add	fp, sp, #4
    83a4:	eb000085 	bl	85c0 <ChipDBReadSecurityLevel>
    83a8:	e1a03000 	mov	r3, r0
    83ac:	e1a00003 	mov	r0, r3
    83b0:	e8bd8800 	pop	{fp, pc}

000083b4 <CHIPDBBaseAddress>:
    83b4:	e52db004 	push	{fp}		; (str fp, [sp, #-4]!)
    83b8:	e28db000 	add	fp, sp, #0
    83bc:	e24dd014 	sub	sp, sp, #20
    83c0:	e50b0010 	str	r0, [fp, #-16]
    83c4:	e50b1014 	str	r1, [fp, #-20]	; 0xffffffec
    83c8:	e3e03000 	mvn	r3, #0
    83cc:	e50b3008 	str	r3, [fp, #-8]
    83d0:	e51b3010 	ldr	r3, [fp, #-16]
    83d4:	e353008f 	cmp	r3, #143	; 0x8f
    83d8:	8a00000e 	bhi	8418 <CHIPDBBaseAddress+0x64>
    83dc:	e30d3460 	movw	r3, #54368	; 0xd460
    83e0:	e3403000 	movt	r3, #0
    83e4:	e51b2010 	ldr	r2, [fp, #-16]
    83e8:	e7932102 	ldr	r2, [r3, r2, lsl #2]
    83ec:	e51b3014 	ldr	r3, [fp, #-20]	; 0xffffffec
    83f0:	e0823003 	add	r3, r2, r3
    83f4:	e50b300c 	str	r3, [fp, #-12]
    83f8:	e51b300c 	ldr	r3, [fp, #-12]
    83fc:	e353005b 	cmp	r3, #91	; 0x5b
    8400:	8a000004 	bhi	8418 <CHIPDBBaseAddress+0x64>
    8404:	e30d36c0 	movw	r3, #54976	; 0xd6c0
    8408:	e3403000 	movt	r3, #0
    840c:	e51b200c 	ldr	r2, [fp, #-12]
    8410:	e7933102 	ldr	r3, [r3, r2, lsl #2]
    8414:	e50b3008 	str	r3, [fp, #-8]
    8418:	e51b3008 	ldr	r3, [fp, #-8]
    841c:	e1a00003 	mov	r0, r3
    8420:	e28bd000 	add	sp, fp, #0
    8424:	e49db004 	pop	{fp}		; (ldr fp, [sp], #4)
    8428:	e12fff1e 	bx	lr

0000842c <ChipDBInterruptNum>:
    842c:	e52db004 	push	{fp}		; (str fp, [sp, #-4]!)
    8430:	e28db000 	add	fp, sp, #0
    8434:	e24dd01c 	sub	sp, sp, #28
    8438:	e50b0010 	str	r0, [fp, #-16]
    843c:	e50b1014 	str	r1, [fp, #-20]	; 0xffffffec
    8440:	e50b2018 	str	r2, [fp, #-24]	; 0xffffffe8
    8444:	e3e03000 	mvn	r3, #0
    8448:	e50b3008 	str	r3, [fp, #-8]
    844c:	e51b3010 	ldr	r3, [fp, #-16]
    8450:	e353008f 	cmp	r3, #143	; 0x8f
    8454:	8a000018 	bhi	84bc <ChipDBInterruptNum+0x90>
    8458:	e30d3460 	movw	r3, #54368	; 0xd460
    845c:	e3403000 	movt	r3, #0
    8460:	e51b2010 	ldr	r2, [fp, #-16]
    8464:	e7932102 	ldr	r2, [r3, r2, lsl #2]
    8468:	e51b3014 	ldr	r3, [fp, #-20]	; 0xffffffec
    846c:	e0823003 	add	r3, r2, r3
    8470:	e50b300c 	str	r3, [fp, #-12]
    8474:	e51b300c 	ldr	r3, [fp, #-12]
    8478:	e353005b 	cmp	r3, #91	; 0x5b
    847c:	8a00000e 	bhi	84bc <ChipDBInterruptNum+0x90>
    8480:	e30d3a1c 	movw	r3, #55836	; 0xda1c
    8484:	e3403001 	movt	r3, #1
    8488:	e51b200c 	ldr	r2, [fp, #-12]
    848c:	e7933102 	ldr	r3, [r3, r2, lsl #2]
    8490:	e3530000 	cmp	r3, #0
    8494:	0a000008 	beq	84bc <ChipDBInterruptNum+0x90>
    8498:	e30d3a1c 	movw	r3, #55836	; 0xda1c
    849c:	e3403001 	movt	r3, #1
    84a0:	e51b200c 	ldr	r2, [fp, #-12]
    84a4:	e7932102 	ldr	r2, [r3, r2, lsl #2]
    84a8:	e51b3018 	ldr	r3, [fp, #-24]	; 0xffffffe8
    84ac:	e1a03083 	lsl	r3, r3, #1
    84b0:	e0823003 	add	r3, r2, r3
    84b4:	e1d330b0 	ldrh	r3, [r3]
    84b8:	e50b3008 	str	r3, [fp, #-8]
    84bc:	e51b3008 	ldr	r3, [fp, #-8]
    84c0:	e1a00003 	mov	r0, r3
    84c4:	e28bd000 	add	sp, fp, #0
    84c8:	e49db004 	pop	{fp}		; (ldr fp, [sp], #4)
    84cc:	e12fff1e 	bx	lr

000084d0 <ChipDBReadBasePNEncoding>:
    84d0:	e52db004 	push	{fp}		; (str fp, [sp, #-4]!)
    84d4:	e28db000 	add	fp, sp, #0
    84d8:	e3a03000 	mov	r3, #0
    84dc:	e1a00003 	mov	r0, r3
    84e0:	e28bd000 	add	sp, fp, #0
    84e4:	e49db004 	pop	{fp}		; (ldr fp, [sp], #4)
    84e8:	e12fff1e 	bx	lr

000084ec <ChipDBReadSGEncoding>:
    84ec:	e52db004 	push	{fp}		; (str fp, [sp, #-4]!)
    84f0:	e28db000 	add	fp, sp, #0
    84f4:	e24dd00c 	sub	sp, sp, #12
    84f8:	e3a03017 	mov	r3, #23
    84fc:	e50b3008 	str	r3, [fp, #-8]
    8500:	e51b3008 	ldr	r3, [fp, #-8]
    8504:	e1a00003 	mov	r0, r3
    8508:	e28bd000 	add	sp, fp, #0
    850c:	e49db004 	pop	{fp}		; (ldr fp, [sp], #4)
    8510:	e12fff1e 	bx	lr

00008514 <ChipDBReadJTEncoding>:
    8514:	e52db004 	push	{fp}		; (str fp, [sp, #-4]!)
    8518:	e28db000 	add	fp, sp, #0
    851c:	e24dd00c 	sub	sp, sp, #12
    8520:	e3a03000 	mov	r3, #0
    8524:	e50b3008 	str	r3, [fp, #-8]
    8528:	e51b3008 	ldr	r3, [fp, #-8]
    852c:	e1a00003 	mov	r0, r3
    8530:	e28bd000 	add	sp, fp, #0
    8534:	e49db004 	pop	{fp}		; (ldr fp, [sp], #4)
    8538:	e12fff1e 	bx	lr

0000853c <ChipDBReadPackageEncoding>:
    853c:	e52db004 	push	{fp}		; (str fp, [sp, #-4]!)
    8540:	e28db000 	add	fp, sp, #0
    8544:	e24dd00c 	sub	sp, sp, #12
    8548:	e3a03001 	mov	r3, #1
    854c:	e50b3008 	str	r3, [fp, #-8]
    8550:	e51b3008 	ldr	r3, [fp, #-8]
    8554:	e1a00003 	mov	r0, r3
    8558:	e28bd000 	add	sp, fp, #0
    855c:	e49db004 	pop	{fp}		; (ldr fp, [sp], #4)
    8560:	e12fff1e 	bx	lr

00008564 <ChipDBReadRevisionEncoding>:
    8564:	e92d4800 	push	{fp, lr}
    8568:	e28db004 	add	fp, sp, #4
    856c:	e24dd010 	sub	sp, sp, #16
    8570:	e3a03000 	mov	r3, #0
    8574:	e50b3008 	str	r3, [fp, #-8]
    8578:	e3a03c06 	mov	r3, #1536	; 0x600
    857c:	e34434e1 	movt	r3, #17633	; 0x44e1
    8580:	e50b300c 	str	r3, [fp, #-12]
    8584:	e30d3a18 	movw	r3, #55832	; 0xda18
    8588:	e3403001 	movt	r3, #1
    858c:	e5933000 	ldr	r3, [r3]
    8590:	e3530001 	cmp	r3, #1
    8594:	1a000005 	bne	85b0 <ChipDBReadRevisionEncoding+0x4c>
    8598:	e51b000c 	ldr	r0, [fp, #-12]
    859c:	ebfffe97 	bl	8000 <HW_RD_REG32_RAW>
    85a0:	e50b0010 	str	r0, [fp, #-16]
    85a4:	e51b3010 	ldr	r3, [fp, #-16]
    85a8:	e1a03e23 	lsr	r3, r3, #28
    85ac:	e50b3008 	str	r3, [fp, #-8]
    85b0:	e51b3008 	ldr	r3, [fp, #-8]
    85b4:	e1a00003 	mov	r0, r3
    85b8:	e24bd004 	sub	sp, fp, #4
    85bc:	e8bd8800 	pop	{fp, pc}

000085c0 <ChipDBReadSecurityLevel>:
    85c0:	e92d4800 	push	{fp, lr}
    85c4:	e28db004 	add	fp, sp, #4
    85c8:	e24dd010 	sub	sp, sp, #16
    85cc:	e3a03003 	mov	r3, #3
    85d0:	e50b3008 	str	r3, [fp, #-8]
    85d4:	e3a03003 	mov	r3, #3
    85d8:	e54b3009 	strb	r3, [fp, #-9]
    85dc:	e3a03040 	mov	r3, #64	; 0x40
    85e0:	e34434e1 	movt	r3, #17633	; 0x44e1
    85e4:	e50b3010 	str	r3, [fp, #-16]
    85e8:	e30d3a18 	movw	r3, #55832	; 0xda18
    85ec:	e3403001 	movt	r3, #1
    85f0:	e5933000 	ldr	r3, [r3]
    85f4:	e3530001 	cmp	r3, #1
    85f8:	1a00001d 	bne	8674 <ChipDBReadSecurityLevel+0xb4>
    85fc:	e51b0010 	ldr	r0, [fp, #-16]
    8600:	ebfffe7e 	bl	8000 <HW_RD_REG32_RAW>
    8604:	e50b0014 	str	r0, [fp, #-20]	; 0xffffffec
    8608:	e51b3014 	ldr	r3, [fp, #-20]	; 0xffffffec
    860c:	e1a03423 	lsr	r3, r3, #8
    8610:	e2033007 	and	r3, r3, #7
    8614:	e50b3008 	str	r3, [fp, #-8]
    8618:	e55b3009 	ldrb	r3, [fp, #-9]
    861c:	e3530003 	cmp	r3, #3
    8620:	979ff103 	ldrls	pc, [pc, r3, lsl #2]
    8624:	ea00000f 	b	8668 <ChipDBReadSecurityLevel+0xa8>
    8628:	00008638 	andeq	r8, r0, r8, lsr r6
    862c:	00008644 	andeq	r8, r0, r4, asr #12
    8630:	00008650 	andeq	r8, r0, r0, asr r6
    8634:	0000865c 	andeq	r8, r0, ip, asr r6
    8638:	e3a03000 	mov	r3, #0
    863c:	e50b3008 	str	r3, [fp, #-8]
    8640:	ea00000b 	b	8674 <ChipDBReadSecurityLevel+0xb4>
    8644:	e3a03001 	mov	r3, #1
    8648:	e50b3008 	str	r3, [fp, #-8]
    864c:	ea000008 	b	8674 <ChipDBReadSecurityLevel+0xb4>
    8650:	e3a03002 	mov	r3, #2
    8654:	e50b3008 	str	r3, [fp, #-8]
    8658:	ea000005 	b	8674 <ChipDBReadSecurityLevel+0xb4>
    865c:	e3a03003 	mov	r3, #3
    8660:	e50b3008 	str	r3, [fp, #-8]
    8664:	ea000002 	b	8674 <ChipDBReadSecurityLevel+0xb4>
    8668:	e3e03000 	mvn	r3, #0
    866c:	e50b3008 	str	r3, [fp, #-8]
    8670:	e320f000 	nop	{0}
    8674:	e51b3008 	ldr	r3, [fp, #-8]
    8678:	e1a00003 	mov	r0, r3
    867c:	e24bd004 	sub	sp, fp, #4
    8680:	e8bd8800 	pop	{fp, pc}

00008684 <VectorBaseAddrSet>:
    8684:	e52db004 	push	{fp}		; (str fp, [sp, #-4]!)
    8688:	e28db000 	add	fp, sp, #0
    868c:	ee0c0f10 	mcr	15, 0, r0, cr12, cr0, {0}
    8690:	f57ff04f 	dsb	sy
    8694:	e320f000 	nop	{0}
    8698:	e28bd000 	add	sp, fp, #0
    869c:	e49db004 	pop	{fp}		; (ldr fp, [sp], #4)
    86a0:	e12fff1e 	bx	lr

000086a4 <start_boot>:
    86a4:	e92d4800 	push	{fp, lr}
    86a8:	e28db004 	add	fp, sp, #4
    86ac:	eb000005 	bl	86c8 <CopyVectorTable>
    86b0:	eb000576 	bl	9c90 <MMUConfigAndEnable>
    86b4:	e3a01003 	mov	r1, #3
    86b8:	e3a00003 	mov	r0, #3
    86bc:	eb000124 	bl	8b54 <CACHEEnable>
    86c0:	eb00049e 	bl	9940 <main>
    86c4:	eafffffe 	b	86c4 <start_boot+0x20>

000086c8 <CopyVectorTable>:
    86c8:	e92d4800 	push	{fp, lr}
    86cc:	e28db004 	add	fp, sp, #4
    86d0:	e24dd018 	sub	sp, sp, #24
    86d4:	e3a03801 	mov	r3, #65536	; 0x10000
    86d8:	e50b300c 	str	r3, [fp, #-12]
    86dc:	e3a03000 	mov	r3, #0
    86e0:	e3443030 	movt	r3, #16432	; 0x4030
    86e4:	e50b3010 	str	r3, [fp, #-16]
    86e8:	e51b2010 	ldr	r2, [fp, #-16]
    86ec:	e51b300c 	ldr	r3, [fp, #-12]
    86f0:	e0823003 	add	r3, r2, r3
    86f4:	e2433b01 	sub	r3, r3, #1024	; 0x400
    86f8:	e50b3010 	str	r3, [fp, #-16]
    86fc:	e51b3010 	ldr	r3, [fp, #-16]
    8700:	e50b3014 	str	r3, [fp, #-20]	; 0xffffffec
    8704:	e30d3428 	movw	r3, #54312	; 0xd428
    8708:	e3403000 	movt	r3, #0
    870c:	e50b3018 	str	r3, [fp, #-24]	; 0xffffffe8
    8710:	e51b0010 	ldr	r0, [fp, #-16]
    8714:	ebffffda 	bl	8684 <VectorBaseAddrSet>
    8718:	e3a03000 	mov	r3, #0
    871c:	e50b3008 	str	r3, [fp, #-8]
    8720:	ea00000c 	b	8758 <CopyVectorTable+0x90>
    8724:	e51b3008 	ldr	r3, [fp, #-8]
    8728:	e1a03103 	lsl	r3, r3, #2
    872c:	e51b2014 	ldr	r2, [fp, #-20]	; 0xffffffec
    8730:	e0823003 	add	r3, r2, r3
    8734:	e51b2008 	ldr	r2, [fp, #-8]
    8738:	e1a02102 	lsl	r2, r2, #2
    873c:	e51b1018 	ldr	r1, [fp, #-24]	; 0xffffffe8
    8740:	e0812002 	add	r2, r1, r2
    8744:	e5922000 	ldr	r2, [r2]
    8748:	e5832000 	str	r2, [r3]
    874c:	e51b3008 	ldr	r3, [fp, #-8]
    8750:	e2833001 	add	r3, r3, #1
    8754:	e50b3008 	str	r3, [fp, #-8]
    8758:	e51b3008 	ldr	r3, [fp, #-8]
    875c:	e353000d 	cmp	r3, #13
    8760:	9affffef 	bls	8724 <CopyVectorTable+0x5c>
    8764:	e320f000 	nop	{0}
    8768:	e24bd004 	sub	sp, fp, #4
    876c:	e8bd8800 	pop	{fp, pc}

00008770 <OsalArch_compileTime_SizeChk>:
    8770:	e52db004 	push	{fp}		; (str fp, [sp, #-4]!)
    8774:	e28db000 	add	fp, sp, #0
    8778:	e24dd00c 	sub	sp, sp, #12
    877c:	e320f000 	nop	{0}
    8780:	e28bd000 	add	sp, fp, #0
    8784:	e49db004 	pop	{fp}		; (ldr fp, [sp], #4)
    8788:	e12fff1e 	bx	lr

0000878c <OsalArch_ISRStub>:
    878c:	e92d4800 	push	{fp, lr}
    8790:	e28db004 	add	fp, sp, #4
    8794:	e24dd018 	sub	sp, sp, #24
    8798:	e50b0010 	str	r0, [fp, #-16]
    879c:	e50b1014 	str	r1, [fp, #-20]	; 0xffffffec
    87a0:	e50b2018 	str	r2, [fp, #-24]	; 0xffffffe8
    87a4:	e51b3018 	ldr	r3, [fp, #-24]	; 0xffffffe8
    87a8:	e50b3008 	str	r3, [fp, #-8]
    87ac:	e51b3008 	ldr	r3, [fp, #-8]
    87b0:	e5933004 	ldr	r3, [r3, #4]
    87b4:	e51b2008 	ldr	r2, [fp, #-8]
    87b8:	e5922008 	ldr	r2, [r2, #8]
    87bc:	e1a00002 	mov	r0, r2
    87c0:	e12fff33 	blx	r3
    87c4:	e320f000 	nop	{0}
    87c8:	e24bd004 	sub	sp, fp, #4
    87cc:	e8bd8800 	pop	{fp, pc}

000087d0 <CONSOLEUtilsPuts>:
    87d0:	e52db004 	push	{fp}		; (str fp, [sp, #-4]!)
    87d4:	e28db000 	add	fp, sp, #0
    87d8:	e24dd00c 	sub	sp, sp, #12
    87dc:	e50b0008 	str	r0, [fp, #-8]
    87e0:	e3a03000 	mov	r3, #0
    87e4:	e1a00003 	mov	r0, r3
    87e8:	e28bd000 	add	sp, fp, #0
    87ec:	e49db004 	pop	{fp}		; (ldr fp, [sp], #4)
    87f0:	e12fff1e 	bx	lr

000087f4 <OsalArch_enableInterrupt>:
    87f4:	e92d4800 	push	{fp, lr}
    87f8:	e28db004 	add	fp, sp, #4
    87fc:	e24dd008 	sub	sp, sp, #8
    8800:	e50b0008 	str	r0, [fp, #-8]
    8804:	e51b0008 	ldr	r0, [fp, #-8]
    8808:	eb000617 	bl	a06c <INTCEnableIntr>
    880c:	e320f000 	nop	{0}
    8810:	e24bd004 	sub	sp, fp, #4
    8814:	e8bd8800 	pop	{fp, pc}

00008818 <OsalArch_disableInterrupt>:
    8818:	e92d4800 	push	{fp, lr}
    881c:	e28db004 	add	fp, sp, #4
    8820:	e24dd008 	sub	sp, sp, #8
    8824:	e50b0008 	str	r0, [fp, #-8]
    8828:	e51b0008 	ldr	r0, [fp, #-8]
    882c:	eb00062c 	bl	a0e4 <INTCDisableIntr>
    8830:	e320f000 	nop	{0}
    8834:	e24bd004 	sub	sp, fp, #4
    8838:	e8bd8800 	pop	{fp, pc}

0000883c <OsalArch_clearInterrupt>:
    883c:	e92d4800 	push	{fp, lr}
    8840:	e28db004 	add	fp, sp, #4
    8844:	e24dd008 	sub	sp, sp, #8
    8848:	e50b0008 	str	r0, [fp, #-8]
    884c:	e51b0008 	ldr	r0, [fp, #-8]
    8850:	eb00065f 	bl	a1d4 <INTCClearIntr>
    8854:	e320f000 	nop	{0}
    8858:	e24bd004 	sub	sp, fp, #4
    885c:	e8bd8800 	pop	{fp, pc}

00008860 <OsalArch_globalDisableInterrupt>:
    8860:	e92d4800 	push	{fp, lr}
    8864:	e28db004 	add	fp, sp, #4
    8868:	eb000653 	bl	a1bc <INTCDisableCpuIntr>
    886c:	e1a03000 	mov	r3, r0
    8870:	e1a00003 	mov	r0, r3
    8874:	e8bd8800 	pop	{fp, pc}

00008878 <OsalArch_globalRestoreInterrupt>:
    8878:	e92d4800 	push	{fp, lr}
    887c:	e28db004 	add	fp, sp, #4
    8880:	e24dd008 	sub	sp, sp, #8
    8884:	e50b0008 	str	r0, [fp, #-8]
    8888:	e51b0008 	ldr	r0, [fp, #-8]
    888c:	eb000632 	bl	a15c <INTCEnableCpuIntr>
    8890:	e320f000 	nop	{0}
    8894:	e24bd004 	sub	sp, fp, #4
    8898:	e8bd8800 	pop	{fp, pc}

0000889c <OsalArch_HwiPCreate>:
    889c:	e92d4800 	push	{fp, lr}
    88a0:	e28db004 	add	fp, sp, #4
    88a4:	e24dd040 	sub	sp, sp, #64	; 0x40
    88a8:	e50b0038 	str	r0, [fp, #-56]	; 0xffffffc8
    88ac:	e50b103c 	str	r1, [fp, #-60]	; 0xffffffc4
    88b0:	e50b2040 	str	r2, [fp, #-64]	; 0xffffffc0
    88b4:	e3a03000 	mov	r3, #0
    88b8:	e50b3008 	str	r3, [fp, #-8]
    88bc:	e30d3d7c 	movw	r3, #56700	; 0xdd7c
    88c0:	e3403001 	movt	r3, #1
    88c4:	e5933018 	ldr	r3, [r3, #24]
    88c8:	e3530000 	cmp	r3, #0
    88cc:	0a000010 	beq	8914 <OsalArch_HwiPCreate+0x78>
    88d0:	e30d3d7c 	movw	r3, #56700	; 0xdd7c
    88d4:	e3403001 	movt	r3, #1
    88d8:	e5933018 	ldr	r3, [r3, #24]
    88dc:	e50b3010 	str	r3, [fp, #-16]
    88e0:	e30d3d7c 	movw	r3, #56700	; 0xdd7c
    88e4:	e3403001 	movt	r3, #1
    88e8:	e593201c 	ldr	r2, [r3, #28]
    88ec:	e51b3010 	ldr	r3, [fp, #-16]
    88f0:	e0823003 	add	r3, r2, r3
    88f4:	e50b301c 	str	r3, [fp, #-28]	; 0xffffffe4
    88f8:	e51b201c 	ldr	r2, [fp, #-28]	; 0xffffffe4
    88fc:	e30a3aab 	movw	r3, #43691	; 0xaaab
    8900:	e34a3aaa 	movt	r3, #43690	; 0xaaaa
    8904:	e0832392 	umull	r2, r3, r2, r3
    8908:	e1a031a3 	lsr	r3, r3, #3
    890c:	e50b3014 	str	r3, [fp, #-20]	; 0xffffffec
    8910:	ea000004 	b	8928 <OsalArch_HwiPCreate+0x8c>
    8914:	e3003000 	movw	r3, #0
    8918:	e3403002 	movt	r3, #2
    891c:	e50b3010 	str	r3, [fp, #-16]
    8920:	e3a0300a 	mov	r3, #10
    8924:	e50b3014 	str	r3, [fp, #-20]	; 0xffffffec
    8928:	e51b3040 	ldr	r3, [fp, #-64]	; 0xffffffc0
    892c:	e3530000 	cmp	r3, #0
    8930:	1a000001 	bne	893c <OsalArch_HwiPCreate+0xa0>
    8934:	e3a03000 	mov	r3, #0
    8938:	ea000069 	b	8ae4 <OsalArch_HwiPCreate+0x248>
    893c:	ebffffc7 	bl	8860 <OsalArch_globalDisableInterrupt>
    8940:	e50b0020 	str	r0, [fp, #-32]	; 0xffffffe0
    8944:	e3a03000 	mov	r3, #0
    8948:	e50b300c 	str	r3, [fp, #-12]
    894c:	ea000010 	b	8994 <OsalArch_HwiPCreate+0xf8>
    8950:	e51b300c 	ldr	r3, [fp, #-12]
    8954:	e1a03203 	lsl	r3, r3, #4
    8958:	e51b2010 	ldr	r2, [fp, #-16]
    895c:	e0823003 	add	r3, r2, r3
    8960:	e1d330b0 	ldrh	r3, [r3]
    8964:	e3530000 	cmp	r3, #0
    8968:	1a000006 	bne	8988 <OsalArch_HwiPCreate+0xec>
    896c:	e51b300c 	ldr	r3, [fp, #-12]
    8970:	e1a03203 	lsl	r3, r3, #4
    8974:	e51b2010 	ldr	r2, [fp, #-16]
    8978:	e0823003 	add	r3, r2, r3
    897c:	e3a02001 	mov	r2, #1
    8980:	e1c320b0 	strh	r2, [r3]
    8984:	ea000006 	b	89a4 <OsalArch_HwiPCreate+0x108>
    8988:	e51b300c 	ldr	r3, [fp, #-12]
    898c:	e2833001 	add	r3, r3, #1
    8990:	e50b300c 	str	r3, [fp, #-12]
    8994:	e51b200c 	ldr	r2, [fp, #-12]
    8998:	e51b3014 	ldr	r3, [fp, #-20]	; 0xffffffec
    899c:	e1520003 	cmp	r2, r3
    89a0:	3affffea 	bcc	8950 <OsalArch_HwiPCreate+0xb4>
    89a4:	e51b0020 	ldr	r0, [fp, #-32]	; 0xffffffe0
    89a8:	ebffffb2 	bl	8878 <OsalArch_globalRestoreInterrupt>
    89ac:	e51b200c 	ldr	r2, [fp, #-12]
    89b0:	e51b3014 	ldr	r3, [fp, #-20]	; 0xffffffec
    89b4:	e1520003 	cmp	r2, r3
    89b8:	0a00000b 	beq	89ec <OsalArch_HwiPCreate+0x150>
    89bc:	e51b300c 	ldr	r3, [fp, #-12]
    89c0:	e1a03203 	lsl	r3, r3, #4
    89c4:	e51b2010 	ldr	r2, [fp, #-16]
    89c8:	e0823003 	add	r3, r2, r3
    89cc:	e2833004 	add	r3, r3, #4
    89d0:	e50b3008 	str	r3, [fp, #-8]
    89d4:	e51b300c 	ldr	r3, [fp, #-12]
    89d8:	e1a03203 	lsl	r3, r3, #4
    89dc:	e51b2010 	ldr	r2, [fp, #-16]
    89e0:	e0823003 	add	r3, r2, r3
    89e4:	e50b3018 	str	r3, [fp, #-24]	; 0xffffffe8
    89e8:	ea000001 	b	89f4 <OsalArch_HwiPCreate+0x158>
    89ec:	e3a03000 	mov	r3, #0
    89f0:	e50b3018 	str	r3, [fp, #-24]	; 0xffffffe8
    89f4:	e3a00000 	mov	r0, #0
    89f8:	eb000523 	bl	9e8c <INTCInit>
    89fc:	e51b3040 	ldr	r3, [fp, #-64]	; 0xffffffc0
    8a00:	e5933010 	ldr	r3, [r3, #16]
    8a04:	e2433002 	sub	r3, r3, #2
    8a08:	e3530004 	cmp	r3, #4
    8a0c:	979ff103 	ldrls	pc, [pc, r3, lsl #2]
    8a10:	ea000010 	b	8a58 <OsalArch_HwiPCreate+0x1bc>
    8a14:	00008a28 	andeq	r8, r0, r8, lsr #20
    8a18:	00008a58 	andeq	r8, r0, r8, asr sl
    8a1c:	00008a4c 	andeq	r8, r0, ip, asr #20
    8a20:	00008a40 	andeq	r8, r0, r0, asr #20
    8a24:	00008a34 	andeq	r8, r0, r4, lsr sl
    8a28:	e3a03004 	mov	r3, #4
    8a2c:	e54b3034 	strb	r3, [fp, #-52]	; 0xffffffcc
    8a30:	ea00000b 	b	8a64 <OsalArch_HwiPCreate+0x1c8>
    8a34:	e3a03003 	mov	r3, #3
    8a38:	e54b3034 	strb	r3, [fp, #-52]	; 0xffffffcc
    8a3c:	ea000008 	b	8a64 <OsalArch_HwiPCreate+0x1c8>
    8a40:	e3a03002 	mov	r3, #2
    8a44:	e54b3034 	strb	r3, [fp, #-52]	; 0xffffffcc
    8a48:	ea000005 	b	8a64 <OsalArch_HwiPCreate+0x1c8>
    8a4c:	e3a03001 	mov	r3, #1
    8a50:	e54b3034 	strb	r3, [fp, #-52]	; 0xffffffcc
    8a54:	ea000002 	b	8a64 <OsalArch_HwiPCreate+0x1c8>
    8a58:	e3a03000 	mov	r3, #0
    8a5c:	e54b3034 	strb	r3, [fp, #-52]	; 0xffffffcc
    8a60:	e320f000 	nop	{0}
    8a64:	e51b3008 	ldr	r3, [fp, #-8]
    8a68:	e3530000 	cmp	r3, #0
    8a6c:	0a00001b 	beq	8ae0 <OsalArch_HwiPCreate+0x244>
    8a70:	e51b3040 	ldr	r3, [fp, #-64]	; 0xffffffc0
    8a74:	e5933004 	ldr	r3, [r3, #4]
    8a78:	e1a02003 	mov	r2, r3
    8a7c:	e51b3008 	ldr	r3, [fp, #-8]
    8a80:	e5832008 	str	r2, [r3, #8]
    8a84:	e51b3008 	ldr	r3, [fp, #-8]
    8a88:	e51b203c 	ldr	r2, [fp, #-60]	; 0xffffffc4
    8a8c:	e5832004 	str	r2, [r3, #4]
    8a90:	e51b2038 	ldr	r2, [fp, #-56]	; 0xffffffc8
    8a94:	e51b3008 	ldr	r3, [fp, #-8]
    8a98:	e5832000 	str	r2, [r3]
    8a9c:	e51b3040 	ldr	r3, [fp, #-64]	; 0xffffffc0
    8aa0:	e5933008 	ldr	r3, [r3, #8]
    8aa4:	e50b3030 	str	r3, [fp, #-48]	; 0xffffffd0
    8aa8:	e308378c 	movw	r3, #34700	; 0x878c
    8aac:	e3403000 	movt	r3, #0
    8ab0:	e50b302c 	str	r3, [fp, #-44]	; 0xffffffd4
    8ab4:	e51b3008 	ldr	r3, [fp, #-8]
    8ab8:	e50b3028 	str	r3, [fp, #-40]	; 0xffffffd8
    8abc:	e3a03000 	mov	r3, #0
    8ac0:	e50b3024 	str	r3, [fp, #-36]	; 0xffffffdc
    8ac4:	e51b3038 	ldr	r3, [fp, #-56]	; 0xffffffc8
    8ac8:	e24b1034 	sub	r1, fp, #52	; 0x34
    8acc:	e3a02000 	mov	r2, #0
    8ad0:	e1a00003 	mov	r0, r3
    8ad4:	eb000520 	bl	9f5c <INTCConfigIntr>
    8ad8:	e51b0038 	ldr	r0, [fp, #-56]	; 0xffffffc8
    8adc:	eb000337 	bl	97c0 <HwiP_enableInterrupt>
    8ae0:	e51b3018 	ldr	r3, [fp, #-24]	; 0xffffffe8
    8ae4:	e1a00003 	mov	r0, r3
    8ae8:	e24bd004 	sub	sp, fp, #4
    8aec:	e8bd8800 	pop	{fp, pc}

00008af0 <OsalArch_HwiPDelete>:
    8af0:	e92d4800 	push	{fp, lr}
    8af4:	e28db004 	add	fp, sp, #4
    8af8:	e24dd010 	sub	sp, sp, #16
    8afc:	e50b0010 	str	r0, [fp, #-16]
    8b00:	e51b3010 	ldr	r3, [fp, #-16]
    8b04:	e50b3008 	str	r3, [fp, #-8]
    8b08:	ebffff54 	bl	8860 <OsalArch_globalDisableInterrupt>
    8b0c:	e50b000c 	str	r0, [fp, #-12]
    8b10:	e51b3008 	ldr	r3, [fp, #-8]
    8b14:	e3a02000 	mov	r2, #0
    8b18:	e1c320b0 	strh	r2, [r3]
    8b1c:	e51b000c 	ldr	r0, [fp, #-12]
    8b20:	ebffff54 	bl	8878 <OsalArch_globalRestoreInterrupt>
    8b24:	e3a03000 	mov	r3, #0
    8b28:	e1a00003 	mov	r0, r3
    8b2c:	e24bd004 	sub	sp, fp, #4
    8b30:	e8bd8800 	pop	{fp, pc}

00008b34 <CACHERegisterOuterCache>:
    8b34:	e52db004 	push	{fp}		; (str fp, [sp, #-4]!)
    8b38:	e28db000 	add	fp, sp, #0
    8b3c:	e24dd00c 	sub	sp, sp, #12
    8b40:	e50b0008 	str	r0, [fp, #-8]
    8b44:	e320f000 	nop	{0}
    8b48:	e28bd000 	add	sp, fp, #0
    8b4c:	e49db004 	pop	{fp}		; (ldr fp, [sp], #4)
    8b50:	e12fff1e 	bx	lr

00008b54 <CACHEEnable>:
    8b54:	e92d4800 	push	{fp, lr}
    8b58:	e28db004 	add	fp, sp, #4
    8b5c:	e24dd008 	sub	sp, sp, #8
    8b60:	e50b0008 	str	r0, [fp, #-8]
    8b64:	e50b100c 	str	r1, [fp, #-12]
    8b68:	e51b3008 	ldr	r3, [fp, #-8]
    8b6c:	e2033001 	and	r3, r3, #1
    8b70:	e3530000 	cmp	r3, #0
    8b74:	0a000000 	beq	8b7c <CACHEEnable+0x28>
    8b78:	eb0000f0 	bl	8f40 <CP15ICacheEnable>
    8b7c:	e51b3008 	ldr	r3, [fp, #-8]
    8b80:	e2033002 	and	r3, r3, #2
    8b84:	e3530000 	cmp	r3, #0
    8b88:	0a000007 	beq	8bac <CACHEEnable+0x58>
    8b8c:	eb0000ef 	bl	8f50 <CP15DCacheEnable>
    8b90:	eb0001f8 	bl	9378 <CP15MainIdPrimPartNumGet>
    8b94:	e1a02000 	mov	r2, r0
    8b98:	e3003c08 	movw	r3, #3080	; 0xc08
    8b9c:	e1520003 	cmp	r2, r3
    8ba0:	1a000001 	bne	8bac <CACHEEnable+0x58>
    8ba4:	e3a00002 	mov	r0, #2
    8ba8:	eb0001e8 	bl	9350 <CP15AuxControlFeatureEnable>
    8bac:	e320f000 	nop	{0}
    8bb0:	e24bd004 	sub	sp, fp, #4
    8bb4:	e8bd8800 	pop	{fp, pc}

00008bb8 <CACHEDisable>:
    8bb8:	e92d4800 	push	{fp, lr}
    8bbc:	e28db004 	add	fp, sp, #4
    8bc0:	e24dd008 	sub	sp, sp, #8
    8bc4:	e50b0008 	str	r0, [fp, #-8]
    8bc8:	e50b100c 	str	r1, [fp, #-12]
    8bcc:	e51b300c 	ldr	r3, [fp, #-12]
    8bd0:	e2033003 	and	r3, r3, #3
    8bd4:	e3530000 	cmp	r3, #0
    8bd8:	0a000010 	beq	8c20 <CACHEDisable+0x68>
    8bdc:	e51b3008 	ldr	r3, [fp, #-8]
    8be0:	e2033001 	and	r3, r3, #1
    8be4:	e3530000 	cmp	r3, #0
    8be8:	0a000000 	beq	8bf0 <CACHEDisable+0x38>
    8bec:	eb0000c5 	bl	8f08 <CP15ICacheDisable>
    8bf0:	e51b3008 	ldr	r3, [fp, #-8]
    8bf4:	e2033002 	and	r3, r3, #2
    8bf8:	e3530000 	cmp	r3, #0
    8bfc:	0a000007 	beq	8c20 <CACHEDisable+0x68>
    8c00:	eb0000c7 	bl	8f24 <CP15DCacheDisable>
    8c04:	eb0001db 	bl	9378 <CP15MainIdPrimPartNumGet>
    8c08:	e1a02000 	mov	r2, r0
    8c0c:	e3003c08 	movw	r3, #3080	; 0xc08
    8c10:	e1520003 	cmp	r2, r3
    8c14:	1a000001 	bne	8c20 <CACHEDisable+0x68>
    8c18:	e3a00002 	mov	r0, #2
    8c1c:	eb0001d0 	bl	9364 <CP15AuxControlFeatureDisable>
    8c20:	e320f000 	nop	{0}
    8c24:	e24bd004 	sub	sp, fp, #4
    8c28:	e8bd8800 	pop	{fp, pc}

00008c2c <CACHEDataCleanAll>:
    8c2c:	e92d4800 	push	{fp, lr}
    8c30:	e28db004 	add	fp, sp, #4
    8c34:	eb0000ee 	bl	8ff4 <CP15DCacheClean>
    8c38:	e320f000 	nop	{0}
    8c3c:	e8bd8800 	pop	{fp, pc}

00008c40 <CACHEDataCleanRange>:
    8c40:	e92d4800 	push	{fp, lr}
    8c44:	e28db004 	add	fp, sp, #4
    8c48:	e24dd008 	sub	sp, sp, #8
    8c4c:	e50b0008 	str	r0, [fp, #-8]
    8c50:	e50b100c 	str	r1, [fp, #-12]
    8c54:	e51b3008 	ldr	r3, [fp, #-8]
    8c58:	e51b100c 	ldr	r1, [fp, #-12]
    8c5c:	e1a00003 	mov	r0, r3
    8c60:	eb000131 	bl	912c <CP15DCacheCleanBuff>
    8c64:	e320f000 	nop	{0}
    8c68:	e24bd004 	sub	sp, fp, #4
    8c6c:	e8bd8800 	pop	{fp, pc}

00008c70 <CACHEInstInvAll>:
    8c70:	e92d4800 	push	{fp, lr}
    8c74:	e28db004 	add	fp, sp, #4
    8c78:	eb000127 	bl	911c <CP15ICacheFlush>
    8c7c:	e320f000 	nop	{0}
    8c80:	e8bd8800 	pop	{fp, pc}

00008c84 <CACHEDataInvAll>:
    8c84:	e92d4800 	push	{fp, lr}
    8c88:	e28db004 	add	fp, sp, #4
    8c8c:	eb0000b3 	bl	8f60 <CP15DCacheFlush>
    8c90:	e320f000 	nop	{0}
    8c94:	e8bd8800 	pop	{fp, pc}

00008c98 <CACHEDataInvRange>:
    8c98:	e92d4800 	push	{fp, lr}
    8c9c:	e28db004 	add	fp, sp, #4
    8ca0:	e24dd008 	sub	sp, sp, #8
    8ca4:	e50b0008 	str	r0, [fp, #-8]
    8ca8:	e50b100c 	str	r1, [fp, #-12]
    8cac:	e51b3008 	ldr	r3, [fp, #-8]
    8cb0:	e51b100c 	ldr	r1, [fp, #-12]
    8cb4:	e1a00003 	mov	r0, r3
    8cb8:	eb000145 	bl	91d4 <CP15DCacheFlushBuff>
    8cbc:	e320f000 	nop	{0}
    8cc0:	e24bd004 	sub	sp, fp, #4
    8cc4:	e8bd8800 	pop	{fp, pc}

00008cc8 <CACHEDataCleanInvAll>:
    8cc8:	e92d4800 	push	{fp, lr}
    8ccc:	e28db004 	add	fp, sp, #4
    8cd0:	eb0000ec 	bl	9088 <CP15DCacheCleanFlush>
    8cd4:	e320f000 	nop	{0}
    8cd8:	e8bd8800 	pop	{fp, pc}

00008cdc <CACHEDataCleanInvRange>:
    8cdc:	e92d4800 	push	{fp, lr}
    8ce0:	e28db004 	add	fp, sp, #4
    8ce4:	e24dd008 	sub	sp, sp, #8
    8ce8:	e50b0008 	str	r0, [fp, #-8]
    8cec:	e50b100c 	str	r1, [fp, #-12]
    8cf0:	e51b3008 	ldr	r3, [fp, #-8]
    8cf4:	e51b100c 	ldr	r1, [fp, #-12]
    8cf8:	e1a00003 	mov	r0, r3
    8cfc:	eb00011f 	bl	9180 <CP15DCacheCleanFlushBuff>
    8d00:	e320f000 	nop	{0}
    8d04:	e24bd004 	sub	sp, fp, #4
    8d08:	e8bd8800 	pop	{fp, pc}

00008d0c <CACHELockByWay>:
    8d0c:	e92d4800 	push	{fp, lr}
    8d10:	e28db004 	add	fp, sp, #4
    8d14:	e24dd018 	sub	sp, sp, #24
    8d18:	e50b0010 	str	r0, [fp, #-16]
    8d1c:	e50b1014 	str	r1, [fp, #-20]	; 0xffffffec
    8d20:	e50b2018 	str	r2, [fp, #-24]	; 0xffffffe8
    8d24:	e3a03000 	mov	r3, #0
    8d28:	e50b3008 	str	r3, [fp, #-8]
    8d2c:	e3e03000 	mvn	r3, #0
    8d30:	e50b300c 	str	r3, [fp, #-12]
    8d34:	eb0001b4 	bl	940c <CPUIntrDisable>
    8d38:	e50b0008 	str	r0, [fp, #-8]
    8d3c:	e51b1018 	ldr	r1, [fp, #-24]	; 0xffffffe8
    8d40:	e51b0014 	ldr	r0, [fp, #-20]	; 0xffffffec
    8d44:	ebffffbd 	bl	8c40 <CACHEDataCleanRange>
    8d48:	e51b1018 	ldr	r1, [fp, #-24]	; 0xffffffe8
    8d4c:	e51b0014 	ldr	r0, [fp, #-20]	; 0xffffffec
    8d50:	ebffffd0 	bl	8c98 <CACHEDataInvRange>
    8d54:	e51b0008 	ldr	r0, [fp, #-8]
    8d58:	eb0001bd 	bl	9454 <CPUIntrEnable>
    8d5c:	e51b300c 	ldr	r3, [fp, #-12]
    8d60:	e1a00003 	mov	r0, r3
    8d64:	e24bd004 	sub	sp, fp, #4
    8d68:	e8bd8800 	pop	{fp, pc}

00008d6c <CACHEUnlockByWay>:
    8d6c:	e52db004 	push	{fp}		; (str fp, [sp, #-4]!)
    8d70:	e28db000 	add	fp, sp, #0
    8d74:	e24dd014 	sub	sp, sp, #20
    8d78:	e50b0010 	str	r0, [fp, #-16]
    8d7c:	e3e03000 	mvn	r3, #0
    8d80:	e50b3008 	str	r3, [fp, #-8]
    8d84:	e51b3008 	ldr	r3, [fp, #-8]
    8d88:	e1a00003 	mov	r0, r3
    8d8c:	e28bd000 	add	sp, fp, #0
    8d90:	e49db004 	pop	{fp}		; (ldr fp, [sp], #4)
    8d94:	e12fff1e 	bx	lr

00008d98 <CacheInstInvalidateAll>:
    8d98:	e92d4800 	push	{fp, lr}
    8d9c:	e28db004 	add	fp, sp, #4
    8da0:	ebffffb2 	bl	8c70 <CACHEInstInvAll>
    8da4:	e320f000 	nop	{0}
    8da8:	e8bd8800 	pop	{fp, pc}

00008dac <CacheDataCleanInvalidateAll>:
    8dac:	e92d4800 	push	{fp, lr}
    8db0:	e28db004 	add	fp, sp, #4
    8db4:	ebffffc3 	bl	8cc8 <CACHEDataCleanInvAll>
    8db8:	e320f000 	nop	{0}
    8dbc:	e8bd8800 	pop	{fp, pc}

00008dc0 <CacheDataCleanAll>:
    8dc0:	e92d4800 	push	{fp, lr}
    8dc4:	e28db004 	add	fp, sp, #4
    8dc8:	ebffff97 	bl	8c2c <CACHEDataCleanAll>
    8dcc:	e320f000 	nop	{0}
    8dd0:	e8bd8800 	pop	{fp, pc}

00008dd4 <CacheDataInvalidateAll>:
    8dd4:	e92d4800 	push	{fp, lr}
    8dd8:	e28db004 	add	fp, sp, #4
    8ddc:	ebffffa8 	bl	8c84 <CACHEDataInvAll>
    8de0:	e320f000 	nop	{0}
    8de4:	e8bd8800 	pop	{fp, pc}

00008de8 <CacheDataCleanBuff>:
    8de8:	e92d4800 	push	{fp, lr}
    8dec:	e28db004 	add	fp, sp, #4
    8df0:	e24dd008 	sub	sp, sp, #8
    8df4:	e50b0008 	str	r0, [fp, #-8]
    8df8:	e50b100c 	str	r1, [fp, #-12]
    8dfc:	e51b3008 	ldr	r3, [fp, #-8]
    8e00:	e51b100c 	ldr	r1, [fp, #-12]
    8e04:	e1a00003 	mov	r0, r3
    8e08:	ebffff8c 	bl	8c40 <CACHEDataCleanRange>
    8e0c:	e320f000 	nop	{0}
    8e10:	e24bd004 	sub	sp, fp, #4
    8e14:	e8bd8800 	pop	{fp, pc}

00008e18 <CacheDataInvalidateBuff>:
    8e18:	e92d4800 	push	{fp, lr}
    8e1c:	e28db004 	add	fp, sp, #4
    8e20:	e24dd008 	sub	sp, sp, #8
    8e24:	e50b0008 	str	r0, [fp, #-8]
    8e28:	e50b100c 	str	r1, [fp, #-12]
    8e2c:	e51b3008 	ldr	r3, [fp, #-8]
    8e30:	e51b100c 	ldr	r1, [fp, #-12]
    8e34:	e1a00003 	mov	r0, r3
    8e38:	ebffff96 	bl	8c98 <CACHEDataInvRange>
    8e3c:	e320f000 	nop	{0}
    8e40:	e24bd004 	sub	sp, fp, #4
    8e44:	e8bd8800 	pop	{fp, pc}

00008e48 <CacheDataCleanInvalidateBuff>:
    8e48:	e92d4800 	push	{fp, lr}
    8e4c:	e28db004 	add	fp, sp, #4
    8e50:	e24dd008 	sub	sp, sp, #8
    8e54:	e50b0008 	str	r0, [fp, #-8]
    8e58:	e50b100c 	str	r1, [fp, #-12]
    8e5c:	e51b3008 	ldr	r3, [fp, #-8]
    8e60:	e51b100c 	ldr	r1, [fp, #-12]
    8e64:	e1a00003 	mov	r0, r3
    8e68:	ebffff9b 	bl	8cdc <CACHEDataCleanInvRange>
    8e6c:	e320f000 	nop	{0}
    8e70:	e24bd004 	sub	sp, fp, #4
    8e74:	e8bd8800 	pop	{fp, pc}

00008e78 <CacheP_wb>:
    8e78:	e92d4800 	push	{fp, lr}
    8e7c:	e28db004 	add	fp, sp, #4
    8e80:	e24dd008 	sub	sp, sp, #8
    8e84:	e50b0008 	str	r0, [fp, #-8]
    8e88:	e50b100c 	str	r1, [fp, #-12]
    8e8c:	e51b300c 	ldr	r3, [fp, #-12]
    8e90:	e1a01003 	mov	r1, r3
    8e94:	e51b0008 	ldr	r0, [fp, #-8]
    8e98:	ebffff68 	bl	8c40 <CACHEDataCleanRange>
    8e9c:	e320f000 	nop	{0}
    8ea0:	e24bd004 	sub	sp, fp, #4
    8ea4:	e8bd8800 	pop	{fp, pc}

00008ea8 <CacheP_wbInv>:
    8ea8:	e92d4800 	push	{fp, lr}
    8eac:	e28db004 	add	fp, sp, #4
    8eb0:	e24dd008 	sub	sp, sp, #8
    8eb4:	e50b0008 	str	r0, [fp, #-8]
    8eb8:	e50b100c 	str	r1, [fp, #-12]
    8ebc:	e51b300c 	ldr	r3, [fp, #-12]
    8ec0:	e1a01003 	mov	r1, r3
    8ec4:	e51b0008 	ldr	r0, [fp, #-8]
    8ec8:	ebffff83 	bl	8cdc <CACHEDataCleanInvRange>
    8ecc:	e320f000 	nop	{0}
    8ed0:	e24bd004 	sub	sp, fp, #4
    8ed4:	e8bd8800 	pop	{fp, pc}

00008ed8 <CacheP_Inv>:
    8ed8:	e92d4800 	push	{fp, lr}
    8edc:	e28db004 	add	fp, sp, #4
    8ee0:	e24dd008 	sub	sp, sp, #8
    8ee4:	e50b0008 	str	r0, [fp, #-8]
    8ee8:	e50b100c 	str	r1, [fp, #-12]
    8eec:	e51b300c 	ldr	r3, [fp, #-12]
    8ef0:	e1a01003 	mov	r1, r3
    8ef4:	e51b0008 	ldr	r0, [fp, #-8]
    8ef8:	ebffff66 	bl	8c98 <CACHEDataInvRange>
    8efc:	e320f000 	nop	{0}
    8f00:	e24bd004 	sub	sp, fp, #4
    8f04:	e8bd8800 	pop	{fp, pc}

00008f08 <CP15ICacheDisable>:
    8f08:	e52de004 	push	{lr}		; (str lr, [sp, #-4]!)
    8f0c:	ee110f10 	mrc	15, 0, r0, cr1, cr0, {0}
    8f10:	e3c00a01 	bic	r0, r0, #4096	; 0x1000
    8f14:	ee010f10 	mcr	15, 0, r0, cr1, cr0, {0}
    8f18:	eb00007f 	bl	911c <CP15ICacheFlush>
    8f1c:	e49de004 	pop	{lr}		; (ldr lr, [sp], #4)
    8f20:	e12fff1e 	bx	lr

00008f24 <CP15DCacheDisable>:
    8f24:	e92d4ff0 	push	{r4, r5, r6, r7, r8, r9, sl, fp, lr}
    8f28:	ee110f10 	mrc	15, 0, r0, cr1, cr0, {0}
    8f2c:	e3c00004 	bic	r0, r0, #4
    8f30:	ee010f10 	mcr	15, 0, r0, cr1, cr0, {0}
    8f34:	eb000053 	bl	9088 <CP15DCacheCleanFlush>
    8f38:	e8bd4ff0 	pop	{r4, r5, r6, r7, r8, r9, sl, fp, lr}
    8f3c:	e12fff1e 	bx	lr

00008f40 <CP15ICacheEnable>:
    8f40:	ee110f10 	mrc	15, 0, r0, cr1, cr0, {0}
    8f44:	e3800a01 	orr	r0, r0, #4096	; 0x1000
    8f48:	ee010f10 	mcr	15, 0, r0, cr1, cr0, {0}
    8f4c:	e12fff1e 	bx	lr

00008f50 <CP15DCacheEnable>:
    8f50:	ee110f10 	mrc	15, 0, r0, cr1, cr0, {0}
    8f54:	e3800004 	orr	r0, r0, #4
    8f58:	ee010f10 	mcr	15, 0, r0, cr1, cr0, {0}
    8f5c:	e12fff1e 	bx	lr

00008f60 <CP15DCacheFlush>:
    8f60:	e92d0ff0 	push	{r4, r5, r6, r7, r8, r9, sl, fp}
    8f64:	f57ff05f 	dmb	sy
    8f68:	ee300f30 	mrc	15, 1, r0, cr0, cr0, {1}
    8f6c:	e2103407 	ands	r3, r0, #117440512	; 0x7000000
    8f70:	e1a03ba3 	lsr	r3, r3, #23
    8f74:	0a00001a 	beq	8fe4 <ffinished>
    8f78:	e3a0a000 	mov	sl, #0

00008f7c <floop1>:
    8f7c:	e08a20aa 	add	r2, sl, sl, lsr #1
    8f80:	e1a01230 	lsr	r1, r0, r2
    8f84:	e2011007 	and	r1, r1, #7
    8f88:	e3510002 	cmp	r1, #2
    8f8c:	ba000011 	blt	8fd8 <fskip>
    8f90:	ee40af10 	mcr	15, 2, sl, cr0, cr0, {0}
    8f94:	f57ff06f 	isb	sy
    8f98:	ee301f10 	mrc	15, 1, r1, cr0, cr0, {0}
    8f9c:	e2012007 	and	r2, r1, #7
    8fa0:	e2822004 	add	r2, r2, #4
    8fa4:	e59f43dc 	ldr	r4, [pc, #988]	; 9388 <_FLD_MAX_WAY>
    8fa8:	e01441a1 	ands	r4, r4, r1, lsr #3
    8fac:	e16f5f14 	clz	r5, r4
    8fb0:	e59f73d4 	ldr	r7, [pc, #980]	; 938c <_FLD_MAX_IDX>
    8fb4:	e01776a1 	ands	r7, r7, r1, lsr #13

00008fb8 <floop2>:
    8fb8:	e1a09004 	mov	r9, r4

00008fbc <floop3>:
    8fbc:	e18ab519 	orr	fp, sl, r9, lsl r5
    8fc0:	e18bb217 	orr	fp, fp, r7, lsl r2
    8fc4:	ee07bf56 	mcr	15, 0, fp, cr7, cr6, {2}
    8fc8:	e2599001 	subs	r9, r9, #1
    8fcc:	aafffffa 	bge	8fbc <floop3>
    8fd0:	e2577001 	subs	r7, r7, #1
    8fd4:	aafffff7 	bge	8fb8 <floop2>

00008fd8 <fskip>:
    8fd8:	e28aa002 	add	sl, sl, #2
    8fdc:	e153000a 	cmp	r3, sl
    8fe0:	caffffe5 	bgt	8f7c <floop1>

00008fe4 <ffinished>:
    8fe4:	f57ff04f 	dsb	sy
    8fe8:	f57ff06f 	isb	sy
    8fec:	e8bd0ff0 	pop	{r4, r5, r6, r7, r8, r9, sl, fp}
    8ff0:	e12fff1e 	bx	lr

00008ff4 <CP15DCacheClean>:
    8ff4:	e92d0ff0 	push	{r4, r5, r6, r7, r8, r9, sl, fp}
    8ff8:	f57ff05f 	dmb	sy
    8ffc:	ee300f30 	mrc	15, 1, r0, cr0, cr0, {1}
    9000:	e2103407 	ands	r3, r0, #117440512	; 0x7000000
    9004:	e1a03ba3 	lsr	r3, r3, #23
    9008:	0a00001a 	beq	9078 <cfinished>
    900c:	e3a0a000 	mov	sl, #0

00009010 <cloop1>:
    9010:	e08a20aa 	add	r2, sl, sl, lsr #1
    9014:	e1a01230 	lsr	r1, r0, r2
    9018:	e2011007 	and	r1, r1, #7
    901c:	e3510002 	cmp	r1, #2
    9020:	ba000011 	blt	906c <cskip>
    9024:	ee40af10 	mcr	15, 2, sl, cr0, cr0, {0}
    9028:	f57ff06f 	isb	sy
    902c:	ee301f10 	mrc	15, 1, r1, cr0, cr0, {0}
    9030:	e2012007 	and	r2, r1, #7
    9034:	e2822004 	add	r2, r2, #4
    9038:	e59f4348 	ldr	r4, [pc, #840]	; 9388 <_FLD_MAX_WAY>
    903c:	e01441a1 	ands	r4, r4, r1, lsr #3
    9040:	e16f5f14 	clz	r5, r4
    9044:	e59f7340 	ldr	r7, [pc, #832]	; 938c <_FLD_MAX_IDX>
    9048:	e01776a1 	ands	r7, r7, r1, lsr #13

0000904c <cloop2>:
    904c:	e1a09004 	mov	r9, r4

00009050 <cloop3>:
    9050:	e18ab519 	orr	fp, sl, r9, lsl r5
    9054:	e18bb217 	orr	fp, fp, r7, lsl r2
    9058:	ee07bf5a 	mcr	15, 0, fp, cr7, cr10, {2}
    905c:	e2599001 	subs	r9, r9, #1
    9060:	aafffffa 	bge	9050 <cloop3>
    9064:	e2577001 	subs	r7, r7, #1
    9068:	aafffff7 	bge	904c <cloop2>

0000906c <cskip>:
    906c:	e28aa002 	add	sl, sl, #2
    9070:	e153000a 	cmp	r3, sl
    9074:	caffffe5 	bgt	9010 <cloop1>

00009078 <cfinished>:
    9078:	f57ff04f 	dsb	sy
    907c:	f57ff06f 	isb	sy
    9080:	e8bd0ff0 	pop	{r4, r5, r6, r7, r8, r9, sl, fp}
    9084:	e12fff1e 	bx	lr

00009088 <CP15DCacheCleanFlush>:
    9088:	e92d0ff0 	push	{r4, r5, r6, r7, r8, r9, sl, fp}
    908c:	f57ff05f 	dmb	sy
    9090:	ee300f30 	mrc	15, 1, r0, cr0, cr0, {1}
    9094:	e2103407 	ands	r3, r0, #117440512	; 0x7000000
    9098:	e1a03ba3 	lsr	r3, r3, #23
    909c:	0a00001a 	beq	910c <finished>
    90a0:	e3a0a000 	mov	sl, #0

000090a4 <loop1>:
    90a4:	e08a20aa 	add	r2, sl, sl, lsr #1
    90a8:	e1a01230 	lsr	r1, r0, r2
    90ac:	e2011007 	and	r1, r1, #7
    90b0:	e3510002 	cmp	r1, #2
    90b4:	ba000011 	blt	9100 <skip>
    90b8:	ee40af10 	mcr	15, 2, sl, cr0, cr0, {0}
    90bc:	f57ff06f 	isb	sy
    90c0:	ee301f10 	mrc	15, 1, r1, cr0, cr0, {0}
    90c4:	e2012007 	and	r2, r1, #7
    90c8:	e2822004 	add	r2, r2, #4
    90cc:	e59f42b4 	ldr	r4, [pc, #692]	; 9388 <_FLD_MAX_WAY>
    90d0:	e01441a1 	ands	r4, r4, r1, lsr #3
    90d4:	e16f5f14 	clz	r5, r4
    90d8:	e59f72ac 	ldr	r7, [pc, #684]	; 938c <_FLD_MAX_IDX>
    90dc:	e01776a1 	ands	r7, r7, r1, lsr #13

000090e0 <loop2>:
    90e0:	e1a09004 	mov	r9, r4

000090e4 <loop3>:
    90e4:	e18ab519 	orr	fp, sl, r9, lsl r5
    90e8:	e18bb217 	orr	fp, fp, r7, lsl r2
    90ec:	ee07bf5e 	mcr	15, 0, fp, cr7, cr14, {2}
    90f0:	e2599001 	subs	r9, r9, #1
    90f4:	aafffffa 	bge	90e4 <loop3>
    90f8:	e2577001 	subs	r7, r7, #1
    90fc:	aafffff7 	bge	90e0 <loop2>

00009100 <skip>:
    9100:	e28aa002 	add	sl, sl, #2
    9104:	e153000a 	cmp	r3, sl
    9108:	caffffe5 	bgt	90a4 <loop1>

0000910c <finished>:
    910c:	f57ff04f 	dsb	sy
    9110:	f57ff06f 	isb	sy
    9114:	e8bd0ff0 	pop	{r4, r5, r6, r7, r8, r9, sl, fp}
    9118:	e12fff1e 	bx	lr

0000911c <CP15ICacheFlush>:
    911c:	e3a00000 	mov	r0, #0
    9120:	ee070f15 	mcr	15, 0, r0, cr7, cr5, {0}
    9124:	f57ff04f 	dsb	sy
    9128:	e12fff1e 	bx	lr

0000912c <CP15DCacheCleanBuff>:
    912c:	e52de004 	push	{lr}		; (str lr, [sp, #-4]!)
    9130:	e080e001 	add	lr, r0, r1
    9134:	f57ff05f 	dmb	sy
    9138:	ee102f30 	mrc	15, 0, r2, cr0, cr0, {1}
    913c:	e7e32852 	ubfx	r2, r2, #16, #4
    9140:	e3a03002 	mov	r3, #2
    9144:	e0833002 	add	r3, r3, r2
    9148:	e3a02001 	mov	r2, #1
    914c:	e1a02312 	lsl	r2, r2, r3
    9150:	e2423001 	sub	r3, r2, #1
    9154:	e1c00003 	bic	r0, r0, r3
    9158:	e113000e 	tst	r3, lr
    915c:	e1cee003 	bic	lr, lr, r3
    9160:	1e07ef3a 	mcrne	15, 0, lr, cr7, cr10, {1}

00009164 <cleanloop>:
    9164:	ee070f3a 	mcr	15, 0, r0, cr7, cr10, {1}
    9168:	e0900002 	adds	r0, r0, r2
    916c:	e150000e 	cmp	r0, lr
    9170:	bafffffb 	blt	9164 <cleanloop>
    9174:	e49de004 	pop	{lr}		; (ldr lr, [sp], #4)
    9178:	f57ff04f 	dsb	sy
    917c:	e12fff1e 	bx	lr

00009180 <CP15DCacheCleanFlushBuff>:
    9180:	e52de004 	push	{lr}		; (str lr, [sp, #-4]!)
    9184:	e080e001 	add	lr, r0, r1
    9188:	f57ff05f 	dmb	sy
    918c:	ee102f30 	mrc	15, 0, r2, cr0, cr0, {1}
    9190:	e7e32852 	ubfx	r2, r2, #16, #4
    9194:	e3a03002 	mov	r3, #2
    9198:	e0833002 	add	r3, r3, r2
    919c:	e3a02001 	mov	r2, #1
    91a0:	e1a02312 	lsl	r2, r2, r3
    91a4:	e2423001 	sub	r3, r2, #1
    91a8:	e1c00003 	bic	r0, r0, r3
    91ac:	e113000e 	tst	r3, lr
    91b0:	e1cee003 	bic	lr, lr, r3
    91b4:	1e07ef3e 	mcrne	15, 0, lr, cr7, cr14, {1}

000091b8 <cleanflushloop>:
    91b8:	ee070f3e 	mcr	15, 0, r0, cr7, cr14, {1}
    91bc:	e0900002 	adds	r0, r0, r2
    91c0:	e150000e 	cmp	r0, lr
    91c4:	bafffffb 	blt	91b8 <cleanflushloop>
    91c8:	e49de004 	pop	{lr}		; (ldr lr, [sp], #4)
    91cc:	f57ff04f 	dsb	sy
    91d0:	e12fff1e 	bx	lr

000091d4 <CP15DCacheFlushBuff>:
    91d4:	e52de004 	push	{lr}		; (str lr, [sp, #-4]!)
    91d8:	e080e001 	add	lr, r0, r1
    91dc:	f57ff05f 	dmb	sy
    91e0:	ee102f30 	mrc	15, 0, r2, cr0, cr0, {1}
    91e4:	e7e32852 	ubfx	r2, r2, #16, #4
    91e8:	e3a03002 	mov	r3, #2
    91ec:	e0833002 	add	r3, r3, r2
    91f0:	e3a02001 	mov	r2, #1
    91f4:	e1a02312 	lsl	r2, r2, r3
    91f8:	e2423001 	sub	r3, r2, #1
    91fc:	e1130000 	tst	r3, r0
    9200:	e1c00003 	bic	r0, r0, r3
    9204:	1e070f3e 	mcrne	15, 0, r0, cr7, cr14, {1}
    9208:	10800002 	addne	r0, r0, r2
    920c:	e113000e 	tst	r3, lr
    9210:	e1cee003 	bic	lr, lr, r3
    9214:	1e07ef3e 	mcrne	15, 0, lr, cr7, cr14, {1}
    9218:	ea000001 	b	9224 <dflushcmp>

0000921c <dflushloop>:
    921c:	ee070f36 	mcr	15, 0, r0, cr7, cr6, {1}
    9220:	e0900002 	adds	r0, r0, r2

00009224 <dflushcmp>:
    9224:	e150000e 	cmp	r0, lr
    9228:	bafffffb 	blt	921c <dflushloop>
    922c:	e49de004 	pop	{lr}		; (ldr lr, [sp], #4)
    9230:	f57ff04f 	dsb	sy
    9234:	e12fff1e 	bx	lr

00009238 <CP15ICacheFlushBuff>:
    9238:	e52de004 	push	{lr}		; (str lr, [sp, #-4]!)
    923c:	e080e001 	add	lr, r0, r1
    9240:	f57ff05f 	dmb	sy
    9244:	ee102f30 	mrc	15, 0, r2, cr0, cr0, {1}
    9248:	e7e32052 	ubfx	r2, r2, #0, #4
    924c:	e3a03002 	mov	r3, #2
    9250:	e0833002 	add	r3, r3, r2
    9254:	e3a02001 	mov	r2, #1
    9258:	e1a02312 	lsl	r2, r2, r3
    925c:	e2423001 	sub	r3, r2, #1
    9260:	e1c00003 	bic	r0, r0, r3
    9264:	e113000e 	tst	r3, lr
    9268:	e1cee003 	bic	lr, lr, r3
    926c:	1e07ef35 	mcrne	15, 0, lr, cr7, cr5, {1}

00009270 <iflushloop>:
    9270:	ee070f35 	mcr	15, 0, r0, cr7, cr5, {1}
    9274:	e0900002 	adds	r0, r0, r2
    9278:	e150000e 	cmp	r0, lr
    927c:	bafffffb 	blt	9270 <iflushloop>
    9280:	e49de004 	pop	{lr}		; (ldr lr, [sp], #4)
    9284:	f57ff04f 	dsb	sy
    9288:	e12fff1e 	bx	lr

0000928c <CP15Ttb0Set>:
    928c:	ee020f10 	mcr	15, 0, r0, cr2, cr0, {0}
    9290:	f57ff05f 	dmb	sy
    9294:	e12fff1e 	bx	lr

00009298 <CP15TlbInvalidate>:
    9298:	ee080f17 	mcr	15, 0, r0, cr8, cr7, {0}
    929c:	f57ff04f 	dsb	sy
    92a0:	e12fff1e 	bx	lr

000092a4 <CP15MMUDisable>:
    92a4:	ee080f17 	mcr	15, 0, r0, cr8, cr7, {0}
    92a8:	ee110f10 	mrc	15, 0, r0, cr1, cr0, {0}
    92ac:	e3c00001 	bic	r0, r0, #1
    92b0:	ee010f10 	mcr	15, 0, r0, cr1, cr0, {0}
    92b4:	f57ff04f 	dsb	sy
    92b8:	e12fff1e 	bx	lr

000092bc <CP15MMUEnable>:
    92bc:	ee110f10 	mrc	15, 0, r0, cr1, cr0, {0}
    92c0:	e3800001 	orr	r0, r0, #1
    92c4:	ee010f10 	mcr	15, 0, r0, cr1, cr0, {0}
    92c8:	f57ff04f 	dsb	sy
    92cc:	e12fff1e 	bx	lr

000092d0 <CP15VectorBaseAddrSet>:
    92d0:	ee0c0f10 	mcr	15, 0, r0, cr12, cr0, {0}
    92d4:	f57ff04f 	dsb	sy
    92d8:	e12fff1e 	bx	lr

000092dc <CP15BranchPredictorInvalidate>:
    92dc:	ee070fd5 	mcr	15, 0, r0, cr7, cr5, {6}
    92e0:	f57ff06f 	isb	sy
    92e4:	e12fff1e 	bx	lr

000092e8 <CP15BranchPredictionEnable>:
    92e8:	ee110f10 	mrc	15, 0, r0, cr1, cr0, {0}
    92ec:	e3800b02 	orr	r0, r0, #2048	; 0x800
    92f0:	ee010f10 	mcr	15, 0, r0, cr1, cr0, {0}
    92f4:	e12fff1e 	bx	lr

000092f8 <CP15BranchPredictionDisable>:
    92f8:	ee110f10 	mrc	15, 0, r0, cr1, cr0, {0}
    92fc:	e3c00b02 	bic	r0, r0, #2048	; 0x800
    9300:	ee010f10 	mcr	15, 0, r0, cr1, cr0, {0}
    9304:	e12fff1e 	bx	lr

00009308 <CP15DomainAccessClientSet>:
    9308:	e59f0074 	ldr	r0, [pc, #116]	; 9384 <_CLIENTD>
    930c:	ee030f10 	mcr	15, 0, r0, cr3, cr0, {0}
    9310:	f57ff04f 	dsb	sy
    9314:	e12fff1e 	bx	lr

00009318 <CP15ControlFeatureDisable>:
    9318:	ee111f10 	mrc	15, 0, r1, cr1, cr0, {0}
    931c:	e1c10000 	bic	r0, r1, r0
    9320:	ee010f10 	mcr	15, 0, r0, cr1, cr0, {0}
    9324:	f57ff04f 	dsb	sy
    9328:	e12fff1e 	bx	lr

0000932c <CP15ControlFeatureEnable>:
    932c:	ee111f10 	mrc	15, 0, r1, cr1, cr0, {0}
    9330:	e1810000 	orr	r0, r1, r0
    9334:	ee010f10 	mcr	15, 0, r0, cr1, cr0, {0}
    9338:	f57ff04f 	dsb	sy
    933c:	e12fff1e 	bx	lr

00009340 <CP15TtbCtlTtb0Config>:
    9340:	e3a00000 	mov	r0, #0
    9344:	ee020f50 	mcr	15, 0, r0, cr2, cr0, {2}
    9348:	f57ff04f 	dsb	sy
    934c:	e12fff1e 	bx	lr

00009350 <CP15AuxControlFeatureEnable>:
    9350:	ee111f30 	mrc	15, 0, r1, cr1, cr0, {1}
    9354:	e1800001 	orr	r0, r0, r1
    9358:	ee010f30 	mcr	15, 0, r0, cr1, cr0, {1}
    935c:	f57ff04f 	dsb	sy
    9360:	e12fff1e 	bx	lr

00009364 <CP15AuxControlFeatureDisable>:
    9364:	ee111f30 	mrc	15, 0, r1, cr1, cr0, {1}
    9368:	e1c10000 	bic	r0, r1, r0
    936c:	ee010f30 	mcr	15, 0, r0, cr1, cr0, {1}
    9370:	f57ff04f 	dsb	sy
    9374:	e12fff1e 	bx	lr

00009378 <CP15MainIdPrimPartNumGet>:
    9378:	ee100f10 	mrc	15, 0, r0, cr0, cr0, {0}
    937c:	e7eb0250 	ubfx	r0, r0, #4, #12
    9380:	e12fff1e 	bx	lr

00009384 <_CLIENTD>:
    9384:	55555555 	ldrbpl	r5, [r5, #-1365]	; 0xfffffaab

00009388 <_FLD_MAX_WAY>:
    9388:	000003ff 	strdeq	r0, [r0], -pc	; <UNPREDICTABLE>

0000938c <_FLD_MAX_IDX>:
    938c:	000007ff 	strdeq	r0, [r0], -pc	; <UNPREDICTABLE>

00009390 <CPUSwitchToPrivilegedMode>:
    9390:	e52db004 	push	{fp}		; (str fp, [sp, #-4]!)
    9394:	e28db000 	add	fp, sp, #0
    9398:	ef000001 	svc	0x00000001
    939c:	e320f000 	nop	{0}
    93a0:	e28bd000 	add	sp, fp, #0
    93a4:	e49db004 	pop	{fp}		; (ldr fp, [sp], #4)
    93a8:	e12fff1e 	bx	lr

000093ac <CPUSwitchToUserMode>:
    93ac:	e52db004 	push	{fp}		; (str fp, [sp, #-4]!)
    93b0:	e28db000 	add	fp, sp, #0
    93b4:	e10f0000 	mrs	r0, CPSR
    93b8:	e3c0000f 	bic	r0, r0, #15
    93bc:	e3800010 	orr	r0, r0, #16
    93c0:	e129f000 	msr	CPSR_fc, r0
    93c4:	e320f000 	nop	{0}
    93c8:	e28bd000 	add	sp, fp, #0
    93cc:	e49db004 	pop	{fp}		; (ldr fp, [sp], #4)
    93d0:	e12fff1e 	bx	lr

000093d4 <CPUAbortHandler>:
    93d4:	e52db004 	push	{fp}		; (str fp, [sp, #-4]!)
    93d8:	e28db000 	add	fp, sp, #0
    93dc:	eafffffe 	b	93dc <CPUAbortHandler+0x8>

000093e0 <CPUIntrStatus>:
    93e0:	e52db004 	push	{fp}		; (str fp, [sp, #-4]!)
    93e4:	e28db000 	add	fp, sp, #0
    93e8:	e24dd00c 	sub	sp, sp, #12
    93ec:	e10f0000 	mrs	r0, CPSR
    93f0:	e20030c0 	and	r3, r0, #192	; 0xc0
    93f4:	e50b3008 	str	r3, [fp, #-8]
    93f8:	e51b3008 	ldr	r3, [fp, #-8]
    93fc:	e1a00003 	mov	r0, r3
    9400:	e28bd000 	add	sp, fp, #0
    9404:	e49db004 	pop	{fp}		; (ldr fp, [sp], #4)
    9408:	e12fff1e 	bx	lr

0000940c <CPUIntrDisable>:
    940c:	e52db004 	push	{fp}		; (str fp, [sp, #-4]!)
    9410:	e28db000 	add	fp, sp, #0
    9414:	e24dd00c 	sub	sp, sp, #12
    9418:	e10f0000 	mrs	r0, CPSR
    941c:	e1a01000 	mov	r1, r0
    9420:	e20030c0 	and	r3, r0, #192	; 0xc0
    9424:	e50b3008 	str	r3, [fp, #-8]
    9428:	e38110c0 	orr	r1, r1, #192	; 0xc0
    942c:	e129f001 	msr	CPSR_fc, r1
    9430:	e51b3008 	ldr	r3, [fp, #-8]
    9434:	e1e03003 	mvn	r3, r3
    9438:	e20330c0 	and	r3, r3, #192	; 0xc0
    943c:	e50b3008 	str	r3, [fp, #-8]
    9440:	e51b3008 	ldr	r3, [fp, #-8]
    9444:	e1a00003 	mov	r0, r3
    9448:	e28bd000 	add	sp, fp, #0
    944c:	e49db004 	pop	{fp}		; (ldr fp, [sp], #4)
    9450:	e12fff1e 	bx	lr

00009454 <CPUIntrEnable>:
    9454:	e52db004 	push	{fp}		; (str fp, [sp, #-4]!)
    9458:	e28db000 	add	fp, sp, #0
    945c:	e24dd00c 	sub	sp, sp, #12
    9460:	e50b0008 	str	r0, [fp, #-8]
    9464:	e51b3008 	ldr	r3, [fp, #-8]
    9468:	e20330c0 	and	r3, r3, #192	; 0xc0
    946c:	e50b3008 	str	r3, [fp, #-8]
    9470:	e10f0000 	mrs	r0, CPSR
    9474:	e1c00003 	bic	r0, r0, r3
    9478:	e50b3008 	str	r3, [fp, #-8]
    947c:	e129f000 	msr	CPSR_fc, r0
    9480:	e320f000 	nop	{0}
    9484:	e28bd000 	add	sp, fp, #0
    9488:	e49db004 	pop	{fp}		; (ldr fp, [sp], #4)
    948c:	e12fff1e 	bx	lr

00009490 <Delay_32kFClk>:
    9490:	e92d4800 	push	{fp, lr}
    9494:	e28db004 	add	fp, sp, #4
    9498:	e24dd028 	sub	sp, sp, #40	; 0x28
    949c:	e50b0020 	str	r0, [fp, #-32]	; 0xffffffe0
    94a0:	e50b1024 	str	r1, [fp, #-36]	; 0xffffffdc
    94a4:	e50b2028 	str	r2, [fp, #-40]	; 0xffffffd8
    94a8:	e50b302c 	str	r3, [fp, #-44]	; 0xffffffd4
    94ac:	e51b3020 	ldr	r3, [fp, #-32]	; 0xffffffe0
    94b0:	e50b3008 	str	r3, [fp, #-8]
    94b4:	e51b302c 	ldr	r3, [fp, #-44]	; 0xffffffd4
    94b8:	e1a03283 	lsl	r3, r3, #5
    94bc:	e50b300c 	str	r3, [fp, #-12]
    94c0:	e3a03003 	mov	r3, #3
    94c4:	e50b3010 	str	r3, [fp, #-16]
    94c8:	e30030a0 	movw	r3, #160	; 0xa0
    94cc:	e3403002 	movt	r3, #2
    94d0:	e5933000 	ldr	r3, [r3]
    94d4:	e3530000 	cmp	r3, #0
    94d8:	1a00000c 	bne	9510 <Delay_32kFClk+0x80>
    94dc:	e51b0008 	ldr	r0, [fp, #-8]
    94e0:	eb0005e6 	bl	ac80 <TIMERDisable>
    94e4:	e51b1010 	ldr	r1, [fp, #-16]
    94e8:	e51b0008 	ldr	r0, [fp, #-8]
    94ec:	eb0005f3 	bl	acc0 <TIMERModeConfigure>
    94f0:	e51b1024 	ldr	r1, [fp, #-36]	; 0xffffffdc
    94f4:	e51b0008 	ldr	r0, [fp, #-8]
    94f8:	eb00064c 	bl	ae30 <TIMERCounterSet>
    94fc:	e51b1028 	ldr	r1, [fp, #-40]	; 0xffffffd8
    9500:	e51b0008 	ldr	r0, [fp, #-8]
    9504:	eb000668 	bl	aeac <TIMERReloadSet>
    9508:	e51b0008 	ldr	r0, [fp, #-8]
    950c:	eb0005cb 	bl	ac40 <TIMEREnable>
    9510:	e51b0008 	ldr	r0, [fp, #-8]
    9514:	eb000655 	bl	ae70 <TIMERCounterGet>
    9518:	e1a03000 	mov	r3, r0
    951c:	e50b3014 	str	r3, [fp, #-20]	; 0xffffffec
    9520:	e51b0008 	ldr	r0, [fp, #-8]
    9524:	eb000651 	bl	ae70 <TIMERCounterGet>
    9528:	e1a03000 	mov	r3, r0
    952c:	e50b3018 	str	r3, [fp, #-24]	; 0xffffffe8
    9530:	e51b2018 	ldr	r2, [fp, #-24]	; 0xffffffe8
    9534:	e51b3014 	ldr	r3, [fp, #-20]	; 0xffffffec
    9538:	e0423003 	sub	r3, r2, r3
    953c:	e1a02003 	mov	r2, r3
    9540:	e51b300c 	ldr	r3, [fp, #-12]
    9544:	e1520003 	cmp	r2, r3
    9548:	9afffff4 	bls	9520 <Delay_32kFClk+0x90>
    954c:	e3a03000 	mov	r3, #0
    9550:	e1a00003 	mov	r0, r3
    9554:	e24bd004 	sub	sp, fp, #4
    9558:	e8bd8800 	pop	{fp, pc}

0000955c <Osal_delay>:
    955c:	e92d4800 	push	{fp, lr}
    9560:	e28db004 	add	fp, sp, #4
    9564:	e24dd008 	sub	sp, sp, #8
    9568:	e50b0008 	str	r0, [fp, #-8]
    956c:	e30d3d7c 	movw	r3, #56700	; 0xdd7c
    9570:	e3403001 	movt	r3, #1
    9574:	e593000c 	ldr	r0, [r3, #12]
    9578:	e51b3008 	ldr	r3, [fp, #-8]
    957c:	e3a02000 	mov	r2, #0
    9580:	e34f2ff0 	movt	r2, #65520	; 0xfff0
    9584:	e3a01000 	mov	r1, #0
    9588:	e34f1ff0 	movt	r1, #65520	; 0xfff0
    958c:	ebffffbf 	bl	9490 <Delay_32kFClk>
    9590:	e1a03000 	mov	r3, r0
    9594:	e1a00003 	mov	r0, r3
    9598:	e24bd004 	sub	sp, fp, #4
    959c:	e8bd8800 	pop	{fp, pc}

000095a0 <CHIPDBSpeedGradeProcID>:
    95a0:	e52db004 	push	{fp}		; (str fp, [sp, #-4]!)
    95a4:	e28db000 	add	fp, sp, #0
    95a8:	e24dd00c 	sub	sp, sp, #12
    95ac:	e50b0008 	str	r0, [fp, #-8]
    95b0:	e51b3008 	ldr	r3, [fp, #-8]
    95b4:	e1a00003 	mov	r0, r3
    95b8:	e28bd000 	add	sp, fp, #0
    95bc:	e49db004 	pop	{fp}		; (ldr fp, [sp], #4)
    95c0:	e12fff1e 	bx	lr

000095c4 <CHIPDBIsSecureModule>:
    95c4:	e52db004 	push	{fp}		; (str fp, [sp, #-4]!)
    95c8:	e28db000 	add	fp, sp, #0
    95cc:	e24dd00c 	sub	sp, sp, #12
    95d0:	e50b0008 	str	r0, [fp, #-8]
    95d4:	e51b3008 	ldr	r3, [fp, #-8]
    95d8:	e2433035 	sub	r3, r3, #53	; 0x35
    95dc:	e3530008 	cmp	r3, #8
    95e0:	979ff103 	ldrls	pc, [pc, r3, lsl #2]
    95e4:	ea00000a 	b	9614 <CHIPDBIsSecureModule+0x50>
    95e8:	0000960c 	andeq	r9, r0, ip, lsl #12
    95ec:	0000960c 	andeq	r9, r0, ip, lsl #12
    95f0:	00009614 	andeq	r9, r0, r4, lsl r6
    95f4:	0000960c 	andeq	r9, r0, ip, lsl #12
    95f8:	00009614 	andeq	r9, r0, r4, lsl r6
    95fc:	0000960c 	andeq	r9, r0, ip, lsl #12
    9600:	0000960c 	andeq	r9, r0, ip, lsl #12
    9604:	0000960c 	andeq	r9, r0, ip, lsl #12
    9608:	0000960c 	andeq	r9, r0, ip, lsl #12
    960c:	e3a03001 	mov	r3, #1
    9610:	ea000000 	b	9618 <CHIPDBIsSecureModule+0x54>
    9614:	e3a03000 	mov	r3, #0
    9618:	e1a00003 	mov	r0, r3
    961c:	e28bd000 	add	sp, fp, #0
    9620:	e49db004 	pop	{fp}		; (ldr fp, [sp], #4)
    9624:	e12fff1e 	bx	lr

00009628 <HwiP_clearInterrupt>:
    9628:	e92d4800 	push	{fp, lr}
    962c:	e28db004 	add	fp, sp, #4
    9630:	e24dd008 	sub	sp, sp, #8
    9634:	e50b0008 	str	r0, [fp, #-8]
    9638:	e51b3008 	ldr	r3, [fp, #-8]
    963c:	e1a00003 	mov	r0, r3
    9640:	ebfffc7d 	bl	883c <OsalArch_clearInterrupt>
    9644:	e320f000 	nop	{0}
    9648:	e24bd004 	sub	sp, fp, #4
    964c:	e8bd8800 	pop	{fp, pc}

00009650 <HwiP_create>:
    9650:	e92d4800 	push	{fp, lr}
    9654:	e28db004 	add	fp, sp, #4
    9658:	e24dd018 	sub	sp, sp, #24
    965c:	e50b0010 	str	r0, [fp, #-16]
    9660:	e50b1014 	str	r1, [fp, #-20]	; 0xffffffec
    9664:	e50b2018 	str	r2, [fp, #-24]	; 0xffffffe8
    9668:	e51b2018 	ldr	r2, [fp, #-24]	; 0xffffffe8
    966c:	e51b1014 	ldr	r1, [fp, #-20]	; 0xffffffec
    9670:	e51b0010 	ldr	r0, [fp, #-16]
    9674:	ebfffc88 	bl	889c <OsalArch_HwiPCreate>
    9678:	e50b0008 	str	r0, [fp, #-8]
    967c:	e51b3008 	ldr	r3, [fp, #-8]
    9680:	e3530000 	cmp	r3, #0
    9684:	0a000014 	beq	96dc <HwiP_create+0x8c>
    9688:	e30034bc 	movw	r3, #1212	; 0x4bc
    968c:	e3403002 	movt	r3, #2
    9690:	e5933000 	ldr	r3, [r3]
    9694:	e2832001 	add	r2, r3, #1
    9698:	e30034bc 	movw	r3, #1212	; 0x4bc
    969c:	e3403002 	movt	r3, #2
    96a0:	e5832000 	str	r2, [r3]
    96a4:	e30034bc 	movw	r3, #1212	; 0x4bc
    96a8:	e3403002 	movt	r3, #2
    96ac:	e5932000 	ldr	r2, [r3]
    96b0:	e30034c0 	movw	r3, #1216	; 0x4c0
    96b4:	e3403002 	movt	r3, #2
    96b8:	e5933000 	ldr	r3, [r3]
    96bc:	e1520003 	cmp	r2, r3
    96c0:	9a000005 	bls	96dc <HwiP_create+0x8c>
    96c4:	e30034bc 	movw	r3, #1212	; 0x4bc
    96c8:	e3403002 	movt	r3, #2
    96cc:	e5932000 	ldr	r2, [r3]
    96d0:	e30034c0 	movw	r3, #1216	; 0x4c0
    96d4:	e3403002 	movt	r3, #2
    96d8:	e5832000 	str	r2, [r3]
    96dc:	e51b3008 	ldr	r3, [fp, #-8]
    96e0:	e1a00003 	mov	r0, r3
    96e4:	e24bd004 	sub	sp, fp, #4
    96e8:	e8bd8800 	pop	{fp, pc}

000096ec <HwiP_delete>:
    96ec:	e92d4800 	push	{fp, lr}
    96f0:	e28db004 	add	fp, sp, #4
    96f4:	e24dd010 	sub	sp, sp, #16
    96f8:	e50b0010 	str	r0, [fp, #-16]
    96fc:	e51b3010 	ldr	r3, [fp, #-16]
    9700:	e3530000 	cmp	r3, #0
    9704:	03a03001 	moveq	r3, #1
    9708:	13a03000 	movne	r3, #0
    970c:	e6ef3073 	uxtb	r3, r3
    9710:	e3a0204e 	mov	r2, #78	; 0x4e
    9714:	e30d18ec 	movw	r1, #55532	; 0xd8ec
    9718:	e3401000 	movt	r1, #0
    971c:	e1a00003 	mov	r0, r3
    9720:	eb000d30 	bl	cbe8 <_DebugP_assert>
    9724:	e51b0010 	ldr	r0, [fp, #-16]
    9728:	ebfffcf0 	bl	8af0 <OsalArch_HwiPDelete>
    972c:	e1a03000 	mov	r3, r0
    9730:	e54b3005 	strb	r3, [fp, #-5]
    9734:	e15b30d5 	ldrsb	r3, [fp, #-5]
    9738:	e3530000 	cmp	r3, #0
    973c:	1a00000b 	bne	9770 <HwiP_delete+0x84>
    9740:	e30034bc 	movw	r3, #1212	; 0x4bc
    9744:	e3403002 	movt	r3, #2
    9748:	e5933000 	ldr	r3, [r3]
    974c:	e3530000 	cmp	r3, #0
    9750:	0a000006 	beq	9770 <HwiP_delete+0x84>
    9754:	e30034bc 	movw	r3, #1212	; 0x4bc
    9758:	e3403002 	movt	r3, #2
    975c:	e5933000 	ldr	r3, [r3]
    9760:	e2432001 	sub	r2, r3, #1
    9764:	e30034bc 	movw	r3, #1212	; 0x4bc
    9768:	e3403002 	movt	r3, #2
    976c:	e5832000 	str	r2, [r3]
    9770:	e15b30d5 	ldrsb	r3, [fp, #-5]
    9774:	e1a00003 	mov	r0, r3
    9778:	e24bd004 	sub	sp, fp, #4
    977c:	e8bd8800 	pop	{fp, pc}

00009780 <HwiP_disable>:
    9780:	e92d4800 	push	{fp, lr}
    9784:	e28db004 	add	fp, sp, #4
    9788:	ebfffc34 	bl	8860 <OsalArch_globalDisableInterrupt>
    978c:	e1a03000 	mov	r3, r0
    9790:	e1a00003 	mov	r0, r3
    9794:	e8bd8800 	pop	{fp, pc}

00009798 <HwiP_disableInterrupt>:
    9798:	e92d4800 	push	{fp, lr}
    979c:	e28db004 	add	fp, sp, #4
    97a0:	e24dd008 	sub	sp, sp, #8
    97a4:	e50b0008 	str	r0, [fp, #-8]
    97a8:	e51b3008 	ldr	r3, [fp, #-8]
    97ac:	e1a00003 	mov	r0, r3
    97b0:	ebfffc18 	bl	8818 <OsalArch_disableInterrupt>
    97b4:	e320f000 	nop	{0}
    97b8:	e24bd004 	sub	sp, fp, #4
    97bc:	e8bd8800 	pop	{fp, pc}

000097c0 <HwiP_enableInterrupt>:
    97c0:	e92d4800 	push	{fp, lr}
    97c4:	e28db004 	add	fp, sp, #4
    97c8:	e24dd008 	sub	sp, sp, #8
    97cc:	e50b0008 	str	r0, [fp, #-8]
    97d0:	e51b3008 	ldr	r3, [fp, #-8]
    97d4:	e1a00003 	mov	r0, r3
    97d8:	ebfffc05 	bl	87f4 <OsalArch_enableInterrupt>
    97dc:	e320f000 	nop	{0}
    97e0:	e24bd004 	sub	sp, fp, #4
    97e4:	e8bd8800 	pop	{fp, pc}

000097e8 <HwiP_post>:
    97e8:	e52db004 	push	{fp}		; (str fp, [sp, #-4]!)
    97ec:	e28db000 	add	fp, sp, #0
    97f0:	e24dd00c 	sub	sp, sp, #12
    97f4:	e50b0008 	str	r0, [fp, #-8]
    97f8:	e3e03001 	mvn	r3, #1
    97fc:	e1a00003 	mov	r0, r3
    9800:	e28bd000 	add	sp, fp, #0
    9804:	e49db004 	pop	{fp}		; (ldr fp, [sp], #4)
    9808:	e12fff1e 	bx	lr

0000980c <HwiP_Params_init>:
    980c:	e52db004 	push	{fp}		; (str fp, [sp, #-4]!)
    9810:	e28db000 	add	fp, sp, #0
    9814:	e24dd00c 	sub	sp, sp, #12
    9818:	e50b0008 	str	r0, [fp, #-8]
    981c:	e51b3008 	ldr	r3, [fp, #-8]
    9820:	e3a02000 	mov	r2, #0
    9824:	e5832000 	str	r2, [r3]
    9828:	e51b3008 	ldr	r3, [fp, #-8]
    982c:	e3a02000 	mov	r2, #0
    9830:	e5832004 	str	r2, [r3, #4]
    9834:	e51b3008 	ldr	r3, [fp, #-8]
    9838:	e3e02000 	mvn	r2, #0
    983c:	e5832008 	str	r2, [r3, #8]
    9840:	e51b3008 	ldr	r3, [fp, #-8]
    9844:	e3a02000 	mov	r2, #0
    9848:	e583200c 	str	r2, [r3, #12]
    984c:	e51b3008 	ldr	r3, [fp, #-8]
    9850:	e3a02001 	mov	r2, #1
    9854:	e5832010 	str	r2, [r3, #16]
    9858:	e320f000 	nop	{0}
    985c:	e28bd000 	add	sp, fp, #0
    9860:	e49db004 	pop	{fp}		; (ldr fp, [sp], #4)
    9864:	e12fff1e 	bx	lr

00009868 <HwiP_restore>:
    9868:	e92d4800 	push	{fp, lr}
    986c:	e28db004 	add	fp, sp, #4
    9870:	e24dd008 	sub	sp, sp, #8
    9874:	e50b0008 	str	r0, [fp, #-8]
    9878:	e51b0008 	ldr	r0, [fp, #-8]
    987c:	ebfffbfd 	bl	8878 <OsalArch_globalRestoreInterrupt>
    9880:	e320f000 	nop	{0}
    9884:	e24bd004 	sub	sp, fp, #4
    9888:	e8bd8800 	pop	{fp, pc}

0000988c <Entry>:
    988c:	e59f009c 	ldr	r0, [pc, #156]	; 9930 <Loop+0x1c>
    9890:	e321f0db 	msr	CPSR_c, #219	; 0xdb
    9894:	e1a0d000 	mov	sp, r0
    9898:	e2400008 	sub	r0, r0, #8

0000989c <AbortHandler>:
    989c:	e321f0d7 	msr	CPSR_c, #215	; 0xd7
    98a0:	e1a0d000 	mov	sp, r0
    98a4:	e2400008 	sub	r0, r0, #8

000098a8 <FIQHandler>:
    98a8:	e321f0d1 	msr	CPSR_c, #209	; 0xd1
    98ac:	e1a0d000 	mov	sp, r0
    98b0:	e2400008 	sub	r0, r0, #8

000098b4 <IRQHandler>:
    98b4:	e321f0d2 	msr	CPSR_c, #210	; 0xd2
    98b8:	e1a0d000 	mov	sp, r0
    98bc:	e2400a01 	sub	r0, r0, #4096	; 0x1000

000098c0 <SVC_Handler>:
    98c0:	e321f0d3 	msr	CPSR_c, #211	; 0xd3
    98c4:	e1a0d000 	mov	sp, r0
    98c8:	e2400008 	sub	r0, r0, #8
    98cc:	e321f0df 	msr	CPSR_c, #223	; 0xdf
    98d0:	e1a0d000 	mov	sp, r0
    98d4:	e3a00000 	mov	r0, #0
    98d8:	ee070fd5 	mcr	15, 0, r0, cr7, cr5, {6}
    98dc:	f57ff06f 	isb	sy
    98e0:	ee110f10 	mrc	15, 0, r0, cr1, cr0, {0}
    98e4:	e3800b02 	orr	r0, r0, #2048	; 0x800
    98e8:	ee010f10 	mcr	15, 0, r0, cr1, cr0, {0}
    98ec:	ee111f50 	mrc	15, 0, r1, cr1, cr0, {2}
    98f0:	e381160f 	orr	r1, r1, #15728640	; 0xf00000
    98f4:	ee011f50 	mcr	15, 0, r1, cr1, cr0, {2}
    98f8:	e3a01000 	mov	r1, #0
    98fc:	ee071f95 	mcr	15, 0, r1, cr7, cr5, {4}
    9900:	e3a00101 	mov	r0, #1073741824	; 0x40000000
    9904:	eee80a10 	vmsr	fpexc, r0

00009908 <Clear_Bss_Section>:
    9908:	e59f0024 	ldr	r0, [pc, #36]	; 9934 <Loop+0x20>
    990c:	e59f1024 	ldr	r1, [pc, #36]	; 9938 <Loop+0x24>
    9910:	e3a02000 	mov	r2, #0

00009914 <Loop>:
    9914:	e4802004 	str	r2, [r0], #4
    9918:	e1500001 	cmp	r0, r1
    991c:	dafffffc 	ble	9914 <Loop>
    9920:	e59fa014 	ldr	sl, [pc, #20]	; 993c <Loop+0x28>
    9924:	e1a0e00f 	mov	lr, pc
    9928:	e12fff1a 	bx	sl
    992c:	e24ff008 	sub	pc, pc, #8
    9930:	00080000 	andeq	r0, r8, r0
    9934:	0001dd9c 	muleq	r1, ip, sp
    9938:	0002820c 	andeq	r8, r2, ip, lsl #4
    993c:	000086a4 	andeq	r8, r0, r4, lsr #13

00009940 <main>:
    9940:	e52db004 	push	{fp}		; (str fp, [sp, #-4]!)
    9944:	e28db000 	add	fp, sp, #0
    9948:	e3a03000 	mov	r3, #0
    994c:	e1a00003 	mov	r0, r3
    9950:	e28bd000 	add	sp, fp, #0
    9954:	e49db004 	pop	{fp}		; (ldr fp, [sp], #4)
    9958:	e12fff1e 	bx	lr

0000995c <MMUInit>:
    995c:	e92d4800 	push	{fp, lr}
    9960:	e28db004 	add	fp, sp, #4
    9964:	e24dd008 	sub	sp, sp, #8
    9968:	e50b0008 	str	r0, [fp, #-8]
    996c:	e50b100c 	str	r1, [fp, #-12]
    9970:	ebfffe48 	bl	9298 <CP15TlbInvalidate>
    9974:	ebfffe63 	bl	9308 <CP15DomainAccessClientSet>
    9978:	e3a00233 	mov	r0, #805306371	; 0x30000003
    997c:	ebfffe65 	bl	9318 <CP15ControlFeatureDisable>
    9980:	ebfffe6e 	bl	9340 <CP15TtbCtlTtb0Config>
    9984:	ea000007 	b	99a8 <MMUInit+0x4c>
    9988:	e51b3008 	ldr	r3, [fp, #-8]
    998c:	e2832004 	add	r2, r3, #4
    9990:	e50b2008 	str	r2, [fp, #-8]
    9994:	e3a02000 	mov	r2, #0
    9998:	e5832000 	str	r2, [r3]
    999c:	e51b300c 	ldr	r3, [fp, #-12]
    99a0:	e2433001 	sub	r3, r3, #1
    99a4:	e50b300c 	str	r3, [fp, #-12]
    99a8:	e51b300c 	ldr	r3, [fp, #-12]
    99ac:	e3530000 	cmp	r3, #0
    99b0:	1afffff4 	bne	9988 <MMUInit+0x2c>
    99b4:	e320f000 	nop	{0}
    99b8:	e24bd004 	sub	sp, fp, #4
    99bc:	e8bd8800 	pop	{fp, pc}

000099c0 <MMUMemRegionMap>:
    99c0:	e52db004 	push	{fp}		; (str fp, [sp, #-4]!)
    99c4:	e28db000 	add	fp, sp, #0
    99c8:	e24dd01c 	sub	sp, sp, #28
    99cc:	e50b0018 	str	r0, [fp, #-24]	; 0xffffffe8
    99d0:	e50b101c 	str	r1, [fp, #-28]	; 0xffffffe4
    99d4:	e3a03000 	mov	r3, #0
    99d8:	e50b300c 	str	r3, [fp, #-12]
    99dc:	e3a03000 	mov	r3, #0
    99e0:	e50b3010 	str	r3, [fp, #-16]
    99e4:	e51b301c 	ldr	r3, [fp, #-28]	; 0xffffffe4
    99e8:	e3530000 	cmp	r3, #0
    99ec:	1a000001 	bne	99f8 <MMUMemRegionMap+0x38>
    99f0:	e3e03001 	mvn	r3, #1
    99f4:	e50b3010 	str	r3, [fp, #-16]
    99f8:	e51b3018 	ldr	r3, [fp, #-24]	; 0xffffffe8
    99fc:	e5933000 	ldr	r3, [r3]
    9a00:	e1a03a23 	lsr	r3, r3, #20
    9a04:	e1a03103 	lsl	r3, r3, #2
    9a08:	e51b201c 	ldr	r2, [fp, #-28]	; 0xffffffe4
    9a0c:	e0823003 	add	r3, r2, r3
    9a10:	e50b3008 	str	r3, [fp, #-8]
    9a14:	e51b3018 	ldr	r3, [fp, #-24]	; 0xffffffe8
    9a18:	e5933004 	ldr	r3, [r3, #4]
    9a1c:	e2433107 	sub	r3, r3, #-1073741823	; 0xc0000001
    9a20:	e1a03103 	lsl	r3, r3, #2
    9a24:	e51b2008 	ldr	r2, [fp, #-8]
    9a28:	e0823003 	add	r3, r2, r3
    9a2c:	e50b3008 	str	r3, [fp, #-8]
    9a30:	e51b3010 	ldr	r3, [fp, #-16]
    9a34:	e3530000 	cmp	r3, #0
    9a38:	1a00000a 	bne	9a68 <MMUMemRegionMap+0xa8>
    9a3c:	e51b3018 	ldr	r3, [fp, #-24]	; 0xffffffe8
    9a40:	e5933008 	ldr	r3, [r3, #8]
    9a44:	e3530601 	cmp	r3, #1048576	; 0x100000
    9a48:	1a000006 	bne	9a68 <MMUMemRegionMap+0xa8>
    9a4c:	e51b3018 	ldr	r3, [fp, #-24]	; 0xffffffe8
    9a50:	e5933000 	ldr	r3, [r3]
    9a54:	e1a03a23 	lsr	r3, r3, #20
    9a58:	e1a03a03 	lsl	r3, r3, #20
    9a5c:	e3833002 	orr	r3, r3, #2
    9a60:	e50b300c 	str	r3, [fp, #-12]
    9a64:	ea00000c 	b	9a9c <MMUMemRegionMap+0xdc>
    9a68:	e51b3018 	ldr	r3, [fp, #-24]	; 0xffffffe8
    9a6c:	e5933008 	ldr	r3, [r3, #8]
    9a70:	e3530401 	cmp	r3, #16777216	; 0x1000000
    9a74:	1a000006 	bne	9a94 <MMUMemRegionMap+0xd4>
    9a78:	e51b3018 	ldr	r3, [fp, #-24]	; 0xffffffe8
    9a7c:	e5933000 	ldr	r3, [r3]
    9a80:	e20334ff 	and	r3, r3, #-16777216	; 0xff000000
    9a84:	e3833701 	orr	r3, r3, #262144	; 0x40000
    9a88:	e3833002 	orr	r3, r3, #2
    9a8c:	e50b300c 	str	r3, [fp, #-12]
    9a90:	ea000001 	b	9a9c <MMUMemRegionMap+0xdc>
    9a94:	e3e03001 	mvn	r3, #1
    9a98:	e50b3010 	str	r3, [fp, #-16]
    9a9c:	e51b3010 	ldr	r3, [fp, #-16]
    9aa0:	e3530000 	cmp	r3, #0
    9aa4:	1a00000d 	bne	9ae0 <MMUMemRegionMap+0x120>
    9aa8:	e51b3018 	ldr	r3, [fp, #-24]	; 0xffffffe8
    9aac:	e5d3300f 	ldrb	r3, [r3, #15]
    9ab0:	e3530006 	cmp	r3, #6
    9ab4:	8a000009 	bhi	9ae0 <MMUMemRegionMap+0x120>
    9ab8:	e51b3018 	ldr	r3, [fp, #-24]	; 0xffffffe8
    9abc:	e5d3300f 	ldrb	r3, [r3, #15]
    9ac0:	e1a02003 	mov	r2, r3
    9ac4:	e30d3924 	movw	r3, #55588	; 0xd924
    9ac8:	e3403000 	movt	r3, #0
    9acc:	e7933102 	ldr	r3, [r3, r2, lsl #2]
    9ad0:	e51b200c 	ldr	r2, [fp, #-12]
    9ad4:	e1823003 	orr	r3, r2, r3
    9ad8:	e50b300c 	str	r3, [fp, #-12]
    9adc:	ea000001 	b	9ae8 <MMUMemRegionMap+0x128>
    9ae0:	e3e03001 	mvn	r3, #1
    9ae4:	e50b3010 	str	r3, [fp, #-16]
    9ae8:	e51b3010 	ldr	r3, [fp, #-16]
    9aec:	e3530000 	cmp	r3, #0
    9af0:	1a000007 	bne	9b14 <MMUMemRegionMap+0x154>
    9af4:	e51b3018 	ldr	r3, [fp, #-24]	; 0xffffffe8
    9af8:	e5933010 	ldr	r3, [r3, #16]
    9afc:	e3530001 	cmp	r3, #1
    9b00:	1a000003 	bne	9b14 <MMUMemRegionMap+0x154>
    9b04:	e51b300c 	ldr	r3, [fp, #-12]
    9b08:	e3c33702 	bic	r3, r3, #524288	; 0x80000
    9b0c:	e50b300c 	str	r3, [fp, #-12]
    9b10:	ea000009 	b	9b3c <MMUMemRegionMap+0x17c>
    9b14:	e51b3018 	ldr	r3, [fp, #-24]	; 0xffffffe8
    9b18:	e5933010 	ldr	r3, [r3, #16]
    9b1c:	e3530000 	cmp	r3, #0
    9b20:	1a000003 	bne	9b34 <MMUMemRegionMap+0x174>
    9b24:	e51b300c 	ldr	r3, [fp, #-12]
    9b28:	e3833702 	orr	r3, r3, #524288	; 0x80000
    9b2c:	e50b300c 	str	r3, [fp, #-12]
    9b30:	ea000001 	b	9b3c <MMUMemRegionMap+0x17c>
    9b34:	e3e03001 	mvn	r3, #1
    9b38:	e50b3010 	str	r3, [fp, #-16]
    9b3c:	e51b3010 	ldr	r3, [fp, #-16]
    9b40:	e3530000 	cmp	r3, #0
    9b44:	1a00000d 	bne	9b80 <MMUMemRegionMap+0x1c0>
    9b48:	e51b3018 	ldr	r3, [fp, #-24]	; 0xffffffe8
    9b4c:	e5d3300c 	ldrb	r3, [r3, #12]
    9b50:	e3530004 	cmp	r3, #4
    9b54:	8a000009 	bhi	9b80 <MMUMemRegionMap+0x1c0>
    9b58:	e51b3018 	ldr	r3, [fp, #-24]	; 0xffffffe8
    9b5c:	e5d3300c 	ldrb	r3, [r3, #12]
    9b60:	e1a02003 	mov	r2, r3
    9b64:	e30d3940 	movw	r3, #55616	; 0xd940
    9b68:	e3403000 	movt	r3, #0
    9b6c:	e7933102 	ldr	r3, [r3, r2, lsl #2]
    9b70:	e51b200c 	ldr	r2, [fp, #-12]
    9b74:	e1823003 	orr	r3, r2, r3
    9b78:	e50b300c 	str	r3, [fp, #-12]
    9b7c:	ea000001 	b	9b88 <MMUMemRegionMap+0x1c8>
    9b80:	e3e03001 	mvn	r3, #1
    9b84:	e50b3010 	str	r3, [fp, #-16]
    9b88:	e51b3010 	ldr	r3, [fp, #-16]
    9b8c:	e3530000 	cmp	r3, #0
    9b90:	1a000012 	bne	9be0 <MMUMemRegionMap+0x220>
    9b94:	e51b3018 	ldr	r3, [fp, #-24]	; 0xffffffe8
    9b98:	e5d3300c 	ldrb	r3, [r3, #12]
    9b9c:	e3530003 	cmp	r3, #3
    9ba0:	0a000003 	beq	9bb4 <MMUMemRegionMap+0x1f4>
    9ba4:	e51b3018 	ldr	r3, [fp, #-24]	; 0xffffffe8
    9ba8:	e5d3300c 	ldrb	r3, [r3, #12]
    9bac:	e3530004 	cmp	r3, #4
    9bb0:	1a00000a 	bne	9be0 <MMUMemRegionMap+0x220>
    9bb4:	e51b3018 	ldr	r3, [fp, #-24]	; 0xffffffe8
    9bb8:	e5d3300d 	ldrb	r3, [r3, #13]
    9bbc:	e1a02103 	lsl	r2, r3, #2
    9bc0:	e51b3018 	ldr	r3, [fp, #-24]	; 0xffffffe8
    9bc4:	e5d3300e 	ldrb	r3, [r3, #14]
    9bc8:	e1a03603 	lsl	r3, r3, #12
    9bcc:	e1823003 	orr	r3, r2, r3
    9bd0:	e1a02003 	mov	r2, r3
    9bd4:	e51b300c 	ldr	r3, [fp, #-12]
    9bd8:	e1833002 	orr	r3, r3, r2
    9bdc:	e50b300c 	str	r3, [fp, #-12]
    9be0:	e51b3010 	ldr	r3, [fp, #-16]
    9be4:	e3530000 	cmp	r3, #0
    9be8:	1a000013 	bne	9c3c <MMUMemRegionMap+0x27c>
    9bec:	e51b3018 	ldr	r3, [fp, #-24]	; 0xffffffe8
    9bf0:	e5933004 	ldr	r3, [r3, #4]
    9bf4:	e2433001 	sub	r3, r3, #1
    9bf8:	e50b3014 	str	r3, [fp, #-20]	; 0xffffffec
    9bfc:	ea00000b 	b	9c30 <MMUMemRegionMap+0x270>
    9c00:	e51b3008 	ldr	r3, [fp, #-8]
    9c04:	e2432004 	sub	r2, r3, #4
    9c08:	e50b2008 	str	r2, [fp, #-8]
    9c0c:	e51b2014 	ldr	r2, [fp, #-20]	; 0xffffffec
    9c10:	e1a02a02 	lsl	r2, r2, #20
    9c14:	e1a01002 	mov	r1, r2
    9c18:	e51b200c 	ldr	r2, [fp, #-12]
    9c1c:	e0812002 	add	r2, r1, r2
    9c20:	e5832000 	str	r2, [r3]
    9c24:	e51b3014 	ldr	r3, [fp, #-20]	; 0xffffffec
    9c28:	e2433001 	sub	r3, r3, #1
    9c2c:	e50b3014 	str	r3, [fp, #-20]	; 0xffffffec
    9c30:	e51b3014 	ldr	r3, [fp, #-20]	; 0xffffffec
    9c34:	e3530000 	cmp	r3, #0
    9c38:	aafffff0 	bge	9c00 <MMUMemRegionMap+0x240>
    9c3c:	e51b3010 	ldr	r3, [fp, #-16]
    9c40:	e1a00003 	mov	r0, r3
    9c44:	e28bd000 	add	sp, fp, #0
    9c48:	e49db004 	pop	{fp}		; (ldr fp, [sp], #4)
    9c4c:	e12fff1e 	bx	lr

00009c50 <MMUEnable>:
    9c50:	e92d4800 	push	{fp, lr}
    9c54:	e28db004 	add	fp, sp, #4
    9c58:	e24dd008 	sub	sp, sp, #8
    9c5c:	e50b0008 	str	r0, [fp, #-8]
    9c60:	e51b3008 	ldr	r3, [fp, #-8]
    9c64:	e1a00003 	mov	r0, r3
    9c68:	ebfffd87 	bl	928c <CP15Ttb0Set>
    9c6c:	ebfffd92 	bl	92bc <CP15MMUEnable>
    9c70:	e320f000 	nop	{0}
    9c74:	e24bd004 	sub	sp, fp, #4
    9c78:	e8bd8800 	pop	{fp, pc}

00009c7c <MMUDisable>:
    9c7c:	e92d4800 	push	{fp, lr}
    9c80:	e28db004 	add	fp, sp, #4
    9c84:	ebfffd86 	bl	92a4 <CP15MMUDisable>
    9c88:	e320f000 	nop	{0}
    9c8c:	e8bd8800 	pop	{fp, pc}

00009c90 <MMUConfigAndEnable>:
    9c90:	e92d4800 	push	{fp, lr}
    9c94:	e28db004 	add	fp, sp, #4
    9c98:	e3a01a01 	mov	r1, #4096	; 0x1000
    9c9c:	e3040000 	movw	r0, #16384	; 0x4000
    9ca0:	e3400002 	movt	r0, #2
    9ca4:	ebffff2c 	bl	995c <MMUInit>
    9ca8:	e3a01000 	mov	r1, #0
    9cac:	e3a00055 	mov	r0, #85	; 0x55
    9cb0:	ebfff9bf 	bl	83b4 <CHIPDBBaseAddress>
    9cb4:	e1a02000 	mov	r2, r0
    9cb8:	e30d3ba0 	movw	r3, #56224	; 0xdba0
    9cbc:	e3403001 	movt	r3, #1
    9cc0:	e5832000 	str	r2, [r3]
    9cc4:	e3041000 	movw	r1, #16384	; 0x4000
    9cc8:	e3401002 	movt	r1, #2
    9ccc:	e30d0b8c 	movw	r0, #56204	; 0xdb8c
    9cd0:	e3400001 	movt	r0, #1
    9cd4:	ebffff39 	bl	99c0 <MMUMemRegionMap>
    9cd8:	e3041000 	movw	r1, #16384	; 0x4000
    9cdc:	e3401002 	movt	r1, #2
    9ce0:	e30d0ba0 	movw	r0, #56224	; 0xdba0
    9ce4:	e3400001 	movt	r0, #1
    9ce8:	ebffff34 	bl	99c0 <MMUMemRegionMap>
    9cec:	e3041000 	movw	r1, #16384	; 0x4000
    9cf0:	e3401002 	movt	r1, #2
    9cf4:	e30d0bb4 	movw	r0, #56244	; 0xdbb4
    9cf8:	e3400001 	movt	r0, #1
    9cfc:	ebffff2f 	bl	99c0 <MMUMemRegionMap>
    9d00:	e3041000 	movw	r1, #16384	; 0x4000
    9d04:	e3401002 	movt	r1, #2
    9d08:	e30d0bc8 	movw	r0, #56264	; 0xdbc8
    9d0c:	e3400001 	movt	r0, #1
    9d10:	ebffff2a 	bl	99c0 <MMUMemRegionMap>
    9d14:	e3040000 	movw	r0, #16384	; 0x4000
    9d18:	e3400002 	movt	r0, #2
    9d1c:	ebffffcb 	bl	9c50 <MMUEnable>
    9d20:	e320f000 	nop	{0}
    9d24:	e8bd8800 	pop	{fp, pc}

00009d28 <MuxIntcP_create>:
    9d28:	e52db004 	push	{fp}		; (str fp, [sp, #-4]!)
    9d2c:	e28db000 	add	fp, sp, #0
    9d30:	e24dd014 	sub	sp, sp, #20
    9d34:	e50b0010 	str	r0, [fp, #-16]
    9d38:	e50b1014 	str	r1, [fp, #-20]	; 0xffffffec
    9d3c:	e3a03000 	mov	r3, #0
    9d40:	e54b3005 	strb	r3, [fp, #-5]
    9d44:	e51b3010 	ldr	r3, [fp, #-16]
    9d48:	e5932000 	ldr	r2, [r3]
    9d4c:	e51b3014 	ldr	r3, [fp, #-20]	; 0xffffffec
    9d50:	e5832000 	str	r2, [r3]
    9d54:	e51b3010 	ldr	r3, [fp, #-16]
    9d58:	e5932010 	ldr	r2, [r3, #16]
    9d5c:	e51b3014 	ldr	r3, [fp, #-20]	; 0xffffffec
    9d60:	e5832008 	str	r2, [r3, #8]
    9d64:	e15b30d5 	ldrsb	r3, [fp, #-5]
    9d68:	e1a00003 	mov	r0, r3
    9d6c:	e28bd000 	add	sp, fp, #0
    9d70:	e49db004 	pop	{fp}		; (ldr fp, [sp], #4)
    9d74:	e12fff1e 	bx	lr

00009d78 <MuxIntcP_enableInEvent>:
    9d78:	e52db004 	push	{fp}		; (str fp, [sp, #-4]!)
    9d7c:	e28db000 	add	fp, sp, #0
    9d80:	e24dd00c 	sub	sp, sp, #12
    9d84:	e50b0008 	str	r0, [fp, #-8]
    9d88:	e50b100c 	str	r1, [fp, #-12]
    9d8c:	e320f000 	nop	{0}
    9d90:	e28bd000 	add	sp, fp, #0
    9d94:	e49db004 	pop	{fp}		; (ldr fp, [sp], #4)
    9d98:	e12fff1e 	bx	lr

00009d9c <MuxIntcP_disableInEvent>:
    9d9c:	e52db004 	push	{fp}		; (str fp, [sp, #-4]!)
    9da0:	e28db000 	add	fp, sp, #0
    9da4:	e24dd00c 	sub	sp, sp, #12
    9da8:	e50b0008 	str	r0, [fp, #-8]
    9dac:	e50b100c 	str	r1, [fp, #-12]
    9db0:	e320f000 	nop	{0}
    9db4:	e28bd000 	add	sp, fp, #0
    9db8:	e49db004 	pop	{fp}		; (ldr fp, [sp], #4)
    9dbc:	e12fff1e 	bx	lr

00009dc0 <MuxIntcP_clearInEvent>:
    9dc0:	e52db004 	push	{fp}		; (str fp, [sp, #-4]!)
    9dc4:	e28db000 	add	fp, sp, #0
    9dc8:	e24dd00c 	sub	sp, sp, #12
    9dcc:	e50b0008 	str	r0, [fp, #-8]
    9dd0:	e50b100c 	str	r1, [fp, #-12]
    9dd4:	e320f000 	nop	{0}
    9dd8:	e28bd000 	add	sp, fp, #0
    9ddc:	e49db004 	pop	{fp}		; (ldr fp, [sp], #4)
    9de0:	e12fff1e 	bx	lr

00009de4 <MuxIntcP_enableOutEvent>:
    9de4:	e52db004 	push	{fp}		; (str fp, [sp, #-4]!)
    9de8:	e28db000 	add	fp, sp, #0
    9dec:	e24dd00c 	sub	sp, sp, #12
    9df0:	e50b0008 	str	r0, [fp, #-8]
    9df4:	e50b100c 	str	r1, [fp, #-12]
    9df8:	e320f000 	nop	{0}
    9dfc:	e28bd000 	add	sp, fp, #0
    9e00:	e49db004 	pop	{fp}		; (ldr fp, [sp], #4)
    9e04:	e12fff1e 	bx	lr

00009e08 <MuxIntcP_disableOutEvent>:
    9e08:	e52db004 	push	{fp}		; (str fp, [sp, #-4]!)
    9e0c:	e28db000 	add	fp, sp, #0
    9e10:	e24dd00c 	sub	sp, sp, #12
    9e14:	e50b0008 	str	r0, [fp, #-8]
    9e18:	e50b100c 	str	r1, [fp, #-12]
    9e1c:	e320f000 	nop	{0}
    9e20:	e28bd000 	add	sp, fp, #0
    9e24:	e49db004 	pop	{fp}		; (ldr fp, [sp], #4)
    9e28:	e12fff1e 	bx	lr

00009e2c <HW_RD_REG32_RAW>:
    9e2c:	e52db004 	push	{fp}		; (str fp, [sp, #-4]!)
    9e30:	e28db000 	add	fp, sp, #0
    9e34:	e24dd014 	sub	sp, sp, #20
    9e38:	e50b0010 	str	r0, [fp, #-16]
    9e3c:	e51b3010 	ldr	r3, [fp, #-16]
    9e40:	e5933000 	ldr	r3, [r3]
    9e44:	e50b3008 	str	r3, [fp, #-8]
    9e48:	e51b3008 	ldr	r3, [fp, #-8]
    9e4c:	e1a00003 	mov	r0, r3
    9e50:	e28bd000 	add	sp, fp, #0
    9e54:	e49db004 	pop	{fp}		; (ldr fp, [sp], #4)
    9e58:	e12fff1e 	bx	lr

00009e5c <HW_WR_REG32_RAW>:
    9e5c:	e52db004 	push	{fp}		; (str fp, [sp, #-4]!)
    9e60:	e28db000 	add	fp, sp, #0
    9e64:	e24dd00c 	sub	sp, sp, #12
    9e68:	e50b0008 	str	r0, [fp, #-8]
    9e6c:	e50b100c 	str	r1, [fp, #-12]
    9e70:	e51b3008 	ldr	r3, [fp, #-8]
    9e74:	e51b200c 	ldr	r2, [fp, #-12]
    9e78:	e5832000 	str	r2, [r3]
    9e7c:	e320f000 	nop	{0}
    9e80:	e28bd000 	add	sp, fp, #0
    9e84:	e49db004 	pop	{fp}		; (ldr fp, [sp], #4)
    9e88:	e12fff1e 	bx	lr

00009e8c <INTCInit>:
    9e8c:	e52db004 	push	{fp}		; (str fp, [sp, #-4]!)
    9e90:	e28db000 	add	fp, sp, #0
    9e94:	e24dd014 	sub	sp, sp, #20
    9e98:	e50b0010 	str	r0, [fp, #-16]
    9e9c:	e30034a8 	movw	r3, #1192	; 0x4a8
    9ea0:	e3403002 	movt	r3, #2
    9ea4:	e5933000 	ldr	r3, [r3]
    9ea8:	e3530000 	cmp	r3, #0
    9eac:	1a000025 	bne	9f48 <INTCInit+0xbc>
    9eb0:	e3a03010 	mov	r3, #16
    9eb4:	e3443820 	movt	r3, #18464	; 0x4820
    9eb8:	e3a02002 	mov	r2, #2
    9ebc:	e5832000 	str	r2, [r3]
    9ec0:	e320f000 	nop	{0}
    9ec4:	e3a03014 	mov	r3, #20
    9ec8:	e3443820 	movt	r3, #18464	; 0x4820
    9ecc:	e5933000 	ldr	r3, [r3]
    9ed0:	e2033001 	and	r3, r3, #1
    9ed4:	e3530001 	cmp	r3, #1
    9ed8:	1afffff9 	bne	9ec4 <INTCInit+0x38>
    9edc:	e3a03068 	mov	r3, #104	; 0x68
    9ee0:	e3443820 	movt	r3, #18464	; 0x4820
    9ee4:	e3a020ff 	mov	r2, #255	; 0xff
    9ee8:	e5832000 	str	r2, [r3]
    9eec:	e3a03000 	mov	r3, #0
    9ef0:	e50b3008 	str	r3, [fp, #-8]
    9ef4:	ea000008 	b	9f1c <INTCInit+0x90>
    9ef8:	e30030a4 	movw	r3, #164	; 0xa4
    9efc:	e3403002 	movt	r3, #2
    9f00:	e51b1008 	ldr	r1, [fp, #-8]
    9f04:	e30a239c 	movw	r2, #41884	; 0xa39c
    9f08:	e3402000 	movt	r2, #0
    9f0c:	e7832101 	str	r2, [r3, r1, lsl #2]
    9f10:	e51b3008 	ldr	r3, [fp, #-8]
    9f14:	e2833001 	add	r3, r3, #1
    9f18:	e50b3008 	str	r3, [fp, #-8]
    9f1c:	e51b3008 	ldr	r3, [fp, #-8]
    9f20:	e353007f 	cmp	r3, #127	; 0x7f
    9f24:	9afffff3 	bls	9ef8 <INTCInit+0x6c>
    9f28:	e3a0304c 	mov	r3, #76	; 0x4c
    9f2c:	e3443820 	movt	r3, #18464	; 0x4820
    9f30:	e3a02001 	mov	r2, #1
    9f34:	e5832000 	str	r2, [r3]
    9f38:	e30034a8 	movw	r3, #1192	; 0x4a8
    9f3c:	e3403002 	movt	r3, #2
    9f40:	e3a02001 	mov	r2, #1
    9f44:	e5832000 	str	r2, [r3]
    9f48:	e3a03000 	mov	r3, #0
    9f4c:	e1a00003 	mov	r0, r3
    9f50:	e28bd000 	add	sp, fp, #0
    9f54:	e49db004 	pop	{fp}		; (ldr fp, [sp], #4)
    9f58:	e12fff1e 	bx	lr

00009f5c <INTCConfigIntr>:
    9f5c:	e92d4800 	push	{fp, lr}
    9f60:	e28db004 	add	fp, sp, #4
    9f64:	e24dd018 	sub	sp, sp, #24
    9f68:	e50b0010 	str	r0, [fp, #-16]
    9f6c:	e50b1014 	str	r1, [fp, #-20]	; 0xffffffec
    9f70:	e50b2018 	str	r2, [fp, #-24]	; 0xffffffe8
    9f74:	e3a03000 	mov	r3, #0
    9f78:	e50b3008 	str	r3, [fp, #-8]
    9f7c:	e51b3018 	ldr	r3, [fp, #-24]	; 0xffffffe8
    9f80:	e3530001 	cmp	r3, #1
    9f84:	0a000006 	beq	9fa4 <INTCConfigIntr+0x48>
    9f88:	e51b3014 	ldr	r3, [fp, #-20]	; 0xffffffec
    9f8c:	e5933010 	ldr	r3, [r3, #16]
    9f90:	e3530001 	cmp	r3, #1
    9f94:	1a000002 	bne	9fa4 <INTCConfigIntr+0x48>
    9f98:	e3e03000 	mvn	r3, #0
    9f9c:	e50b3008 	str	r3, [fp, #-8]
    9fa0:	ea00002d 	b	a05c <INTCConfigIntr+0x100>
    9fa4:	e51b3014 	ldr	r3, [fp, #-20]	; 0xffffffec
    9fa8:	e5931008 	ldr	r1, [r3, #8]
    9fac:	e30030a4 	movw	r3, #164	; 0xa4
    9fb0:	e3403002 	movt	r3, #2
    9fb4:	e51b2010 	ldr	r2, [fp, #-16]
    9fb8:	e7831102 	str	r1, [r3, r2, lsl #2]
    9fbc:	e51b3014 	ldr	r3, [fp, #-20]	; 0xffffffec
    9fc0:	e593100c 	ldr	r1, [r3, #12]
    9fc4:	e30032a4 	movw	r3, #676	; 0x2a4
    9fc8:	e3403002 	movt	r3, #2
    9fcc:	e51b2010 	ldr	r2, [fp, #-16]
    9fd0:	e7831102 	str	r1, [r3, r2, lsl #2]
    9fd4:	e51b2010 	ldr	r2, [fp, #-16]
    9fd8:	e3a03040 	mov	r3, #64	; 0x40
    9fdc:	e3413208 	movt	r3, #4616	; 0x1208
    9fe0:	e0823003 	add	r3, r2, r3
    9fe4:	e1a03103 	lsl	r3, r3, #2
    9fe8:	e1a01003 	mov	r1, r3
    9fec:	e51b3014 	ldr	r3, [fp, #-20]	; 0xffffffec
    9ff0:	e5933004 	ldr	r3, [r3, #4]
    9ff4:	e1a03103 	lsl	r3, r3, #2
    9ff8:	e2032f7f 	and	r2, r3, #508	; 0x1fc
    9ffc:	e51b3014 	ldr	r3, [fp, #-20]	; 0xffffffec
    a000:	e5933010 	ldr	r3, [r3, #16]
    a004:	e1823003 	orr	r3, r2, r3
    a008:	e5813000 	str	r3, [r1]
    a00c:	e51b3010 	ldr	r3, [fp, #-16]
    a010:	e1a032a3 	lsr	r3, r3, #5
    a014:	e1a02283 	lsl	r2, r3, #5
    a018:	e3a03088 	mov	r3, #136	; 0x88
    a01c:	e3443820 	movt	r3, #18464	; 0x4820
    a020:	e0823003 	add	r3, r2, r3
    a024:	e1a01003 	mov	r1, r3
    a028:	e51b3010 	ldr	r3, [fp, #-16]
    a02c:	e203301f 	and	r3, r3, #31
    a030:	e3a02001 	mov	r2, #1
    a034:	e1a03312 	lsl	r3, r2, r3
    a038:	e5813000 	str	r3, [r1]
    a03c:	e51b3018 	ldr	r3, [fp, #-24]	; 0xffffffe8
    a040:	e3530001 	cmp	r3, #1
    a044:	1a000002 	bne	a054 <INTCConfigIntr+0xf8>
    a048:	e3a000c0 	mov	r0, #192	; 0xc0
    a04c:	ebfffd00 	bl	9454 <CPUIntrEnable>
    a050:	ea000001 	b	a05c <INTCConfigIntr+0x100>
    a054:	e3a00080 	mov	r0, #128	; 0x80
    a058:	ebfffcfd 	bl	9454 <CPUIntrEnable>
    a05c:	e51b3008 	ldr	r3, [fp, #-8]
    a060:	e1a00003 	mov	r0, r3
    a064:	e24bd004 	sub	sp, fp, #4
    a068:	e8bd8800 	pop	{fp, pc}

0000a06c <INTCEnableIntr>:
    a06c:	e52db004 	push	{fp}		; (str fp, [sp, #-4]!)
    a070:	e28db000 	add	fp, sp, #0
    a074:	e24dd014 	sub	sp, sp, #20
    a078:	e50b0010 	str	r0, [fp, #-16]
    a07c:	e3a03000 	mov	r3, #0
    a080:	e50b3008 	str	r3, [fp, #-8]
    a084:	e51b3010 	ldr	r3, [fp, #-16]
    a088:	e353007f 	cmp	r3, #127	; 0x7f
    a08c:	8a00000d 	bhi	a0c8 <INTCEnableIntr+0x5c>
    a090:	f57ff04f 	dsb	sy
    a094:	e51b3010 	ldr	r3, [fp, #-16]
    a098:	e1a032a3 	lsr	r3, r3, #5
    a09c:	e1a02283 	lsl	r2, r3, #5
    a0a0:	e3a03088 	mov	r3, #136	; 0x88
    a0a4:	e3443820 	movt	r3, #18464	; 0x4820
    a0a8:	e0823003 	add	r3, r2, r3
    a0ac:	e1a01003 	mov	r1, r3
    a0b0:	e51b3010 	ldr	r3, [fp, #-16]
    a0b4:	e203301f 	and	r3, r3, #31
    a0b8:	e3a02001 	mov	r2, #1
    a0bc:	e1a03312 	lsl	r3, r2, r3
    a0c0:	e5813000 	str	r3, [r1]
    a0c4:	ea000001 	b	a0d0 <INTCEnableIntr+0x64>
    a0c8:	e3e03004 	mvn	r3, #4
    a0cc:	e50b3008 	str	r3, [fp, #-8]
    a0d0:	e51b3008 	ldr	r3, [fp, #-8]
    a0d4:	e1a00003 	mov	r0, r3
    a0d8:	e28bd000 	add	sp, fp, #0
    a0dc:	e49db004 	pop	{fp}		; (ldr fp, [sp], #4)
    a0e0:	e12fff1e 	bx	lr

0000a0e4 <INTCDisableIntr>:
    a0e4:	e52db004 	push	{fp}		; (str fp, [sp, #-4]!)
    a0e8:	e28db000 	add	fp, sp, #0
    a0ec:	e24dd014 	sub	sp, sp, #20
    a0f0:	e50b0010 	str	r0, [fp, #-16]
    a0f4:	e3a03000 	mov	r3, #0
    a0f8:	e50b3008 	str	r3, [fp, #-8]
    a0fc:	e51b3010 	ldr	r3, [fp, #-16]
    a100:	e353007f 	cmp	r3, #127	; 0x7f
    a104:	8a00000d 	bhi	a140 <INTCDisableIntr+0x5c>
    a108:	f57ff04f 	dsb	sy
    a10c:	e51b3010 	ldr	r3, [fp, #-16]
    a110:	e1a032a3 	lsr	r3, r3, #5
    a114:	e1a02283 	lsl	r2, r3, #5
    a118:	e3a0308c 	mov	r3, #140	; 0x8c
    a11c:	e3443820 	movt	r3, #18464	; 0x4820
    a120:	e0823003 	add	r3, r2, r3
    a124:	e1a01003 	mov	r1, r3
    a128:	e51b3010 	ldr	r3, [fp, #-16]
    a12c:	e203301f 	and	r3, r3, #31
    a130:	e3a02001 	mov	r2, #1
    a134:	e1a03312 	lsl	r3, r2, r3
    a138:	e5813000 	str	r3, [r1]
    a13c:	ea000001 	b	a148 <INTCDisableIntr+0x64>
    a140:	e3e03004 	mvn	r3, #4
    a144:	e50b3008 	str	r3, [fp, #-8]
    a148:	e51b3008 	ldr	r3, [fp, #-8]
    a14c:	e1a00003 	mov	r0, r3
    a150:	e28bd000 	add	sp, fp, #0
    a154:	e49db004 	pop	{fp}		; (ldr fp, [sp], #4)
    a158:	e12fff1e 	bx	lr

0000a15c <INTCEnableCpuIntr>:
    a15c:	e92d4800 	push	{fp, lr}
    a160:	e28db004 	add	fp, sp, #4
    a164:	e24dd010 	sub	sp, sp, #16
    a168:	e50b0010 	str	r0, [fp, #-16]
    a16c:	e3a03000 	mov	r3, #0
    a170:	e50b3008 	str	r3, [fp, #-8]
    a174:	e51b3010 	ldr	r3, [fp, #-16]
    a178:	e3530080 	cmp	r3, #128	; 0x80
    a17c:	0a000005 	beq	a198 <INTCEnableCpuIntr+0x3c>
    a180:	e51b3010 	ldr	r3, [fp, #-16]
    a184:	e3530040 	cmp	r3, #64	; 0x40
    a188:	0a000002 	beq	a198 <INTCEnableCpuIntr+0x3c>
    a18c:	e51b3010 	ldr	r3, [fp, #-16]
    a190:	e35300c0 	cmp	r3, #192	; 0xc0
    a194:	1a000002 	bne	a1a4 <INTCEnableCpuIntr+0x48>
    a198:	e51b0010 	ldr	r0, [fp, #-16]
    a19c:	ebfffcac 	bl	9454 <CPUIntrEnable>
    a1a0:	ea000001 	b	a1ac <INTCEnableCpuIntr+0x50>
    a1a4:	e3e03001 	mvn	r3, #1
    a1a8:	e50b3008 	str	r3, [fp, #-8]
    a1ac:	e51b3008 	ldr	r3, [fp, #-8]
    a1b0:	e1a00003 	mov	r0, r3
    a1b4:	e24bd004 	sub	sp, fp, #4
    a1b8:	e8bd8800 	pop	{fp, pc}

0000a1bc <INTCDisableCpuIntr>:
    a1bc:	e92d4800 	push	{fp, lr}
    a1c0:	e28db004 	add	fp, sp, #4
    a1c4:	ebfffc90 	bl	940c <CPUIntrDisable>
    a1c8:	e1a03000 	mov	r3, r0
    a1cc:	e1a00003 	mov	r0, r3
    a1d0:	e8bd8800 	pop	{fp, pc}

0000a1d4 <INTCClearIntr>:
    a1d4:	e52db004 	push	{fp}		; (str fp, [sp, #-4]!)
    a1d8:	e28db000 	add	fp, sp, #0
    a1dc:	e24dd014 	sub	sp, sp, #20
    a1e0:	e50b0010 	str	r0, [fp, #-16]
    a1e4:	e3a03000 	mov	r3, #0
    a1e8:	e50b3008 	str	r3, [fp, #-8]
    a1ec:	e51b3010 	ldr	r3, [fp, #-16]
    a1f0:	e353007f 	cmp	r3, #127	; 0x7f
    a1f4:	8a00000c 	bhi	a22c <INTCClearIntr+0x58>
    a1f8:	e51b3010 	ldr	r3, [fp, #-16]
    a1fc:	e1a022a3 	lsr	r2, r3, #5
    a200:	e3a03004 	mov	r3, #4
    a204:	e3403241 	movt	r3, #577	; 0x241
    a208:	e0823003 	add	r3, r2, r3
    a20c:	e1a03283 	lsl	r3, r3, #5
    a210:	e1a01003 	mov	r1, r3
    a214:	e51b3010 	ldr	r3, [fp, #-16]
    a218:	e203301f 	and	r3, r3, #31
    a21c:	e3a02001 	mov	r2, #1
    a220:	e1a03312 	lsl	r3, r2, r3
    a224:	e5813000 	str	r3, [r1]
    a228:	ea000001 	b	a234 <INTCClearIntr+0x60>
    a22c:	e3e03004 	mvn	r3, #4
    a230:	e50b3008 	str	r3, [fp, #-8]
    a234:	e51b3008 	ldr	r3, [fp, #-8]
    a238:	e1a00003 	mov	r0, r3
    a23c:	e28bd000 	add	sp, fp, #0
    a240:	e49db004 	pop	{fp}		; (ldr fp, [sp], #4)
    a244:	e12fff1e 	bx	lr

0000a248 <INTCTriggerSWIntr>:
    a248:	e52db004 	push	{fp}		; (str fp, [sp, #-4]!)
    a24c:	e28db000 	add	fp, sp, #0
    a250:	e24dd014 	sub	sp, sp, #20
    a254:	e50b0010 	str	r0, [fp, #-16]
    a258:	e3a03000 	mov	r3, #0
    a25c:	e50b3008 	str	r3, [fp, #-8]
    a260:	e51b3010 	ldr	r3, [fp, #-16]
    a264:	e353007f 	cmp	r3, #127	; 0x7f
    a268:	8a00000c 	bhi	a2a0 <INTCTriggerSWIntr+0x58>
    a26c:	e51b3010 	ldr	r3, [fp, #-16]
    a270:	e1a032a3 	lsr	r3, r3, #5
    a274:	e1a02283 	lsl	r2, r3, #5
    a278:	e3a03090 	mov	r3, #144	; 0x90
    a27c:	e3443820 	movt	r3, #18464	; 0x4820
    a280:	e0823003 	add	r3, r2, r3
    a284:	e1a01003 	mov	r1, r3
    a288:	e51b3010 	ldr	r3, [fp, #-16]
    a28c:	e203301f 	and	r3, r3, #31
    a290:	e3a02001 	mov	r2, #1
    a294:	e1a03312 	lsl	r3, r2, r3
    a298:	e5813000 	str	r3, [r1]
    a29c:	ea000001 	b	a2a8 <INTCTriggerSWIntr+0x60>
    a2a0:	e3e03004 	mvn	r3, #4
    a2a4:	e50b3008 	str	r3, [fp, #-8]
    a2a8:	e51b3008 	ldr	r3, [fp, #-8]
    a2ac:	e1a00003 	mov	r0, r3
    a2b0:	e28bd000 	add	sp, fp, #0
    a2b4:	e49db004 	pop	{fp}		; (ldr fp, [sp], #4)
    a2b8:	e12fff1e 	bx	lr

0000a2bc <INTCCommonIntrHandler>:
    a2bc:	e92d4810 	push	{r4, fp, lr}
    a2c0:	e28db008 	add	fp, sp, #8
    a2c4:	e24dd014 	sub	sp, sp, #20
    a2c8:	e3a00040 	mov	r0, #64	; 0x40
    a2cc:	e3440820 	movt	r0, #18464	; 0x4820
    a2d0:	ebfffed5 	bl	9e2c <HW_RD_REG32_RAW>
    a2d4:	e50b0010 	str	r0, [fp, #-16]
    a2d8:	e51b3010 	ldr	r3, [fp, #-16]
    a2dc:	e203307f 	and	r3, r3, #127	; 0x7f
    a2e0:	e50b3014 	str	r3, [fp, #-20]	; 0xffffffec
    a2e4:	e3a03000 	mov	r3, #0
    a2e8:	e50b3018 	str	r3, [fp, #-24]	; 0xffffffe8
    a2ec:	e3a00068 	mov	r0, #104	; 0x68
    a2f0:	e3440820 	movt	r0, #18464	; 0x4820
    a2f4:	ebfffecc 	bl	9e2c <HW_RD_REG32_RAW>
    a2f8:	e50b001c 	str	r0, [fp, #-28]	; 0xffffffe4
    a2fc:	e3a00060 	mov	r0, #96	; 0x60
    a300:	e3440820 	movt	r0, #18464	; 0x4820
    a304:	ebfffec8 	bl	9e2c <HW_RD_REG32_RAW>
    a308:	e1a03000 	mov	r3, r0
    a30c:	e1a01003 	mov	r1, r3
    a310:	e3a00068 	mov	r0, #104	; 0x68
    a314:	e3440820 	movt	r0, #18464	; 0x4820
    a318:	ebfffecf 	bl	9e5c <HW_WR_REG32_RAW>
    a31c:	e3a01001 	mov	r1, #1
    a320:	e3a00048 	mov	r0, #72	; 0x48
    a324:	e3440820 	movt	r0, #18464	; 0x4820
    a328:	ebfffecb 	bl	9e5c <HW_WR_REG32_RAW>
    a32c:	e52d7004 	push	{r7}		; (str r7, [sp, #-4]!)
    a330:	e10f7000 	mrs	r7, CPSR
    a334:	e387701f 	orr	r7, r7, #31
    a338:	e3c77080 	bic	r7, r7, #128	; 0x80
    a33c:	e129f007 	msr	CPSR_fc, r7
    a340:	e92d4000 	stmfd	sp!, {lr}
    a344:	e30030a4 	movw	r3, #164	; 0xa4
    a348:	e3403002 	movt	r3, #2
    a34c:	e51b2014 	ldr	r2, [fp, #-20]	; 0xffffffec
    a350:	e7934102 	ldr	r4, [r3, r2, lsl #2]
    a354:	e30032a4 	movw	r3, #676	; 0x2a4
    a358:	e3403002 	movt	r3, #2
    a35c:	e51b2014 	ldr	r2, [fp, #-20]	; 0xffffffec
    a360:	e7933102 	ldr	r3, [r3, r2, lsl #2]
    a364:	e1a02003 	mov	r2, r3
    a368:	e51b1018 	ldr	r1, [fp, #-24]	; 0xffffffe8
    a36c:	e51b0014 	ldr	r0, [fp, #-20]	; 0xffffffec
    a370:	e12fff34 	blx	r4
    a374:	e8bd4000 	ldmfd	sp!, {lr}
    a378:	f10e0092 	cpsid	i,#18
    a37c:	e49d7004 	pop	{r7}		; (ldr r7, [sp], #4)
    a380:	e51b101c 	ldr	r1, [fp, #-28]	; 0xffffffe4
    a384:	e3a00068 	mov	r0, #104	; 0x68
    a388:	e3440820 	movt	r0, #18464	; 0x4820
    a38c:	ebfffeb2 	bl	9e5c <HW_WR_REG32_RAW>
    a390:	e320f000 	nop	{0}
    a394:	e24bd008 	sub	sp, fp, #8
    a398:	e8bd8810 	pop	{r4, fp, pc}

0000a39c <IntDefaultHandler>:
    a39c:	e52db004 	push	{fp}		; (str fp, [sp, #-4]!)
    a3a0:	e28db000 	add	fp, sp, #0
    a3a4:	e24dd014 	sub	sp, sp, #20
    a3a8:	e50b0008 	str	r0, [fp, #-8]
    a3ac:	e50b100c 	str	r1, [fp, #-12]
    a3b0:	e50b2010 	str	r2, [fp, #-16]
    a3b4:	e30034a4 	movw	r3, #1188	; 0x4a4
    a3b8:	e3403002 	movt	r3, #2
    a3bc:	e5933000 	ldr	r3, [r3]
    a3c0:	e2832001 	add	r2, r3, #1
    a3c4:	e30034a4 	movw	r3, #1188	; 0x4a4
    a3c8:	e3403002 	movt	r3, #2
    a3cc:	e5832000 	str	r2, [r3]
    a3d0:	e320f000 	nop	{0}
    a3d4:	e28bd000 	add	sp, fp, #0
    a3d8:	e49db004 	pop	{fp}		; (ldr fp, [sp], #4)
    a3dc:	e12fff1e 	bx	lr

0000a3e0 <Osal_RegisterInterrupt_initParams>:
    a3e0:	e52db004 	push	{fp}		; (str fp, [sp, #-4]!)
    a3e4:	e28db000 	add	fp, sp, #0
    a3e8:	e24dd00c 	sub	sp, sp, #12
    a3ec:	e50b0008 	str	r0, [fp, #-8]
    a3f0:	e51b3008 	ldr	r3, [fp, #-8]
    a3f4:	e3530000 	cmp	r3, #0
    a3f8:	0a00001b 	beq	a46c <Osal_RegisterInterrupt_initParams+0x8c>
    a3fc:	e51b3008 	ldr	r3, [fp, #-8]
    a400:	e3a02000 	mov	r2, #0
    a404:	e5832000 	str	r2, [r3]
    a408:	e51b3008 	ldr	r3, [fp, #-8]
    a40c:	e3e02000 	mvn	r2, #0
    a410:	e5832004 	str	r2, [r3, #4]
    a414:	e51b3008 	ldr	r3, [fp, #-8]
    a418:	e3e02000 	mvn	r2, #0
    a41c:	e5832008 	str	r2, [r3, #8]
    a420:	e51b3008 	ldr	r3, [fp, #-8]
    a424:	e3a02000 	mov	r2, #0
    a428:	e583200c 	str	r2, [r3, #12]
    a42c:	e51b3008 	ldr	r3, [fp, #-8]
    a430:	e3a02000 	mov	r2, #0
    a434:	e5832010 	str	r2, [r3, #16]
    a438:	e51b3008 	ldr	r3, [fp, #-8]
    a43c:	e3a02020 	mov	r2, #32
    a440:	e5832014 	str	r2, [r3, #20]
    a444:	e51b3008 	ldr	r3, [fp, #-8]
    a448:	e3a02003 	mov	r2, #3
    a44c:	e5832018 	str	r2, [r3, #24]
    a450:	e51b3008 	ldr	r3, [fp, #-8]
    a454:	e3a02000 	mov	r2, #0
    a458:	e583201c 	str	r2, [r3, #28]
    a45c:	e51b3008 	ldr	r3, [fp, #-8]
    a460:	e3a02000 	mov	r2, #0
    a464:	e5832020 	str	r2, [r3, #32]
    a468:	e320f000 	nop	{0}
    a46c:	e320f000 	nop	{0}
    a470:	e28bd000 	add	sp, fp, #0
    a474:	e49db004 	pop	{fp}		; (ldr fp, [sp], #4)
    a478:	e12fff1e 	bx	lr

0000a47c <Osal_RegisterInterrupt>:
    a47c:	e92d4800 	push	{fp, lr}
    a480:	e28db004 	add	fp, sp, #4
    a484:	e24dd028 	sub	sp, sp, #40	; 0x28
    a488:	e50b0028 	str	r0, [fp, #-40]	; 0xffffffd8
    a48c:	e50b102c 	str	r1, [fp, #-44]	; 0xffffffd4
    a490:	e3a03000 	mov	r3, #0
    a494:	e54b3005 	strb	r3, [fp, #-5]
    a498:	e3a03000 	mov	r3, #0
    a49c:	e50b300c 	str	r3, [fp, #-12]
    a4a0:	e51b3028 	ldr	r3, [fp, #-40]	; 0xffffffd8
    a4a4:	e593300c 	ldr	r3, [r3, #12]
    a4a8:	e3530000 	cmp	r3, #0
    a4ac:	0a000003 	beq	a4c0 <Osal_RegisterInterrupt+0x44>
    a4b0:	e51b3028 	ldr	r3, [fp, #-40]	; 0xffffffd8
    a4b4:	e5933004 	ldr	r3, [r3, #4]
    a4b8:	e3530000 	cmp	r3, #0
    a4bc:	aa000001 	bge	a4c8 <Osal_RegisterInterrupt+0x4c>
    a4c0:	e3e03000 	mvn	r3, #0
    a4c4:	e54b3005 	strb	r3, [fp, #-5]
    a4c8:	e51b3028 	ldr	r3, [fp, #-40]	; 0xffffffd8
    a4cc:	e5933000 	ldr	r3, [r3]
    a4d0:	e50b3020 	str	r3, [fp, #-32]	; 0xffffffe0
    a4d4:	e51b3028 	ldr	r3, [fp, #-40]	; 0xffffffd8
    a4d8:	e5933010 	ldr	r3, [r3, #16]
    a4dc:	e50b301c 	str	r3, [fp, #-28]	; 0xffffffe4
    a4e0:	e51b3028 	ldr	r3, [fp, #-40]	; 0xffffffd8
    a4e4:	e5933014 	ldr	r3, [r3, #20]
    a4e8:	e50b3018 	str	r3, [fp, #-24]	; 0xffffffe8
    a4ec:	e51b3028 	ldr	r3, [fp, #-40]	; 0xffffffd8
    a4f0:	e5933004 	ldr	r3, [r3, #4]
    a4f4:	e50b3014 	str	r3, [fp, #-20]	; 0xffffffec
    a4f8:	e51b3028 	ldr	r3, [fp, #-40]	; 0xffffffd8
    a4fc:	e5933018 	ldr	r3, [r3, #24]
    a500:	e50b3010 	str	r3, [fp, #-16]
    a504:	e51b3028 	ldr	r3, [fp, #-40]	; 0xffffffd8
    a508:	e5930008 	ldr	r0, [r3, #8]
    a50c:	e51b3028 	ldr	r3, [fp, #-40]	; 0xffffffd8
    a510:	e593300c 	ldr	r3, [r3, #12]
    a514:	e24b2020 	sub	r2, fp, #32
    a518:	e1a01003 	mov	r1, r3
    a51c:	ebfffc4b 	bl	9650 <HwiP_create>
    a520:	e50b000c 	str	r0, [fp, #-12]
    a524:	e51b300c 	ldr	r3, [fp, #-12]
    a528:	e3530000 	cmp	r3, #0
    a52c:	1a000002 	bne	a53c <Osal_RegisterInterrupt+0xc0>
    a530:	e3e03001 	mvn	r3, #1
    a534:	e54b3005 	strb	r3, [fp, #-5]
    a538:	e320f000 	nop	{0}
    a53c:	e51b302c 	ldr	r3, [fp, #-44]	; 0xffffffd4
    a540:	e51b200c 	ldr	r2, [fp, #-12]
    a544:	e5832000 	str	r2, [r3]
    a548:	e15b30d5 	ldrsb	r3, [fp, #-5]
    a54c:	e1a00003 	mov	r0, r3
    a550:	e24bd004 	sub	sp, fp, #4
    a554:	e8bd8800 	pop	{fp, pc}

0000a558 <Osal_DeleteInterrupt>:
    a558:	e92d4800 	push	{fp, lr}
    a55c:	e28db004 	add	fp, sp, #4
    a560:	e24dd010 	sub	sp, sp, #16
    a564:	e50b0010 	str	r0, [fp, #-16]
    a568:	e50b1014 	str	r1, [fp, #-20]	; 0xffffffec
    a56c:	e3a03000 	mov	r3, #0
    a570:	e54b3006 	strb	r3, [fp, #-6]
    a574:	e3a03000 	mov	r3, #0
    a578:	e54b3005 	strb	r3, [fp, #-5]
    a57c:	e51b0010 	ldr	r0, [fp, #-16]
    a580:	ebfffc59 	bl	96ec <HwiP_delete>
    a584:	e1a03000 	mov	r3, r0
    a588:	e54b3006 	strb	r3, [fp, #-6]
    a58c:	e15b30d6 	ldrsb	r3, [fp, #-6]
    a590:	e3530000 	cmp	r3, #0
    a594:	0a000001 	beq	a5a0 <Osal_DeleteInterrupt+0x48>
    a598:	e3e03003 	mvn	r3, #3
    a59c:	e54b3005 	strb	r3, [fp, #-5]
    a5a0:	e15b30d5 	ldrsb	r3, [fp, #-5]
    a5a4:	e1a00003 	mov	r0, r3
    a5a8:	e24bd004 	sub	sp, fp, #4
    a5ac:	e8bd8800 	pop	{fp, pc}

0000a5b0 <Osal_EnableInterrupt>:
    a5b0:	e92d4800 	push	{fp, lr}
    a5b4:	e28db004 	add	fp, sp, #4
    a5b8:	e24dd008 	sub	sp, sp, #8
    a5bc:	e50b0008 	str	r0, [fp, #-8]
    a5c0:	e50b100c 	str	r1, [fp, #-12]
    a5c4:	e51b000c 	ldr	r0, [fp, #-12]
    a5c8:	ebfffc7c 	bl	97c0 <HwiP_enableInterrupt>
    a5cc:	e320f000 	nop	{0}
    a5d0:	e24bd004 	sub	sp, fp, #4
    a5d4:	e8bd8800 	pop	{fp, pc}

0000a5d8 <Osal_DisableInterrupt>:
    a5d8:	e92d4800 	push	{fp, lr}
    a5dc:	e28db004 	add	fp, sp, #4
    a5e0:	e24dd008 	sub	sp, sp, #8
    a5e4:	e50b0008 	str	r0, [fp, #-8]
    a5e8:	e50b100c 	str	r1, [fp, #-12]
    a5ec:	e51b000c 	ldr	r0, [fp, #-12]
    a5f0:	ebfffc68 	bl	9798 <HwiP_disableInterrupt>
    a5f4:	e320f000 	nop	{0}
    a5f8:	e24bd004 	sub	sp, fp, #4
    a5fc:	e8bd8800 	pop	{fp, pc}

0000a600 <Osal_ClearInterrupt>:
    a600:	e92d4800 	push	{fp, lr}
    a604:	e28db004 	add	fp, sp, #4
    a608:	e24dd010 	sub	sp, sp, #16
    a60c:	e50b0010 	str	r0, [fp, #-16]
    a610:	e50b1014 	str	r1, [fp, #-20]	; 0xffffffec
    a614:	e51b3014 	ldr	r3, [fp, #-20]	; 0xffffffec
    a618:	e50b3008 	str	r3, [fp, #-8]
    a61c:	e51b0008 	ldr	r0, [fp, #-8]
    a620:	ebfffc00 	bl	9628 <HwiP_clearInterrupt>
    a624:	e320f000 	nop	{0}
    a628:	e24bd004 	sub	sp, fp, #4
    a62c:	e8bd8800 	pop	{fp, pc}

0000a630 <SemaphoreP_compileTime_SizeChk>:
    a630:	e52db004 	push	{fp}		; (str fp, [sp, #-4]!)
    a634:	e28db000 	add	fp, sp, #0
    a638:	e24dd00c 	sub	sp, sp, #12
    a63c:	e320f000 	nop	{0}
    a640:	e28bd000 	add	sp, fp, #0
    a644:	e49db004 	pop	{fp}		; (ldr fp, [sp], #4)
    a648:	e12fff1e 	bx	lr

0000a64c <SemaphoreP_create>:
    a64c:	e92d4800 	push	{fp, lr}
    a650:	e28db004 	add	fp, sp, #4
    a654:	e24dd020 	sub	sp, sp, #32
    a658:	e50b0020 	str	r0, [fp, #-32]	; 0xffffffe0
    a65c:	e50b1024 	str	r1, [fp, #-36]	; 0xffffffdc
    a660:	ebfffc46 	bl	9780 <HwiP_disable>
    a664:	e50b0018 	str	r0, [fp, #-24]	; 0xffffffe8
    a668:	e30d3d7c 	movw	r3, #56700	; 0xdd7c
    a66c:	e3403001 	movt	r3, #1
    a670:	e5933010 	ldr	r3, [r3, #16]
    a674:	e3530000 	cmp	r3, #0
    a678:	0a00000d 	beq	a6b4 <SemaphoreP_create+0x68>
    a67c:	e30d3d7c 	movw	r3, #56700	; 0xdd7c
    a680:	e3403001 	movt	r3, #1
    a684:	e5933010 	ldr	r3, [r3, #16]
    a688:	e50b3010 	str	r3, [fp, #-16]
    a68c:	e30d3d7c 	movw	r3, #56700	; 0xdd7c
    a690:	e3403001 	movt	r3, #1
    a694:	e5932014 	ldr	r2, [r3, #20]
    a698:	e51b3010 	ldr	r3, [fp, #-16]
    a69c:	e0823003 	add	r3, r2, r3
    a6a0:	e50b301c 	str	r3, [fp, #-28]	; 0xffffffe4
    a6a4:	e51b301c 	ldr	r3, [fp, #-28]	; 0xffffffe4
    a6a8:	e1a03223 	lsr	r3, r3, #4
    a6ac:	e50b3014 	str	r3, [fp, #-20]	; 0xffffffec
    a6b0:	ea000004 	b	a6c8 <SemaphoreP_create+0x7c>
    a6b4:	e30d3bdc 	movw	r3, #56284	; 0xdbdc
    a6b8:	e3403001 	movt	r3, #1
    a6bc:	e50b3010 	str	r3, [fp, #-16]
    a6c0:	e3a03014 	mov	r3, #20
    a6c4:	e50b3014 	str	r3, [fp, #-20]	; 0xffffffec
    a6c8:	e3a03000 	mov	r3, #0
    a6cc:	e50b3008 	str	r3, [fp, #-8]
    a6d0:	ea00003d 	b	a7cc <SemaphoreP_create+0x180>
    a6d4:	e51b3008 	ldr	r3, [fp, #-8]
    a6d8:	e1a03203 	lsl	r3, r3, #4
    a6dc:	e51b2010 	ldr	r2, [fp, #-16]
    a6e0:	e0823003 	add	r3, r2, r3
    a6e4:	e5d33000 	ldrb	r3, [r3]
    a6e8:	e2233001 	eor	r3, r3, #1
    a6ec:	e6ef3073 	uxtb	r3, r3
    a6f0:	e3530000 	cmp	r3, #0
    a6f4:	0a000031 	beq	a7c0 <SemaphoreP_create+0x174>
    a6f8:	e51b3008 	ldr	r3, [fp, #-8]
    a6fc:	e1a03203 	lsl	r3, r3, #4
    a700:	e51b2010 	ldr	r2, [fp, #-16]
    a704:	e0823003 	add	r3, r2, r3
    a708:	e3a02001 	mov	r2, #1
    a70c:	e5c32000 	strb	r2, [r3]
    a710:	e30034ac 	movw	r3, #1196	; 0x4ac
    a714:	e3403002 	movt	r3, #2
    a718:	e5933000 	ldr	r3, [r3]
    a71c:	e2832001 	add	r2, r3, #1
    a720:	e30034ac 	movw	r3, #1196	; 0x4ac
    a724:	e3403002 	movt	r3, #2
    a728:	e5832000 	str	r2, [r3]
    a72c:	e30034ac 	movw	r3, #1196	; 0x4ac
    a730:	e3403002 	movt	r3, #2
    a734:	e5932000 	ldr	r2, [r3]
    a738:	e30034b0 	movw	r3, #1200	; 0x4b0
    a73c:	e3403002 	movt	r3, #2
    a740:	e5933000 	ldr	r3, [r3]
    a744:	e1520003 	cmp	r2, r3
    a748:	9a000005 	bls	a764 <SemaphoreP_create+0x118>
    a74c:	e30034ac 	movw	r3, #1196	; 0x4ac
    a750:	e3403002 	movt	r3, #2
    a754:	e5932000 	ldr	r2, [r3]
    a758:	e30034b0 	movw	r3, #1200	; 0x4b0
    a75c:	e3403002 	movt	r3, #2
    a760:	e5832000 	str	r2, [r3]
    a764:	e51b3008 	ldr	r3, [fp, #-8]
    a768:	e1a03203 	lsl	r3, r3, #4
    a76c:	e51b2010 	ldr	r2, [fp, #-16]
    a770:	e0823003 	add	r3, r2, r3
    a774:	e51b2008 	ldr	r2, [fp, #-8]
    a778:	e5832004 	str	r2, [r3, #4]
    a77c:	e51b3008 	ldr	r3, [fp, #-8]
    a780:	e1a03203 	lsl	r3, r3, #4
    a784:	e51b2010 	ldr	r2, [fp, #-16]
    a788:	e0823003 	add	r3, r2, r3
    a78c:	e51b2020 	ldr	r2, [fp, #-32]	; 0xffffffe0
    a790:	e5832008 	str	r2, [r3, #8]
    a794:	e51b3024 	ldr	r3, [fp, #-36]	; 0xffffffdc
    a798:	e3530000 	cmp	r3, #0
    a79c:	0a00000f 	beq	a7e0 <SemaphoreP_create+0x194>
    a7a0:	e51b3008 	ldr	r3, [fp, #-8]
    a7a4:	e1a03203 	lsl	r3, r3, #4
    a7a8:	e51b2010 	ldr	r2, [fp, #-16]
    a7ac:	e0823003 	add	r3, r2, r3
    a7b0:	e51b2024 	ldr	r2, [fp, #-36]	; 0xffffffdc
    a7b4:	e5d22004 	ldrb	r2, [r2, #4]
    a7b8:	e5c3200c 	strb	r2, [r3, #12]
    a7bc:	ea000007 	b	a7e0 <SemaphoreP_create+0x194>
    a7c0:	e51b3008 	ldr	r3, [fp, #-8]
    a7c4:	e2833001 	add	r3, r3, #1
    a7c8:	e50b3008 	str	r3, [fp, #-8]
    a7cc:	e51b2008 	ldr	r2, [fp, #-8]
    a7d0:	e51b3014 	ldr	r3, [fp, #-20]	; 0xffffffec
    a7d4:	e1520003 	cmp	r2, r3
    a7d8:	3affffbd 	bcc	a6d4 <SemaphoreP_create+0x88>
    a7dc:	ea000000 	b	a7e4 <SemaphoreP_create+0x198>
    a7e0:	e320f000 	nop	{0}
    a7e4:	e51b0018 	ldr	r0, [fp, #-24]	; 0xffffffe8
    a7e8:	ebfffc1e 	bl	9868 <HwiP_restore>
    a7ec:	e51b2008 	ldr	r2, [fp, #-8]
    a7f0:	e51b3014 	ldr	r3, [fp, #-20]	; 0xffffffec
    a7f4:	e1520003 	cmp	r2, r3
    a7f8:	1a000002 	bne	a808 <SemaphoreP_create+0x1bc>
    a7fc:	e3a03000 	mov	r3, #0
    a800:	e50b300c 	str	r3, [fp, #-12]
    a804:	ea000004 	b	a81c <SemaphoreP_create+0x1d0>
    a808:	e51b3008 	ldr	r3, [fp, #-8]
    a80c:	e1a03203 	lsl	r3, r3, #4
    a810:	e51b2010 	ldr	r2, [fp, #-16]
    a814:	e0823003 	add	r3, r2, r3
    a818:	e50b300c 	str	r3, [fp, #-12]
    a81c:	e51b300c 	ldr	r3, [fp, #-12]
    a820:	e1a00003 	mov	r0, r3
    a824:	e24bd004 	sub	sp, fp, #4
    a828:	e8bd8800 	pop	{fp, pc}

0000a82c <SemaphoreP_delete>:
    a82c:	e92d4800 	push	{fp, lr}
    a830:	e28db004 	add	fp, sp, #4
    a834:	e24dd010 	sub	sp, sp, #16
    a838:	e50b0010 	str	r0, [fp, #-16]
    a83c:	e51b3010 	ldr	r3, [fp, #-16]
    a840:	e3530000 	cmp	r3, #0
    a844:	03a03001 	moveq	r3, #1
    a848:	13a03000 	movne	r3, #0
    a84c:	e6ef3073 	uxtb	r3, r3
    a850:	e3a020a2 	mov	r2, #162	; 0xa2
    a854:	e30d1954 	movw	r1, #55636	; 0xd954
    a858:	e3401000 	movt	r1, #0
    a85c:	e1a00003 	mov	r0, r3
    a860:	eb0008e0 	bl	cbe8 <_DebugP_assert>
    a864:	e51b3010 	ldr	r3, [fp, #-16]
    a868:	e50b3008 	str	r3, [fp, #-8]
    a86c:	ebfffbc3 	bl	9780 <HwiP_disable>
    a870:	e50b000c 	str	r0, [fp, #-12]
    a874:	e51b3008 	ldr	r3, [fp, #-8]
    a878:	e3a02000 	mov	r2, #0
    a87c:	e5c32000 	strb	r2, [r3]
    a880:	e30034ac 	movw	r3, #1196	; 0x4ac
    a884:	e3403002 	movt	r3, #2
    a888:	e5933000 	ldr	r3, [r3]
    a88c:	e3530000 	cmp	r3, #0
    a890:	0a000006 	beq	a8b0 <SemaphoreP_delete+0x84>
    a894:	e30034ac 	movw	r3, #1196	; 0x4ac
    a898:	e3403002 	movt	r3, #2
    a89c:	e5933000 	ldr	r3, [r3]
    a8a0:	e2432001 	sub	r2, r3, #1
    a8a4:	e30034ac 	movw	r3, #1196	; 0x4ac
    a8a8:	e3403002 	movt	r3, #2
    a8ac:	e5832000 	str	r2, [r3]
    a8b0:	e51b000c 	ldr	r0, [fp, #-12]
    a8b4:	ebfffbeb 	bl	9868 <HwiP_restore>
    a8b8:	e3a03000 	mov	r3, #0
    a8bc:	e1a00003 	mov	r0, r3
    a8c0:	e24bd004 	sub	sp, fp, #4
    a8c4:	e8bd8800 	pop	{fp, pc}

0000a8c8 <SemaphoreP_Params_init>:
    a8c8:	e92d4800 	push	{fp, lr}
    a8cc:	e28db004 	add	fp, sp, #4
    a8d0:	e24dd008 	sub	sp, sp, #8
    a8d4:	e50b0008 	str	r0, [fp, #-8]
    a8d8:	e51b3008 	ldr	r3, [fp, #-8]
    a8dc:	e3530000 	cmp	r3, #0
    a8e0:	03a03001 	moveq	r3, #1
    a8e4:	13a03000 	movne	r3, #0
    a8e8:	e6ef3073 	uxtb	r3, r3
    a8ec:	e3a020b8 	mov	r2, #184	; 0xb8
    a8f0:	e30d1954 	movw	r1, #55636	; 0xd954
    a8f4:	e3401000 	movt	r1, #0
    a8f8:	e1a00003 	mov	r0, r3
    a8fc:	eb0008b9 	bl	cbe8 <_DebugP_assert>
    a900:	e51b3008 	ldr	r3, [fp, #-8]
    a904:	e3a02000 	mov	r2, #0
    a908:	e5c32004 	strb	r2, [r3, #4]
    a90c:	e51b3008 	ldr	r3, [fp, #-8]
    a910:	e3a02000 	mov	r2, #0
    a914:	e5832000 	str	r2, [r3]
    a918:	e320f000 	nop	{0}
    a91c:	e24bd004 	sub	sp, fp, #4
    a920:	e8bd8800 	pop	{fp, pc}

0000a924 <SemaphoreP_pend>:
    a924:	e92d4800 	push	{fp, lr}
    a928:	e28db004 	add	fp, sp, #4
    a92c:	e24dd018 	sub	sp, sp, #24
    a930:	e50b0018 	str	r0, [fp, #-24]	; 0xffffffe8
    a934:	e50b101c 	str	r1, [fp, #-28]	; 0xffffffe4
    a938:	e51b3018 	ldr	r3, [fp, #-24]	; 0xffffffe8
    a93c:	e3530000 	cmp	r3, #0
    a940:	03a03001 	moveq	r3, #1
    a944:	13a03000 	movne	r3, #0
    a948:	e6ef3073 	uxtb	r3, r3
    a94c:	e3a020c2 	mov	r2, #194	; 0xc2
    a950:	e30d1954 	movw	r1, #55636	; 0xd954
    a954:	e3401000 	movt	r1, #0
    a958:	e1a00003 	mov	r0, r3
    a95c:	eb0008a1 	bl	cbe8 <_DebugP_assert>
    a960:	e51b3018 	ldr	r3, [fp, #-24]	; 0xffffffe8
    a964:	e50b3010 	str	r3, [fp, #-16]
    a968:	e51b301c 	ldr	r3, [fp, #-28]	; 0xffffffe4
    a96c:	e50b3008 	str	r3, [fp, #-8]
    a970:	e3a03000 	mov	r3, #0
    a974:	e54b3009 	strb	r3, [fp, #-9]
    a978:	ea000025 	b	aa14 <SemaphoreP_pend+0xf0>
    a97c:	ebfffb7f 	bl	9780 <HwiP_disable>
    a980:	e50b0014 	str	r0, [fp, #-20]	; 0xffffffec
    a984:	e51b3010 	ldr	r3, [fp, #-16]
    a988:	e5933008 	ldr	r3, [r3, #8]
    a98c:	e3530000 	cmp	r3, #0
    a990:	0a00000f 	beq	a9d4 <SemaphoreP_pend+0xb0>
    a994:	e51b3010 	ldr	r3, [fp, #-16]
    a998:	e5d3300c 	ldrb	r3, [r3, #12]
    a99c:	e3530001 	cmp	r3, #1
    a9a0:	1a000003 	bne	a9b4 <SemaphoreP_pend+0x90>
    a9a4:	e51b3010 	ldr	r3, [fp, #-16]
    a9a8:	e3a02000 	mov	r2, #0
    a9ac:	e5832008 	str	r2, [r3, #8]
    a9b0:	ea000004 	b	a9c8 <SemaphoreP_pend+0xa4>
    a9b4:	e51b3010 	ldr	r3, [fp, #-16]
    a9b8:	e5933008 	ldr	r3, [r3, #8]
    a9bc:	e2432001 	sub	r2, r3, #1
    a9c0:	e51b3010 	ldr	r3, [fp, #-16]
    a9c4:	e5832008 	str	r2, [r3, #8]
    a9c8:	e51b0014 	ldr	r0, [fp, #-20]	; 0xffffffec
    a9cc:	ebfffba5 	bl	9868 <HwiP_restore>
    a9d0:	ea000012 	b	aa20 <SemaphoreP_pend+0xfc>
    a9d4:	e51b0014 	ldr	r0, [fp, #-20]	; 0xffffffec
    a9d8:	ebfffba2 	bl	9868 <HwiP_restore>
    a9dc:	e51b3008 	ldr	r3, [fp, #-8]
    a9e0:	e3530000 	cmp	r3, #0
    a9e4:	1a000002 	bne	a9f4 <SemaphoreP_pend+0xd0>
    a9e8:	e3e03001 	mvn	r3, #1
    a9ec:	e54b3009 	strb	r3, [fp, #-9]
    a9f0:	ea00000a 	b	aa20 <SemaphoreP_pend+0xfc>
    a9f4:	e51b3008 	ldr	r3, [fp, #-8]
    a9f8:	e3730001 	cmn	r3, #1
    a9fc:	0a000004 	beq	aa14 <SemaphoreP_pend+0xf0>
    aa00:	e3a00001 	mov	r0, #1
    aa04:	ebfffad4 	bl	955c <Osal_delay>
    aa08:	e51b3008 	ldr	r3, [fp, #-8]
    aa0c:	e2433001 	sub	r3, r3, #1
    aa10:	e50b3008 	str	r3, [fp, #-8]
    aa14:	e15b30d9 	ldrsb	r3, [fp, #-9]
    aa18:	e3530000 	cmp	r3, #0
    aa1c:	0affffd6 	beq	a97c <SemaphoreP_pend+0x58>
    aa20:	e15b30d9 	ldrsb	r3, [fp, #-9]
    aa24:	e1a00003 	mov	r0, r3
    aa28:	e24bd004 	sub	sp, fp, #4
    aa2c:	e8bd8800 	pop	{fp, pc}

0000aa30 <SemaphoreP_post>:
    aa30:	e92d4800 	push	{fp, lr}
    aa34:	e28db004 	add	fp, sp, #4
    aa38:	e24dd010 	sub	sp, sp, #16
    aa3c:	e50b0010 	str	r0, [fp, #-16]
    aa40:	e51b3010 	ldr	r3, [fp, #-16]
    aa44:	e3530000 	cmp	r3, #0
    aa48:	03a03001 	moveq	r3, #1
    aa4c:	13a03000 	movne	r3, #0
    aa50:	e6ef3073 	uxtb	r3, r3
    aa54:	e3a020f5 	mov	r2, #245	; 0xf5
    aa58:	e30d1954 	movw	r1, #55636	; 0xd954
    aa5c:	e3401000 	movt	r1, #0
    aa60:	e1a00003 	mov	r0, r3
    aa64:	eb00085f 	bl	cbe8 <_DebugP_assert>
    aa68:	e51b3010 	ldr	r3, [fp, #-16]
    aa6c:	e50b3008 	str	r3, [fp, #-8]
    aa70:	ebfffb42 	bl	9780 <HwiP_disable>
    aa74:	e50b000c 	str	r0, [fp, #-12]
    aa78:	e51b3008 	ldr	r3, [fp, #-8]
    aa7c:	e5d3300c 	ldrb	r3, [r3, #12]
    aa80:	e3530001 	cmp	r3, #1
    aa84:	1a000003 	bne	aa98 <SemaphoreP_post+0x68>
    aa88:	e51b3008 	ldr	r3, [fp, #-8]
    aa8c:	e3a02001 	mov	r2, #1
    aa90:	e5832008 	str	r2, [r3, #8]
    aa94:	ea000004 	b	aaac <SemaphoreP_post+0x7c>
    aa98:	e51b3008 	ldr	r3, [fp, #-8]
    aa9c:	e5933008 	ldr	r3, [r3, #8]
    aaa0:	e2832001 	add	r2, r3, #1
    aaa4:	e51b3008 	ldr	r3, [fp, #-8]
    aaa8:	e5832008 	str	r2, [r3, #8]
    aaac:	e51b000c 	ldr	r0, [fp, #-12]
    aab0:	ebfffb6c 	bl	9868 <HwiP_restore>
    aab4:	e3a03000 	mov	r3, #0
    aab8:	e1a00003 	mov	r0, r3
    aabc:	e24bd004 	sub	sp, fp, #4
    aac0:	e8bd8800 	pop	{fp, pc}

0000aac4 <SemaphoreP_getCount>:
    aac4:	e92d4800 	push	{fp, lr}
    aac8:	e28db004 	add	fp, sp, #4
    aacc:	e24dd010 	sub	sp, sp, #16
    aad0:	e50b0010 	str	r0, [fp, #-16]
    aad4:	e51b3010 	ldr	r3, [fp, #-16]
    aad8:	e3530000 	cmp	r3, #0
    aadc:	03a03001 	moveq	r3, #1
    aae0:	13a03000 	movne	r3, #0
    aae4:	e6ef3073 	uxtb	r3, r3
    aae8:	e300210e 	movw	r2, #270	; 0x10e
    aaec:	e30d1954 	movw	r1, #55636	; 0xd954
    aaf0:	e3401000 	movt	r1, #0
    aaf4:	e1a00003 	mov	r0, r3
    aaf8:	eb00083a 	bl	cbe8 <_DebugP_assert>
    aafc:	e51b3010 	ldr	r3, [fp, #-16]
    ab00:	e50b3008 	str	r3, [fp, #-8]
    ab04:	e51b3008 	ldr	r3, [fp, #-8]
    ab08:	e5933008 	ldr	r3, [r3, #8]
    ab0c:	e1a00003 	mov	r0, r3
    ab10:	e24bd004 	sub	sp, fp, #4
    ab14:	e8bd8800 	pop	{fp, pc}

0000ab18 <HW_RD_REG32_RAW>:
    ab18:	e52db004 	push	{fp}		; (str fp, [sp, #-4]!)
    ab1c:	e28db000 	add	fp, sp, #0
    ab20:	e24dd014 	sub	sp, sp, #20
    ab24:	e50b0010 	str	r0, [fp, #-16]
    ab28:	e51b3010 	ldr	r3, [fp, #-16]
    ab2c:	e5933000 	ldr	r3, [r3]
    ab30:	e50b3008 	str	r3, [fp, #-8]
    ab34:	e51b3008 	ldr	r3, [fp, #-8]
    ab38:	e1a00003 	mov	r0, r3
    ab3c:	e28bd000 	add	sp, fp, #0
    ab40:	e49db004 	pop	{fp}		; (ldr fp, [sp], #4)
    ab44:	e12fff1e 	bx	lr

0000ab48 <HW_WR_REG32_RAW>:
    ab48:	e52db004 	push	{fp}		; (str fp, [sp, #-4]!)
    ab4c:	e28db000 	add	fp, sp, #0
    ab50:	e24dd00c 	sub	sp, sp, #12
    ab54:	e50b0008 	str	r0, [fp, #-8]
    ab58:	e50b100c 	str	r1, [fp, #-12]
    ab5c:	e51b3008 	ldr	r3, [fp, #-8]
    ab60:	e51b200c 	ldr	r2, [fp, #-12]
    ab64:	e5832000 	str	r2, [r3]
    ab68:	e320f000 	nop	{0}
    ab6c:	e28bd000 	add	sp, fp, #0
    ab70:	e49db004 	pop	{fp}		; (ldr fp, [sp], #4)
    ab74:	e12fff1e 	bx	lr

0000ab78 <HW_WR_FIELD32_RAW>:
    ab78:	e52db004 	push	{fp}		; (str fp, [sp, #-4]!)
    ab7c:	e28db000 	add	fp, sp, #0
    ab80:	e24dd01c 	sub	sp, sp, #28
    ab84:	e50b0010 	str	r0, [fp, #-16]
    ab88:	e50b1014 	str	r1, [fp, #-20]	; 0xffffffec
    ab8c:	e50b2018 	str	r2, [fp, #-24]	; 0xffffffe8
    ab90:	e50b301c 	str	r3, [fp, #-28]	; 0xffffffe4
    ab94:	e51b3010 	ldr	r3, [fp, #-16]
    ab98:	e5933000 	ldr	r3, [r3]
    ab9c:	e50b3008 	str	r3, [fp, #-8]
    aba0:	e51b3014 	ldr	r3, [fp, #-20]	; 0xffffffec
    aba4:	e1e03003 	mvn	r3, r3
    aba8:	e51b2008 	ldr	r2, [fp, #-8]
    abac:	e0033002 	and	r3, r3, r2
    abb0:	e50b3008 	str	r3, [fp, #-8]
    abb4:	e51b201c 	ldr	r2, [fp, #-28]	; 0xffffffe4
    abb8:	e51b3018 	ldr	r3, [fp, #-24]	; 0xffffffe8
    abbc:	e1a02312 	lsl	r2, r2, r3
    abc0:	e51b3014 	ldr	r3, [fp, #-20]	; 0xffffffec
    abc4:	e0033002 	and	r3, r3, r2
    abc8:	e51b2008 	ldr	r2, [fp, #-8]
    abcc:	e1823003 	orr	r3, r2, r3
    abd0:	e50b3008 	str	r3, [fp, #-8]
    abd4:	e51b3010 	ldr	r3, [fp, #-16]
    abd8:	e51b2008 	ldr	r2, [fp, #-8]
    abdc:	e5832000 	str	r2, [r3]
    abe0:	e320f000 	nop	{0}
    abe4:	e28bd000 	add	sp, fp, #0
    abe8:	e49db004 	pop	{fp}		; (ldr fp, [sp], #4)
    abec:	e12fff1e 	bx	lr

0000abf0 <HW_RD_FIELD32_RAW>:
    abf0:	e52db004 	push	{fp}		; (str fp, [sp, #-4]!)
    abf4:	e28db000 	add	fp, sp, #0
    abf8:	e24dd01c 	sub	sp, sp, #28
    abfc:	e50b0010 	str	r0, [fp, #-16]
    ac00:	e50b1014 	str	r1, [fp, #-20]	; 0xffffffec
    ac04:	e50b2018 	str	r2, [fp, #-24]	; 0xffffffe8
    ac08:	e51b3010 	ldr	r3, [fp, #-16]
    ac0c:	e5933000 	ldr	r3, [r3]
    ac10:	e50b3008 	str	r3, [fp, #-8]
    ac14:	e51b2008 	ldr	r2, [fp, #-8]
    ac18:	e51b3014 	ldr	r3, [fp, #-20]	; 0xffffffec
    ac1c:	e0022003 	and	r2, r2, r3
    ac20:	e51b3018 	ldr	r3, [fp, #-24]	; 0xffffffe8
    ac24:	e1a03332 	lsr	r3, r2, r3
    ac28:	e50b3008 	str	r3, [fp, #-8]
    ac2c:	e51b3008 	ldr	r3, [fp, #-8]
    ac30:	e1a00003 	mov	r0, r3
    ac34:	e28bd000 	add	sp, fp, #0
    ac38:	e49db004 	pop	{fp}		; (ldr fp, [sp], #4)
    ac3c:	e12fff1e 	bx	lr

0000ac40 <TIMEREnable>:
    ac40:	e92d4800 	push	{fp, lr}
    ac44:	e28db004 	add	fp, sp, #4
    ac48:	e24dd008 	sub	sp, sp, #8
    ac4c:	e50b0008 	str	r0, [fp, #-8]
    ac50:	e51b1008 	ldr	r1, [fp, #-8]
    ac54:	e3a00001 	mov	r0, #1
    ac58:	eb0002a7 	bl	b6fc <TimerWaitForWrite>
    ac5c:	e51b3008 	ldr	r3, [fp, #-8]
    ac60:	e2830038 	add	r0, r3, #56	; 0x38
    ac64:	e3a03001 	mov	r3, #1
    ac68:	e3a02000 	mov	r2, #0
    ac6c:	e3a01001 	mov	r1, #1
    ac70:	ebffffc0 	bl	ab78 <HW_WR_FIELD32_RAW>
    ac74:	e320f000 	nop	{0}
    ac78:	e24bd004 	sub	sp, fp, #4
    ac7c:	e8bd8800 	pop	{fp, pc}

0000ac80 <TIMERDisable>:
    ac80:	e92d4800 	push	{fp, lr}
    ac84:	e28db004 	add	fp, sp, #4
    ac88:	e24dd008 	sub	sp, sp, #8
    ac8c:	e50b0008 	str	r0, [fp, #-8]
    ac90:	e51b1008 	ldr	r1, [fp, #-8]
    ac94:	e3a00001 	mov	r0, #1
    ac98:	eb000297 	bl	b6fc <TimerWaitForWrite>
    ac9c:	e51b3008 	ldr	r3, [fp, #-8]
    aca0:	e2830038 	add	r0, r3, #56	; 0x38
    aca4:	e3a03000 	mov	r3, #0
    aca8:	e3a02000 	mov	r2, #0
    acac:	e3a01001 	mov	r1, #1
    acb0:	ebffffb0 	bl	ab78 <HW_WR_FIELD32_RAW>
    acb4:	e320f000 	nop	{0}
    acb8:	e24bd004 	sub	sp, fp, #4
    acbc:	e8bd8800 	pop	{fp, pc}

0000acc0 <TIMERModeConfigure>:
    acc0:	e92d4800 	push	{fp, lr}
    acc4:	e28db004 	add	fp, sp, #4
    acc8:	e24dd010 	sub	sp, sp, #16
    accc:	e50b0010 	str	r0, [fp, #-16]
    acd0:	e50b1014 	str	r1, [fp, #-20]	; 0xffffffec
    acd4:	e51b1010 	ldr	r1, [fp, #-16]
    acd8:	e3a00001 	mov	r0, #1
    acdc:	eb000286 	bl	b6fc <TimerWaitForWrite>
    ace0:	e51b3010 	ldr	r3, [fp, #-16]
    ace4:	e2830038 	add	r0, r3, #56	; 0x38
    ace8:	e3a03000 	mov	r3, #0
    acec:	e3a02001 	mov	r2, #1
    acf0:	e3a01002 	mov	r1, #2
    acf4:	ebffff9f 	bl	ab78 <HW_WR_FIELD32_RAW>
    acf8:	e51b3010 	ldr	r3, [fp, #-16]
    acfc:	e2830038 	add	r0, r3, #56	; 0x38
    ad00:	e3a03000 	mov	r3, #0
    ad04:	e3a02006 	mov	r2, #6
    ad08:	e3a01040 	mov	r1, #64	; 0x40
    ad0c:	ebffff99 	bl	ab78 <HW_WR_FIELD32_RAW>
    ad10:	e51b1010 	ldr	r1, [fp, #-16]
    ad14:	e3a00001 	mov	r0, #1
    ad18:	eb000277 	bl	b6fc <TimerWaitForWrite>
    ad1c:	e51b3010 	ldr	r3, [fp, #-16]
    ad20:	e2833038 	add	r3, r3, #56	; 0x38
    ad24:	e1a00003 	mov	r0, r3
    ad28:	ebffff7a 	bl	ab18 <HW_RD_REG32_RAW>
    ad2c:	e50b0008 	str	r0, [fp, #-8]
    ad30:	e51b3014 	ldr	r3, [fp, #-20]	; 0xffffffec
    ad34:	e2033042 	and	r3, r3, #66	; 0x42
    ad38:	e51b2008 	ldr	r2, [fp, #-8]
    ad3c:	e1823003 	orr	r3, r2, r3
    ad40:	e50b3008 	str	r3, [fp, #-8]
    ad44:	e51b3010 	ldr	r3, [fp, #-16]
    ad48:	e2833038 	add	r3, r3, #56	; 0x38
    ad4c:	e51b1008 	ldr	r1, [fp, #-8]
    ad50:	e1a00003 	mov	r0, r3
    ad54:	ebffff7b 	bl	ab48 <HW_WR_REG32_RAW>
    ad58:	e320f000 	nop	{0}
    ad5c:	e24bd004 	sub	sp, fp, #4
    ad60:	e8bd8800 	pop	{fp, pc}

0000ad64 <TIMERPreScalerClkEnable>:
    ad64:	e92d4800 	push	{fp, lr}
    ad68:	e28db004 	add	fp, sp, #4
    ad6c:	e24dd010 	sub	sp, sp, #16
    ad70:	e50b0010 	str	r0, [fp, #-16]
    ad74:	e50b1014 	str	r1, [fp, #-20]	; 0xffffffec
    ad78:	e51b1010 	ldr	r1, [fp, #-16]
    ad7c:	e3a00001 	mov	r0, #1
    ad80:	eb00025d 	bl	b6fc <TimerWaitForWrite>
    ad84:	e51b3010 	ldr	r3, [fp, #-16]
    ad88:	e2830038 	add	r0, r3, #56	; 0x38
    ad8c:	e3a03000 	mov	r3, #0
    ad90:	e3a02002 	mov	r2, #2
    ad94:	e3a0101c 	mov	r1, #28
    ad98:	ebffff76 	bl	ab78 <HW_WR_FIELD32_RAW>
    ad9c:	e51b1010 	ldr	r1, [fp, #-16]
    ada0:	e3a00001 	mov	r0, #1
    ada4:	eb000254 	bl	b6fc <TimerWaitForWrite>
    ada8:	e51b3010 	ldr	r3, [fp, #-16]
    adac:	e2833038 	add	r3, r3, #56	; 0x38
    adb0:	e1a00003 	mov	r0, r3
    adb4:	ebffff57 	bl	ab18 <HW_RD_REG32_RAW>
    adb8:	e50b0008 	str	r0, [fp, #-8]
    adbc:	e51b3014 	ldr	r3, [fp, #-20]	; 0xffffffec
    adc0:	e203303c 	and	r3, r3, #60	; 0x3c
    adc4:	e51b2008 	ldr	r2, [fp, #-8]
    adc8:	e1823003 	orr	r3, r2, r3
    adcc:	e50b3008 	str	r3, [fp, #-8]
    add0:	e51b3010 	ldr	r3, [fp, #-16]
    add4:	e2833038 	add	r3, r3, #56	; 0x38
    add8:	e51b1008 	ldr	r1, [fp, #-8]
    addc:	e1a00003 	mov	r0, r3
    ade0:	ebffff58 	bl	ab48 <HW_WR_REG32_RAW>
    ade4:	e320f000 	nop	{0}
    ade8:	e24bd004 	sub	sp, fp, #4
    adec:	e8bd8800 	pop	{fp, pc}

0000adf0 <TIMERPreScalerClkDisable>:
    adf0:	e92d4800 	push	{fp, lr}
    adf4:	e28db004 	add	fp, sp, #4
    adf8:	e24dd008 	sub	sp, sp, #8
    adfc:	e50b0008 	str	r0, [fp, #-8]
    ae00:	e51b1008 	ldr	r1, [fp, #-8]
    ae04:	e3a00001 	mov	r0, #1
    ae08:	eb00023b 	bl	b6fc <TimerWaitForWrite>
    ae0c:	e51b3008 	ldr	r3, [fp, #-8]
    ae10:	e2830038 	add	r0, r3, #56	; 0x38
    ae14:	e3a03000 	mov	r3, #0
    ae18:	e3a02005 	mov	r2, #5
    ae1c:	e3a01020 	mov	r1, #32
    ae20:	ebffff54 	bl	ab78 <HW_WR_FIELD32_RAW>
    ae24:	e320f000 	nop	{0}
    ae28:	e24bd004 	sub	sp, fp, #4
    ae2c:	e8bd8800 	pop	{fp, pc}

0000ae30 <TIMERCounterSet>:
    ae30:	e92d4800 	push	{fp, lr}
    ae34:	e28db004 	add	fp, sp, #4
    ae38:	e24dd008 	sub	sp, sp, #8
    ae3c:	e50b0008 	str	r0, [fp, #-8]
    ae40:	e50b100c 	str	r1, [fp, #-12]
    ae44:	e51b1008 	ldr	r1, [fp, #-8]
    ae48:	e3a00002 	mov	r0, #2
    ae4c:	eb00022a 	bl	b6fc <TimerWaitForWrite>
    ae50:	e51b3008 	ldr	r3, [fp, #-8]
    ae54:	e283303c 	add	r3, r3, #60	; 0x3c
    ae58:	e51b100c 	ldr	r1, [fp, #-12]
    ae5c:	e1a00003 	mov	r0, r3
    ae60:	ebffff38 	bl	ab48 <HW_WR_REG32_RAW>
    ae64:	e320f000 	nop	{0}
    ae68:	e24bd004 	sub	sp, fp, #4
    ae6c:	e8bd8800 	pop	{fp, pc}

0000ae70 <TIMERCounterGet>:
    ae70:	e92d4800 	push	{fp, lr}
    ae74:	e28db004 	add	fp, sp, #4
    ae78:	e24dd008 	sub	sp, sp, #8
    ae7c:	e50b0008 	str	r0, [fp, #-8]
    ae80:	e51b1008 	ldr	r1, [fp, #-8]
    ae84:	e3a00002 	mov	r0, #2
    ae88:	eb00021b 	bl	b6fc <TimerWaitForWrite>
    ae8c:	e51b3008 	ldr	r3, [fp, #-8]
    ae90:	e283303c 	add	r3, r3, #60	; 0x3c
    ae94:	e1a00003 	mov	r0, r3
    ae98:	ebffff1e 	bl	ab18 <HW_RD_REG32_RAW>
    ae9c:	e1a03000 	mov	r3, r0
    aea0:	e1a00003 	mov	r0, r3
    aea4:	e24bd004 	sub	sp, fp, #4
    aea8:	e8bd8800 	pop	{fp, pc}

0000aeac <TIMERReloadSet>:
    aeac:	e92d4800 	push	{fp, lr}
    aeb0:	e28db004 	add	fp, sp, #4
    aeb4:	e24dd008 	sub	sp, sp, #8
    aeb8:	e50b0008 	str	r0, [fp, #-8]
    aebc:	e50b100c 	str	r1, [fp, #-12]
    aec0:	e51b1008 	ldr	r1, [fp, #-8]
    aec4:	e3a00004 	mov	r0, #4
    aec8:	eb00020b 	bl	b6fc <TimerWaitForWrite>
    aecc:	e51b3008 	ldr	r3, [fp, #-8]
    aed0:	e2833040 	add	r3, r3, #64	; 0x40
    aed4:	e51b100c 	ldr	r1, [fp, #-12]
    aed8:	e1a00003 	mov	r0, r3
    aedc:	ebffff19 	bl	ab48 <HW_WR_REG32_RAW>
    aee0:	e320f000 	nop	{0}
    aee4:	e24bd004 	sub	sp, fp, #4
    aee8:	e8bd8800 	pop	{fp, pc}

0000aeec <TIMERReloadGet>:
    aeec:	e92d4800 	push	{fp, lr}
    aef0:	e28db004 	add	fp, sp, #4
    aef4:	e24dd008 	sub	sp, sp, #8
    aef8:	e50b0008 	str	r0, [fp, #-8]
    aefc:	e51b3008 	ldr	r3, [fp, #-8]
    af00:	e2833040 	add	r3, r3, #64	; 0x40
    af04:	e1a00003 	mov	r0, r3
    af08:	ebffff02 	bl	ab18 <HW_RD_REG32_RAW>
    af0c:	e1a03000 	mov	r3, r0
    af10:	e1a00003 	mov	r0, r3
    af14:	e24bd004 	sub	sp, fp, #4
    af18:	e8bd8800 	pop	{fp, pc}

0000af1c <TIMERGPOConfigure>:
    af1c:	e92d4800 	push	{fp, lr}
    af20:	e28db004 	add	fp, sp, #4
    af24:	e24dd008 	sub	sp, sp, #8
    af28:	e50b0008 	str	r0, [fp, #-8]
    af2c:	e50b100c 	str	r1, [fp, #-12]
    af30:	e51b1008 	ldr	r1, [fp, #-8]
    af34:	e3a00001 	mov	r0, #1
    af38:	eb0001ef 	bl	b6fc <TimerWaitForWrite>
    af3c:	e51b3008 	ldr	r3, [fp, #-8]
    af40:	e2830038 	add	r0, r3, #56	; 0x38
    af44:	e3a03000 	mov	r3, #0
    af48:	e3a0200e 	mov	r2, #14
    af4c:	e3a01901 	mov	r1, #16384	; 0x4000
    af50:	ebffff08 	bl	ab78 <HW_WR_FIELD32_RAW>
    af54:	e51b1008 	ldr	r1, [fp, #-8]
    af58:	e3a00001 	mov	r0, #1
    af5c:	eb0001e6 	bl	b6fc <TimerWaitForWrite>
    af60:	e51b3008 	ldr	r3, [fp, #-8]
    af64:	e2830038 	add	r0, r3, #56	; 0x38
    af68:	e51b300c 	ldr	r3, [fp, #-12]
    af6c:	e1a03723 	lsr	r3, r3, #14
    af70:	e3a0200e 	mov	r2, #14
    af74:	e3a01901 	mov	r1, #16384	; 0x4000
    af78:	ebfffefe 	bl	ab78 <HW_WR_FIELD32_RAW>
    af7c:	e320f000 	nop	{0}
    af80:	e24bd004 	sub	sp, fp, #4
    af84:	e8bd8800 	pop	{fp, pc}

0000af88 <TIMERCompareSet>:
    af88:	e92d4800 	push	{fp, lr}
    af8c:	e28db004 	add	fp, sp, #4
    af90:	e24dd008 	sub	sp, sp, #8
    af94:	e50b0008 	str	r0, [fp, #-8]
    af98:	e50b100c 	str	r1, [fp, #-12]
    af9c:	e51b1008 	ldr	r1, [fp, #-8]
    afa0:	e3a00010 	mov	r0, #16
    afa4:	eb0001d4 	bl	b6fc <TimerWaitForWrite>
    afa8:	e51b3008 	ldr	r3, [fp, #-8]
    afac:	e283304c 	add	r3, r3, #76	; 0x4c
    afb0:	e51b100c 	ldr	r1, [fp, #-12]
    afb4:	e1a00003 	mov	r0, r3
    afb8:	ebfffee2 	bl	ab48 <HW_WR_REG32_RAW>
    afbc:	e320f000 	nop	{0}
    afc0:	e24bd004 	sub	sp, fp, #4
    afc4:	e8bd8800 	pop	{fp, pc}

0000afc8 <TIMERCompareGet>:
    afc8:	e92d4800 	push	{fp, lr}
    afcc:	e28db004 	add	fp, sp, #4
    afd0:	e24dd008 	sub	sp, sp, #8
    afd4:	e50b0008 	str	r0, [fp, #-8]
    afd8:	e51b3008 	ldr	r3, [fp, #-8]
    afdc:	e283304c 	add	r3, r3, #76	; 0x4c
    afe0:	e1a00003 	mov	r0, r3
    afe4:	ebfffecb 	bl	ab18 <HW_RD_REG32_RAW>
    afe8:	e1a03000 	mov	r3, r0
    afec:	e1a00003 	mov	r0, r3
    aff0:	e24bd004 	sub	sp, fp, #4
    aff4:	e8bd8800 	pop	{fp, pc}

0000aff8 <TIMERIntRawStatusSet>:
    aff8:	e92d4800 	push	{fp, lr}
    affc:	e28db004 	add	fp, sp, #4
    b000:	e24dd008 	sub	sp, sp, #8
    b004:	e50b0008 	str	r0, [fp, #-8]
    b008:	e50b100c 	str	r1, [fp, #-12]
    b00c:	e51b3008 	ldr	r3, [fp, #-8]
    b010:	e2832024 	add	r2, r3, #36	; 0x24
    b014:	e51b300c 	ldr	r3, [fp, #-12]
    b018:	e2033007 	and	r3, r3, #7
    b01c:	e1a01003 	mov	r1, r3
    b020:	e1a00002 	mov	r0, r2
    b024:	ebfffec7 	bl	ab48 <HW_WR_REG32_RAW>
    b028:	e320f000 	nop	{0}
    b02c:	e24bd004 	sub	sp, fp, #4
    b030:	e8bd8800 	pop	{fp, pc}

0000b034 <TIMERIntRawStatusGet>:
    b034:	e92d4800 	push	{fp, lr}
    b038:	e28db004 	add	fp, sp, #4
    b03c:	e24dd008 	sub	sp, sp, #8
    b040:	e50b0008 	str	r0, [fp, #-8]
    b044:	e51b3008 	ldr	r3, [fp, #-8]
    b048:	e2833024 	add	r3, r3, #36	; 0x24
    b04c:	e1a00003 	mov	r0, r3
    b050:	ebfffeb0 	bl	ab18 <HW_RD_REG32_RAW>
    b054:	e1a03000 	mov	r3, r0
    b058:	e1a00003 	mov	r0, r3
    b05c:	e24bd004 	sub	sp, fp, #4
    b060:	e8bd8800 	pop	{fp, pc}

0000b064 <TIMERIntStatusGet>:
    b064:	e92d4800 	push	{fp, lr}
    b068:	e28db004 	add	fp, sp, #4
    b06c:	e24dd008 	sub	sp, sp, #8
    b070:	e50b0008 	str	r0, [fp, #-8]
    b074:	e51b3008 	ldr	r3, [fp, #-8]
    b078:	e2833028 	add	r3, r3, #40	; 0x28
    b07c:	e1a00003 	mov	r0, r3
    b080:	ebfffea4 	bl	ab18 <HW_RD_REG32_RAW>
    b084:	e1a03000 	mov	r3, r0
    b088:	e1a00003 	mov	r0, r3
    b08c:	e24bd004 	sub	sp, fp, #4
    b090:	e8bd8800 	pop	{fp, pc}

0000b094 <TIMERIntStatusClear>:
    b094:	e92d4800 	push	{fp, lr}
    b098:	e28db004 	add	fp, sp, #4
    b09c:	e24dd008 	sub	sp, sp, #8
    b0a0:	e50b0008 	str	r0, [fp, #-8]
    b0a4:	e50b100c 	str	r1, [fp, #-12]
    b0a8:	e51b3008 	ldr	r3, [fp, #-8]
    b0ac:	e2832028 	add	r2, r3, #40	; 0x28
    b0b0:	e51b300c 	ldr	r3, [fp, #-12]
    b0b4:	e2033007 	and	r3, r3, #7
    b0b8:	e1a01003 	mov	r1, r3
    b0bc:	e1a00002 	mov	r0, r2
    b0c0:	ebfffea0 	bl	ab48 <HW_WR_REG32_RAW>
    b0c4:	e320f000 	nop	{0}
    b0c8:	e24bd004 	sub	sp, fp, #4
    b0cc:	e8bd8800 	pop	{fp, pc}

0000b0d0 <TIMERIntEnable>:
    b0d0:	e92d4800 	push	{fp, lr}
    b0d4:	e28db004 	add	fp, sp, #4
    b0d8:	e24dd008 	sub	sp, sp, #8
    b0dc:	e50b0008 	str	r0, [fp, #-8]
    b0e0:	e50b100c 	str	r1, [fp, #-12]
    b0e4:	e51b3008 	ldr	r3, [fp, #-8]
    b0e8:	e283202c 	add	r2, r3, #44	; 0x2c
    b0ec:	e51b300c 	ldr	r3, [fp, #-12]
    b0f0:	e2033007 	and	r3, r3, #7
    b0f4:	e1a01003 	mov	r1, r3
    b0f8:	e1a00002 	mov	r0, r2
    b0fc:	ebfffe91 	bl	ab48 <HW_WR_REG32_RAW>
    b100:	e320f000 	nop	{0}
    b104:	e24bd004 	sub	sp, fp, #4
    b108:	e8bd8800 	pop	{fp, pc}

0000b10c <TIMERIntDisable>:
    b10c:	e92d4800 	push	{fp, lr}
    b110:	e28db004 	add	fp, sp, #4
    b114:	e24dd008 	sub	sp, sp, #8
    b118:	e50b0008 	str	r0, [fp, #-8]
    b11c:	e50b100c 	str	r1, [fp, #-12]
    b120:	e51b3008 	ldr	r3, [fp, #-8]
    b124:	e2832030 	add	r2, r3, #48	; 0x30
    b128:	e51b300c 	ldr	r3, [fp, #-12]
    b12c:	e2033007 	and	r3, r3, #7
    b130:	e1a01003 	mov	r1, r3
    b134:	e1a00002 	mov	r0, r2
    b138:	ebfffe82 	bl	ab48 <HW_WR_REG32_RAW>
    b13c:	e320f000 	nop	{0}
    b140:	e24bd004 	sub	sp, fp, #4
    b144:	e8bd8800 	pop	{fp, pc}

0000b148 <TIMERWakeEnable>:
    b148:	e92d4800 	push	{fp, lr}
    b14c:	e28db004 	add	fp, sp, #4
    b150:	e24dd010 	sub	sp, sp, #16
    b154:	e50b0010 	str	r0, [fp, #-16]
    b158:	e50b1014 	str	r1, [fp, #-20]	; 0xffffffec
    b15c:	e51b3010 	ldr	r3, [fp, #-16]
    b160:	e2833034 	add	r3, r3, #52	; 0x34
    b164:	e1a00003 	mov	r0, r3
    b168:	ebfffe6a 	bl	ab18 <HW_RD_REG32_RAW>
    b16c:	e50b0008 	str	r0, [fp, #-8]
    b170:	e51b3014 	ldr	r3, [fp, #-20]	; 0xffffffec
    b174:	e2033007 	and	r3, r3, #7
    b178:	e51b2008 	ldr	r2, [fp, #-8]
    b17c:	e1823003 	orr	r3, r2, r3
    b180:	e50b3008 	str	r3, [fp, #-8]
    b184:	e51b3010 	ldr	r3, [fp, #-16]
    b188:	e2833034 	add	r3, r3, #52	; 0x34
    b18c:	e51b1008 	ldr	r1, [fp, #-8]
    b190:	e1a00003 	mov	r0, r3
    b194:	ebfffe6b 	bl	ab48 <HW_WR_REG32_RAW>
    b198:	e320f000 	nop	{0}
    b19c:	e24bd004 	sub	sp, fp, #4
    b1a0:	e8bd8800 	pop	{fp, pc}

0000b1a4 <TIMERWakeDisable>:
    b1a4:	e92d4800 	push	{fp, lr}
    b1a8:	e28db004 	add	fp, sp, #4
    b1ac:	e24dd010 	sub	sp, sp, #16
    b1b0:	e50b0010 	str	r0, [fp, #-16]
    b1b4:	e50b1014 	str	r1, [fp, #-20]	; 0xffffffec
    b1b8:	e51b3014 	ldr	r3, [fp, #-20]	; 0xffffffec
    b1bc:	e2033007 	and	r3, r3, #7
    b1c0:	e1e03003 	mvn	r3, r3
    b1c4:	e50b3008 	str	r3, [fp, #-8]
    b1c8:	e51b3010 	ldr	r3, [fp, #-16]
    b1cc:	e2833034 	add	r3, r3, #52	; 0x34
    b1d0:	e1a00003 	mov	r0, r3
    b1d4:	ebfffe4f 	bl	ab18 <HW_RD_REG32_RAW>
    b1d8:	e1a02000 	mov	r2, r0
    b1dc:	e51b3008 	ldr	r3, [fp, #-8]
    b1e0:	e0033002 	and	r3, r3, r2
    b1e4:	e50b300c 	str	r3, [fp, #-12]
    b1e8:	e51b3010 	ldr	r3, [fp, #-16]
    b1ec:	e2833034 	add	r3, r3, #52	; 0x34
    b1f0:	e51b100c 	ldr	r1, [fp, #-12]
    b1f4:	e1a00003 	mov	r0, r3
    b1f8:	ebfffe52 	bl	ab48 <HW_WR_REG32_RAW>
    b1fc:	e320f000 	nop	{0}
    b200:	e24bd004 	sub	sp, fp, #4
    b204:	e8bd8800 	pop	{fp, pc}

0000b208 <TIMERTriggerSet>:
    b208:	e92d4800 	push	{fp, lr}
    b20c:	e28db004 	add	fp, sp, #4
    b210:	e24dd008 	sub	sp, sp, #8
    b214:	e50b0008 	str	r0, [fp, #-8]
    b218:	e51b1008 	ldr	r1, [fp, #-8]
    b21c:	e3a00008 	mov	r0, #8
    b220:	eb000135 	bl	b6fc <TimerWaitForWrite>
    b224:	e51b3008 	ldr	r3, [fp, #-8]
    b228:	e2833044 	add	r3, r3, #68	; 0x44
    b22c:	e3e01000 	mvn	r1, #0
    b230:	e1a00003 	mov	r0, r3
    b234:	ebfffe43 	bl	ab48 <HW_WR_REG32_RAW>
    b238:	e320f000 	nop	{0}
    b23c:	e24bd004 	sub	sp, fp, #4
    b240:	e8bd8800 	pop	{fp, pc}

0000b244 <TIMERIntEnableGet>:
    b244:	e92d4800 	push	{fp, lr}
    b248:	e28db004 	add	fp, sp, #4
    b24c:	e24dd008 	sub	sp, sp, #8
    b250:	e50b0008 	str	r0, [fp, #-8]
    b254:	e51b3008 	ldr	r3, [fp, #-8]
    b258:	e283302c 	add	r3, r3, #44	; 0x2c
    b25c:	e1a00003 	mov	r0, r3
    b260:	ebfffe2c 	bl	ab18 <HW_RD_REG32_RAW>
    b264:	e1a03000 	mov	r3, r0
    b268:	e1a00003 	mov	r0, r3
    b26c:	e24bd004 	sub	sp, fp, #4
    b270:	e8bd8800 	pop	{fp, pc}

0000b274 <TIMERResetConfigure>:
    b274:	e92d4800 	push	{fp, lr}
    b278:	e28db004 	add	fp, sp, #4
    b27c:	e24dd008 	sub	sp, sp, #8
    b280:	e50b0008 	str	r0, [fp, #-8]
    b284:	e50b100c 	str	r1, [fp, #-12]
    b288:	e51b3008 	ldr	r3, [fp, #-8]
    b28c:	e2830054 	add	r0, r3, #84	; 0x54
    b290:	e51b300c 	ldr	r3, [fp, #-12]
    b294:	e1a030a3 	lsr	r3, r3, #1
    b298:	e3a02001 	mov	r2, #1
    b29c:	e3a01002 	mov	r1, #2
    b2a0:	ebfffe34 	bl	ab78 <HW_WR_FIELD32_RAW>
    b2a4:	e320f000 	nop	{0}
    b2a8:	e24bd004 	sub	sp, fp, #4
    b2ac:	e8bd8800 	pop	{fp, pc}

0000b2b0 <TIMERReset>:
    b2b0:	e92d4800 	push	{fp, lr}
    b2b4:	e28db004 	add	fp, sp, #4
    b2b8:	e24dd008 	sub	sp, sp, #8
    b2bc:	e50b0008 	str	r0, [fp, #-8]
    b2c0:	e51b3008 	ldr	r3, [fp, #-8]
    b2c4:	e2830010 	add	r0, r3, #16
    b2c8:	e3a03001 	mov	r3, #1
    b2cc:	e3a02000 	mov	r2, #0
    b2d0:	e3a01001 	mov	r1, #1
    b2d4:	ebfffe27 	bl	ab78 <HW_WR_FIELD32_RAW>
    b2d8:	e320f000 	nop	{0}
    b2dc:	e51b3008 	ldr	r3, [fp, #-8]
    b2e0:	e2833010 	add	r3, r3, #16
    b2e4:	e3a02000 	mov	r2, #0
    b2e8:	e3a01001 	mov	r1, #1
    b2ec:	e1a00003 	mov	r0, r3
    b2f0:	ebfffe3e 	bl	abf0 <HW_RD_FIELD32_RAW>
    b2f4:	e1a03000 	mov	r3, r0
    b2f8:	e3530001 	cmp	r3, #1
    b2fc:	0afffff6 	beq	b2dc <TIMERReset+0x2c>
    b300:	e320f000 	nop	{0}
    b304:	e24bd004 	sub	sp, fp, #4
    b308:	e8bd8800 	pop	{fp, pc}

0000b30c <TIMERContextSave>:
    b30c:	e92d4800 	push	{fp, lr}
    b310:	e28db004 	add	fp, sp, #4
    b314:	e24dd008 	sub	sp, sp, #8
    b318:	e50b0008 	str	r0, [fp, #-8]
    b31c:	e50b100c 	str	r1, [fp, #-12]
    b320:	e51b3008 	ldr	r3, [fp, #-8]
    b324:	e2833040 	add	r3, r3, #64	; 0x40
    b328:	e1a00003 	mov	r0, r3
    b32c:	ebfffdf9 	bl	ab18 <HW_RD_REG32_RAW>
    b330:	e1a02000 	mov	r2, r0
    b334:	e51b300c 	ldr	r3, [fp, #-12]
    b338:	e5832000 	str	r2, [r3]
    b33c:	e51b3008 	ldr	r3, [fp, #-8]
    b340:	e283304c 	add	r3, r3, #76	; 0x4c
    b344:	e1a00003 	mov	r0, r3
    b348:	ebfffdf2 	bl	ab18 <HW_RD_REG32_RAW>
    b34c:	e1a02000 	mov	r2, r0
    b350:	e51b300c 	ldr	r3, [fp, #-12]
    b354:	e5832004 	str	r2, [r3, #4]
    b358:	e51b3008 	ldr	r3, [fp, #-8]
    b35c:	e283302c 	add	r3, r3, #44	; 0x2c
    b360:	e1a00003 	mov	r0, r3
    b364:	ebfffdeb 	bl	ab18 <HW_RD_REG32_RAW>
    b368:	e1a02000 	mov	r2, r0
    b36c:	e51b300c 	ldr	r3, [fp, #-12]
    b370:	e5832008 	str	r2, [r3, #8]
    b374:	e51b1008 	ldr	r1, [fp, #-8]
    b378:	e3a00002 	mov	r0, #2
    b37c:	eb0000de 	bl	b6fc <TimerWaitForWrite>
    b380:	e51b3008 	ldr	r3, [fp, #-8]
    b384:	e283303c 	add	r3, r3, #60	; 0x3c
    b388:	e1a00003 	mov	r0, r3
    b38c:	ebfffde1 	bl	ab18 <HW_RD_REG32_RAW>
    b390:	e1a02000 	mov	r2, r0
    b394:	e51b300c 	ldr	r3, [fp, #-12]
    b398:	e583200c 	str	r2, [r3, #12]
    b39c:	e51b3008 	ldr	r3, [fp, #-8]
    b3a0:	e2833038 	add	r3, r3, #56	; 0x38
    b3a4:	e1a00003 	mov	r0, r3
    b3a8:	ebfffdda 	bl	ab18 <HW_RD_REG32_RAW>
    b3ac:	e1a02000 	mov	r2, r0
    b3b0:	e51b300c 	ldr	r3, [fp, #-12]
    b3b4:	e5832010 	str	r2, [r3, #16]
    b3b8:	e320f000 	nop	{0}
    b3bc:	e24bd004 	sub	sp, fp, #4
    b3c0:	e8bd8800 	pop	{fp, pc}

0000b3c4 <TIMERContextRestore>:
    b3c4:	e92d4800 	push	{fp, lr}
    b3c8:	e28db004 	add	fp, sp, #4
    b3cc:	e24dd008 	sub	sp, sp, #8
    b3d0:	e50b0008 	str	r0, [fp, #-8]
    b3d4:	e50b100c 	str	r1, [fp, #-12]
    b3d8:	e51b1008 	ldr	r1, [fp, #-8]
    b3dc:	e3a00004 	mov	r0, #4
    b3e0:	eb0000c5 	bl	b6fc <TimerWaitForWrite>
    b3e4:	e51b3008 	ldr	r3, [fp, #-8]
    b3e8:	e2832040 	add	r2, r3, #64	; 0x40
    b3ec:	e51b300c 	ldr	r3, [fp, #-12]
    b3f0:	e5933000 	ldr	r3, [r3]
    b3f4:	e1a01003 	mov	r1, r3
    b3f8:	e1a00002 	mov	r0, r2
    b3fc:	ebfffdd1 	bl	ab48 <HW_WR_REG32_RAW>
    b400:	e51b1008 	ldr	r1, [fp, #-8]
    b404:	e3a00010 	mov	r0, #16
    b408:	eb0000bb 	bl	b6fc <TimerWaitForWrite>
    b40c:	e51b3008 	ldr	r3, [fp, #-8]
    b410:	e283204c 	add	r2, r3, #76	; 0x4c
    b414:	e51b300c 	ldr	r3, [fp, #-12]
    b418:	e5933004 	ldr	r3, [r3, #4]
    b41c:	e1a01003 	mov	r1, r3
    b420:	e1a00002 	mov	r0, r2
    b424:	ebfffdc7 	bl	ab48 <HW_WR_REG32_RAW>
    b428:	e51b3008 	ldr	r3, [fp, #-8]
    b42c:	e283202c 	add	r2, r3, #44	; 0x2c
    b430:	e51b300c 	ldr	r3, [fp, #-12]
    b434:	e5933008 	ldr	r3, [r3, #8]
    b438:	e1a01003 	mov	r1, r3
    b43c:	e1a00002 	mov	r0, r2
    b440:	ebfffdc0 	bl	ab48 <HW_WR_REG32_RAW>
    b444:	e51b1008 	ldr	r1, [fp, #-8]
    b448:	e3a00002 	mov	r0, #2
    b44c:	eb0000aa 	bl	b6fc <TimerWaitForWrite>
    b450:	e51b3008 	ldr	r3, [fp, #-8]
    b454:	e283203c 	add	r2, r3, #60	; 0x3c
    b458:	e51b300c 	ldr	r3, [fp, #-12]
    b45c:	e593300c 	ldr	r3, [r3, #12]
    b460:	e1a01003 	mov	r1, r3
    b464:	e1a00002 	mov	r0, r2
    b468:	ebfffdb6 	bl	ab48 <HW_WR_REG32_RAW>
    b46c:	e51b1008 	ldr	r1, [fp, #-8]
    b470:	e3a00001 	mov	r0, #1
    b474:	eb0000a0 	bl	b6fc <TimerWaitForWrite>
    b478:	e51b3008 	ldr	r3, [fp, #-8]
    b47c:	e2832038 	add	r2, r3, #56	; 0x38
    b480:	e51b300c 	ldr	r3, [fp, #-12]
    b484:	e5933010 	ldr	r3, [r3, #16]
    b488:	e1a01003 	mov	r1, r3
    b48c:	e1a00002 	mov	r0, r2
    b490:	ebfffdac 	bl	ab48 <HW_WR_REG32_RAW>
    b494:	e320f000 	nop	{0}
    b498:	e24bd004 	sub	sp, fp, #4
    b49c:	e8bd8800 	pop	{fp, pc}

0000b4a0 <TIMERPostedModeConfig>:
    b4a0:	e92d4800 	push	{fp, lr}
    b4a4:	e28db004 	add	fp, sp, #4
    b4a8:	e24dd008 	sub	sp, sp, #8
    b4ac:	e50b0008 	str	r0, [fp, #-8]
    b4b0:	e50b100c 	str	r1, [fp, #-12]
    b4b4:	e51b3008 	ldr	r3, [fp, #-8]
    b4b8:	e2830054 	add	r0, r3, #84	; 0x54
    b4bc:	e51b300c 	ldr	r3, [fp, #-12]
    b4c0:	e1a03123 	lsr	r3, r3, #2
    b4c4:	e3a02002 	mov	r2, #2
    b4c8:	e3a01004 	mov	r1, #4
    b4cc:	ebfffda9 	bl	ab78 <HW_WR_FIELD32_RAW>
    b4d0:	e320f000 	nop	{0}
    b4d4:	e24bd004 	sub	sp, fp, #4
    b4d8:	e8bd8800 	pop	{fp, pc}

0000b4dc <TIMERReadModeConfig>:
    b4dc:	e92d4800 	push	{fp, lr}
    b4e0:	e28db004 	add	fp, sp, #4
    b4e4:	e24dd008 	sub	sp, sp, #8
    b4e8:	e50b0008 	str	r0, [fp, #-8]
    b4ec:	e50b100c 	str	r1, [fp, #-12]
    b4f0:	e51b3008 	ldr	r3, [fp, #-8]
    b4f4:	e2830054 	add	r0, r3, #84	; 0x54
    b4f8:	e51b300c 	ldr	r3, [fp, #-12]
    b4fc:	e1a031a3 	lsr	r3, r3, #3
    b500:	e3a02003 	mov	r2, #3
    b504:	e3a01008 	mov	r1, #8
    b508:	ebfffd9a 	bl	ab78 <HW_WR_FIELD32_RAW>
    b50c:	e320f000 	nop	{0}
    b510:	e24bd004 	sub	sp, fp, #4
    b514:	e8bd8800 	pop	{fp, pc}

0000b518 <TIMERWritePostedStatusGet>:
    b518:	e92d4800 	push	{fp, lr}
    b51c:	e28db004 	add	fp, sp, #4
    b520:	e24dd008 	sub	sp, sp, #8
    b524:	e50b0008 	str	r0, [fp, #-8]
    b528:	e51b3008 	ldr	r3, [fp, #-8]
    b52c:	e2833048 	add	r3, r3, #72	; 0x48
    b530:	e1a00003 	mov	r0, r3
    b534:	ebfffd77 	bl	ab18 <HW_RD_REG32_RAW>
    b538:	e1a03000 	mov	r3, r0
    b53c:	e1a00003 	mov	r0, r3
    b540:	e24bd004 	sub	sp, fp, #4
    b544:	e8bd8800 	pop	{fp, pc}

0000b548 <TIMERIdleModeConfigure>:
    b548:	e92d4800 	push	{fp, lr}
    b54c:	e28db004 	add	fp, sp, #4
    b550:	e24dd008 	sub	sp, sp, #8
    b554:	e50b0008 	str	r0, [fp, #-8]
    b558:	e50b100c 	str	r1, [fp, #-12]
    b55c:	e51b3008 	ldr	r3, [fp, #-8]
    b560:	e2830010 	add	r0, r3, #16
    b564:	e51b300c 	ldr	r3, [fp, #-12]
    b568:	e3a02002 	mov	r2, #2
    b56c:	e3a0100c 	mov	r1, #12
    b570:	ebfffd80 	bl	ab78 <HW_WR_FIELD32_RAW>
    b574:	e320f000 	nop	{0}
    b578:	e24bd004 	sub	sp, fp, #4
    b57c:	e8bd8800 	pop	{fp, pc}

0000b580 <TIMEREmuModeConfigure>:
    b580:	e92d4800 	push	{fp, lr}
    b584:	e28db004 	add	fp, sp, #4
    b588:	e24dd008 	sub	sp, sp, #8
    b58c:	e50b0008 	str	r0, [fp, #-8]
    b590:	e50b100c 	str	r1, [fp, #-12]
    b594:	e51b3008 	ldr	r3, [fp, #-8]
    b598:	e2830010 	add	r0, r3, #16
    b59c:	e51b300c 	ldr	r3, [fp, #-12]
    b5a0:	e3a02001 	mov	r2, #1
    b5a4:	e3a01002 	mov	r1, #2
    b5a8:	ebfffd72 	bl	ab78 <HW_WR_FIELD32_RAW>
    b5ac:	e320f000 	nop	{0}
    b5b0:	e24bd004 	sub	sp, fp, #4
    b5b4:	e8bd8800 	pop	{fp, pc}

0000b5b8 <TIMERTPIRSet>:
    b5b8:	e92d4800 	push	{fp, lr}
    b5bc:	e28db004 	add	fp, sp, #4
    b5c0:	e24dd008 	sub	sp, sp, #8
    b5c4:	e50b0008 	str	r0, [fp, #-8]
    b5c8:	e50b100c 	str	r1, [fp, #-12]
    b5cc:	e51b3008 	ldr	r3, [fp, #-8]
    b5d0:	e283305c 	add	r3, r3, #92	; 0x5c
    b5d4:	e51b100c 	ldr	r1, [fp, #-12]
    b5d8:	e1a00003 	mov	r0, r3
    b5dc:	ebfffd59 	bl	ab48 <HW_WR_REG32_RAW>
    b5e0:	e320f000 	nop	{0}
    b5e4:	e24bd004 	sub	sp, fp, #4
    b5e8:	e8bd8800 	pop	{fp, pc}

0000b5ec <TIMERTNIRSet>:
    b5ec:	e92d4800 	push	{fp, lr}
    b5f0:	e28db004 	add	fp, sp, #4
    b5f4:	e24dd008 	sub	sp, sp, #8
    b5f8:	e50b0008 	str	r0, [fp, #-8]
    b5fc:	e50b100c 	str	r1, [fp, #-12]
    b600:	e51b3008 	ldr	r3, [fp, #-8]
    b604:	e2833060 	add	r3, r3, #96	; 0x60
    b608:	e51b100c 	ldr	r1, [fp, #-12]
    b60c:	e1a00003 	mov	r0, r3
    b610:	ebfffd4c 	bl	ab48 <HW_WR_REG32_RAW>
    b614:	e320f000 	nop	{0}
    b618:	e24bd004 	sub	sp, fp, #4
    b61c:	e8bd8800 	pop	{fp, pc}

0000b620 <TIMERTCVRSet>:
    b620:	e92d4800 	push	{fp, lr}
    b624:	e28db004 	add	fp, sp, #4
    b628:	e24dd008 	sub	sp, sp, #8
    b62c:	e50b0008 	str	r0, [fp, #-8]
    b630:	e50b100c 	str	r1, [fp, #-12]
    b634:	e51b3008 	ldr	r3, [fp, #-8]
    b638:	e2833064 	add	r3, r3, #100	; 0x64
    b63c:	e51b100c 	ldr	r1, [fp, #-12]
    b640:	e1a00003 	mov	r0, r3
    b644:	ebfffd3f 	bl	ab48 <HW_WR_REG32_RAW>
    b648:	e320f000 	nop	{0}
    b64c:	e24bd004 	sub	sp, fp, #4
    b650:	e8bd8800 	pop	{fp, pc}

0000b654 <TIMERTOCRSet>:
    b654:	e92d4800 	push	{fp, lr}
    b658:	e28db004 	add	fp, sp, #4
    b65c:	e24dd008 	sub	sp, sp, #8
    b660:	e50b0008 	str	r0, [fp, #-8]
    b664:	e50b100c 	str	r1, [fp, #-12]
    b668:	e51b3008 	ldr	r3, [fp, #-8]
    b66c:	e2830068 	add	r0, r3, #104	; 0x68
    b670:	e51b300c 	ldr	r3, [fp, #-12]
    b674:	e3a02000 	mov	r2, #0
    b678:	e3e014ff 	mvn	r1, #-16777216	; 0xff000000
    b67c:	ebfffd3d 	bl	ab78 <HW_WR_FIELD32_RAW>
    b680:	e320f000 	nop	{0}
    b684:	e24bd004 	sub	sp, fp, #4
    b688:	e8bd8800 	pop	{fp, pc}

0000b68c <TIMERTOWRGet>:
    b68c:	e92d4800 	push	{fp, lr}
    b690:	e28db004 	add	fp, sp, #4
    b694:	e24dd008 	sub	sp, sp, #8
    b698:	e50b0008 	str	r0, [fp, #-8]
    b69c:	e51b3008 	ldr	r3, [fp, #-8]
    b6a0:	e283306c 	add	r3, r3, #108	; 0x6c
    b6a4:	e3a02000 	mov	r2, #0
    b6a8:	e3e014ff 	mvn	r1, #-16777216	; 0xff000000
    b6ac:	e1a00003 	mov	r0, r3
    b6b0:	ebfffd4e 	bl	abf0 <HW_RD_FIELD32_RAW>
    b6b4:	e1a03000 	mov	r3, r0
    b6b8:	e1a00003 	mov	r0, r3
    b6bc:	e24bd004 	sub	sp, fp, #4
    b6c0:	e8bd8800 	pop	{fp, pc}

0000b6c4 <TIMERTOWRSet>:
    b6c4:	e92d4800 	push	{fp, lr}
    b6c8:	e28db004 	add	fp, sp, #4
    b6cc:	e24dd008 	sub	sp, sp, #8
    b6d0:	e50b0008 	str	r0, [fp, #-8]
    b6d4:	e50b100c 	str	r1, [fp, #-12]
    b6d8:	e51b3008 	ldr	r3, [fp, #-8]
    b6dc:	e283006c 	add	r0, r3, #108	; 0x6c
    b6e0:	e51b300c 	ldr	r3, [fp, #-12]
    b6e4:	e3a02000 	mov	r2, #0
    b6e8:	e3e014ff 	mvn	r1, #-16777216	; 0xff000000
    b6ec:	ebfffd21 	bl	ab78 <HW_WR_FIELD32_RAW>
    b6f0:	e320f000 	nop	{0}
    b6f4:	e24bd004 	sub	sp, fp, #4
    b6f8:	e8bd8800 	pop	{fp, pc}

0000b6fc <TimerWaitForWrite>:
    b6fc:	e92d4800 	push	{fp, lr}
    b700:	e28db004 	add	fp, sp, #4
    b704:	e24dd008 	sub	sp, sp, #8
    b708:	e50b0008 	str	r0, [fp, #-8]
    b70c:	e50b100c 	str	r1, [fp, #-12]
    b710:	e51b300c 	ldr	r3, [fp, #-12]
    b714:	e2833054 	add	r3, r3, #84	; 0x54
    b718:	e3a02002 	mov	r2, #2
    b71c:	e3a01004 	mov	r1, #4
    b720:	e1a00003 	mov	r0, r3
    b724:	ebfffd31 	bl	abf0 <HW_RD_FIELD32_RAW>
    b728:	e1a03000 	mov	r3, r0
    b72c:	e3530000 	cmp	r3, #0
    b730:	0a000007 	beq	b754 <TimerWaitForWrite+0x58>
    b734:	e320f000 	nop	{0}
    b738:	e51b000c 	ldr	r0, [fp, #-12]
    b73c:	ebffff75 	bl	b518 <TIMERWritePostedStatusGet>
    b740:	e1a02000 	mov	r2, r0
    b744:	e51b3008 	ldr	r3, [fp, #-8]
    b748:	e0033002 	and	r3, r3, r2
    b74c:	e3530000 	cmp	r3, #0
    b750:	1afffff8 	bne	b738 <TimerWaitForWrite+0x3c>
    b754:	e320f000 	nop	{0}
    b758:	e24bd004 	sub	sp, fp, #4
    b75c:	e8bd8800 	pop	{fp, pc}

0000b760 <TimerP_getDefaultFreqLo>:
    b760:	e52db004 	push	{fp}		; (str fp, [sp, #-4]!)
    b764:	e28db000 	add	fp, sp, #0
    b768:	e24dd014 	sub	sp, sp, #20
    b76c:	e50b0010 	str	r0, [fp, #-16]
    b770:	e3a03902 	mov	r3, #32768	; 0x8000
    b774:	e50b3008 	str	r3, [fp, #-8]
    b778:	e51b3008 	ldr	r3, [fp, #-8]
    b77c:	e1a00003 	mov	r0, r3
    b780:	e28bd000 	add	sp, fp, #0
    b784:	e49db004 	pop	{fp}		; (ldr fp, [sp], #4)
    b788:	e12fff1e 	bx	lr

0000b78c <TimerP_getDefaultFreqHi>:
    b78c:	e52db004 	push	{fp}		; (str fp, [sp, #-4]!)
    b790:	e28db000 	add	fp, sp, #0
    b794:	e24dd014 	sub	sp, sp, #20
    b798:	e50b0010 	str	r0, [fp, #-16]
    b79c:	e3a03000 	mov	r3, #0
    b7a0:	e50b3008 	str	r3, [fp, #-8]
    b7a4:	e51b3008 	ldr	r3, [fp, #-8]
    b7a8:	e1a00003 	mov	r0, r3
    b7ac:	e28bd000 	add	sp, fp, #0
    b7b0:	e49db004 	pop	{fp}		; (ldr fp, [sp], #4)
    b7b4:	e12fff1e 	bx	lr

0000b7b8 <HW_RD_REG32_RAW>:
    b7b8:	e52db004 	push	{fp}		; (str fp, [sp, #-4]!)
    b7bc:	e28db000 	add	fp, sp, #0
    b7c0:	e24dd014 	sub	sp, sp, #20
    b7c4:	e50b0010 	str	r0, [fp, #-16]
    b7c8:	e51b3010 	ldr	r3, [fp, #-16]
    b7cc:	e5933000 	ldr	r3, [r3]
    b7d0:	e50b3008 	str	r3, [fp, #-8]
    b7d4:	e51b3008 	ldr	r3, [fp, #-8]
    b7d8:	e1a00003 	mov	r0, r3
    b7dc:	e28bd000 	add	sp, fp, #0
    b7e0:	e49db004 	pop	{fp}		; (ldr fp, [sp], #4)
    b7e4:	e12fff1e 	bx	lr

0000b7e8 <HW_WR_REG32_RAW>:
    b7e8:	e52db004 	push	{fp}		; (str fp, [sp, #-4]!)
    b7ec:	e28db000 	add	fp, sp, #0
    b7f0:	e24dd00c 	sub	sp, sp, #12
    b7f4:	e50b0008 	str	r0, [fp, #-8]
    b7f8:	e50b100c 	str	r1, [fp, #-12]
    b7fc:	e51b3008 	ldr	r3, [fp, #-8]
    b800:	e51b200c 	ldr	r2, [fp, #-12]
    b804:	e5832000 	str	r2, [r3]
    b808:	e320f000 	nop	{0}
    b80c:	e28bd000 	add	sp, fp, #0
    b810:	e49db004 	pop	{fp}		; (ldr fp, [sp], #4)
    b814:	e12fff1e 	bx	lr

0000b818 <TimerP_getTimerBaseAddr>:
    b818:	e52db004 	push	{fp}		; (str fp, [sp, #-4]!)
    b81c:	e28db000 	add	fp, sp, #0
    b820:	e24dd014 	sub	sp, sp, #20
    b824:	e50b0010 	str	r0, [fp, #-16]
    b828:	e51b3010 	ldr	r3, [fp, #-16]
    b82c:	e3530005 	cmp	r3, #5
    b830:	8a000007 	bhi	b854 <TimerP_getTimerBaseAddr+0x3c>
    b834:	e30d2d1c 	movw	r2, #56604	; 0xdd1c
    b838:	e3402001 	movt	r2, #1
    b83c:	e51b3010 	ldr	r3, [fp, #-16]
    b840:	e1a03203 	lsl	r3, r3, #4
    b844:	e0823003 	add	r3, r2, r3
    b848:	e5933004 	ldr	r3, [r3, #4]
    b84c:	e50b3008 	str	r3, [fp, #-8]
    b850:	ea000001 	b	b85c <TimerP_getTimerBaseAddr+0x44>
    b854:	e3a03000 	mov	r3, #0
    b858:	e50b3008 	str	r3, [fp, #-8]
    b85c:	e51b3008 	ldr	r3, [fp, #-8]
    b860:	e1a00003 	mov	r0, r3
    b864:	e28bd000 	add	sp, fp, #0
    b868:	e49db004 	pop	{fp}		; (ldr fp, [sp], #4)
    b86c:	e12fff1e 	bx	lr

0000b870 <TimerP_dmTimerStub>:
    b870:	e92d4800 	push	{fp, lr}
    b874:	e28db004 	add	fp, sp, #4
    b878:	e24dd010 	sub	sp, sp, #16
    b87c:	e50b0010 	str	r0, [fp, #-16]
    b880:	e51b3010 	ldr	r3, [fp, #-16]
    b884:	e50b3008 	str	r3, [fp, #-8]
    b888:	e51b3008 	ldr	r3, [fp, #-8]
    b88c:	e5933004 	ldr	r3, [r3, #4]
    b890:	e1a00003 	mov	r0, r3
    b894:	ebffffdf 	bl	b818 <TimerP_getTimerBaseAddr>
    b898:	e50b000c 	str	r0, [fp, #-12]
    b89c:	e3a01002 	mov	r1, #2
    b8a0:	e51b000c 	ldr	r0, [fp, #-12]
    b8a4:	ebfffe18 	bl	b10c <TIMERIntDisable>
    b8a8:	e51b3008 	ldr	r3, [fp, #-8]
    b8ac:	e5933044 	ldr	r3, [r3, #68]	; 0x44
    b8b0:	e1a01003 	mov	r1, r3
    b8b4:	e51b000c 	ldr	r0, [fp, #-12]
    b8b8:	ebfffdf5 	bl	b094 <TIMERIntStatusClear>
    b8bc:	e51b3008 	ldr	r3, [fp, #-8]
    b8c0:	e5933020 	ldr	r3, [r3, #32]
    b8c4:	e51b2008 	ldr	r2, [fp, #-8]
    b8c8:	e5922024 	ldr	r2, [r2, #36]	; 0x24
    b8cc:	e1a00002 	mov	r0, r2
    b8d0:	e12fff33 	blx	r3
    b8d4:	e3a01002 	mov	r1, #2
    b8d8:	e51b000c 	ldr	r0, [fp, #-12]
    b8dc:	ebfffdfb 	bl	b0d0 <TIMERIntEnable>
    b8e0:	e320f000 	nop	{0}
    b8e4:	e24bd004 	sub	sp, fp, #4
    b8e8:	e8bd8800 	pop	{fp, pc}

0000b8ec <TimerP_dmTimerInitDevice>:
    b8ec:	e92d4800 	push	{fp, lr}
    b8f0:	e28db004 	add	fp, sp, #4
    b8f4:	e24dd018 	sub	sp, sp, #24
    b8f8:	e50b0018 	str	r0, [fp, #-24]	; 0xffffffe8
    b8fc:	e50b101c 	str	r1, [fp, #-28]	; 0xffffffe4
    b900:	e3a03000 	mov	r3, #0
    b904:	e50b3008 	str	r3, [fp, #-8]
    b908:	e3a03000 	mov	r3, #0
    b90c:	e50b300c 	str	r3, [fp, #-12]
    b910:	ebfff79a 	bl	9780 <HwiP_disable>
    b914:	e50b0010 	str	r0, [fp, #-16]
    b918:	e51b001c 	ldr	r0, [fp, #-28]	; 0xffffffe4
    b91c:	ebfffcd7 	bl	ac80 <TIMERDisable>
    b920:	e51b001c 	ldr	r0, [fp, #-28]	; 0xffffffe4
    b924:	ebfffefb 	bl	b518 <TIMERWritePostedStatusGet>
    b928:	e1a03000 	mov	r3, r0
    b92c:	e2033001 	and	r3, r3, #1
    b930:	e50b3014 	str	r3, [fp, #-20]	; 0xffffffec
    b934:	e51b3014 	ldr	r3, [fp, #-20]	; 0xffffffec
    b938:	e3530000 	cmp	r3, #0
    b93c:	1afffff7 	bne	b920 <TimerP_dmTimerInitDevice+0x34>
    b940:	e51b1008 	ldr	r1, [fp, #-8]
    b944:	e51b001c 	ldr	r0, [fp, #-28]	; 0xffffffe4
    b948:	ebfffd38 	bl	ae30 <TIMERCounterSet>
    b94c:	e51b001c 	ldr	r0, [fp, #-28]	; 0xffffffe4
    b950:	ebfffef0 	bl	b518 <TIMERWritePostedStatusGet>
    b954:	e1a03000 	mov	r3, r0
    b958:	e2033002 	and	r3, r3, #2
    b95c:	e50b3014 	str	r3, [fp, #-20]	; 0xffffffec
    b960:	e51b3014 	ldr	r3, [fp, #-20]	; 0xffffffec
    b964:	e3530000 	cmp	r3, #0
    b968:	1afffff7 	bne	b94c <TimerP_dmTimerInitDevice+0x60>
    b96c:	e51b100c 	ldr	r1, [fp, #-12]
    b970:	e51b001c 	ldr	r0, [fp, #-28]	; 0xffffffe4
    b974:	ebfffd4c 	bl	aeac <TIMERReloadSet>
    b978:	e51b001c 	ldr	r0, [fp, #-28]	; 0xffffffe4
    b97c:	ebfffee5 	bl	b518 <TIMERWritePostedStatusGet>
    b980:	e1a03000 	mov	r3, r0
    b984:	e2033004 	and	r3, r3, #4
    b988:	e50b3014 	str	r3, [fp, #-20]	; 0xffffffec
    b98c:	e51b3014 	ldr	r3, [fp, #-20]	; 0xffffffec
    b990:	e3530000 	cmp	r3, #0
    b994:	1afffff7 	bne	b978 <TimerP_dmTimerInitDevice+0x8c>
    b998:	e51b0010 	ldr	r0, [fp, #-16]
    b99c:	ebfff7b1 	bl	9868 <HwiP_restore>
    b9a0:	e320f000 	nop	{0}
    b9a4:	e24bd004 	sub	sp, fp, #4
    b9a8:	e8bd8800 	pop	{fp, pc}

0000b9ac <TimerP_dmTimerCheckOverflow>:
    b9ac:	e92d4800 	push	{fp, lr}
    b9b0:	e28db004 	add	fp, sp, #4
    b9b4:	e24dd008 	sub	sp, sp, #8
    b9b8:	e50b0008 	str	r0, [fp, #-8]
    b9bc:	e50b100c 	str	r1, [fp, #-12]
    b9c0:	e51b300c 	ldr	r3, [fp, #-12]
    b9c4:	e3530000 	cmp	r3, #0
    b9c8:	0a000009 	beq	b9f4 <TimerP_dmTimerCheckOverflow+0x48>
    b9cc:	e51b100c 	ldr	r1, [fp, #-12]
    b9d0:	e3e00000 	mvn	r0, #0
    b9d4:	eb0005d7 	bl	d138 <__udivsi3>
    b9d8:	e1a03000 	mov	r3, r0
    b9dc:	e1a02003 	mov	r2, r3
    b9e0:	e51b3008 	ldr	r3, [fp, #-8]
    b9e4:	e1520003 	cmp	r2, r3
    b9e8:	2a000001 	bcs	b9f4 <TimerP_dmTimerCheckOverflow+0x48>
    b9ec:	e3a03001 	mov	r3, #1
    b9f0:	ea000000 	b	b9f8 <TimerP_dmTimerCheckOverflow+0x4c>
    b9f4:	e3a03000 	mov	r3, #0
    b9f8:	e2033001 	and	r3, r3, #1
    b9fc:	e6ef3073 	uxtb	r3, r3
    ba00:	e1a00003 	mov	r0, r3
    ba04:	e24bd004 	sub	sp, fp, #4
    ba08:	e8bd8800 	pop	{fp, pc}

0000ba0c <TimerP_dmTimerSetMicroSeconds>:
    ba0c:	e92d4800 	push	{fp, lr}
    ba10:	e28db004 	add	fp, sp, #4
    ba14:	e24dd028 	sub	sp, sp, #40	; 0x28
    ba18:	e50b0028 	str	r0, [fp, #-40]	; 0xffffffd8
    ba1c:	e50b102c 	str	r1, [fp, #-44]	; 0xffffffd4
    ba20:	e51b3028 	ldr	r3, [fp, #-40]	; 0xffffffd8
    ba24:	e5933004 	ldr	r3, [r3, #4]
    ba28:	e1a00003 	mov	r0, r3
    ba2c:	ebffff79 	bl	b818 <TimerP_getTimerBaseAddr>
    ba30:	e50b0008 	str	r0, [fp, #-8]
    ba34:	e51b0028 	ldr	r0, [fp, #-40]	; 0xffffffd8
    ba38:	eb000425 	bl	cad4 <TimerP_stop>
    ba3c:	e51b3028 	ldr	r3, [fp, #-40]	; 0xffffffd8
    ba40:	e593100c 	ldr	r1, [r3, #12]
    ba44:	e3043dd3 	movw	r3, #19923	; 0x4dd3
    ba48:	e3413062 	movt	r3, #4194	; 0x1062
    ba4c:	e0832391 	umull	r2, r3, r1, r3
    ba50:	e1a03323 	lsr	r3, r3, #6
    ba54:	e3a02ffa 	mov	r2, #1000	; 0x3e8
    ba58:	e0030392 	mul	r3, r2, r3
    ba5c:	e0413003 	sub	r3, r1, r3
    ba60:	e3530f7d 	cmp	r3, #500	; 0x1f4
    ba64:	3a000001 	bcc	ba70 <TimerP_dmTimerSetMicroSeconds+0x64>
    ba68:	e3a03001 	mov	r3, #1
    ba6c:	ea000000 	b	ba74 <TimerP_dmTimerSetMicroSeconds+0x68>
    ba70:	e3a03000 	mov	r3, #0
    ba74:	e50b300c 	str	r3, [fp, #-12]
    ba78:	e51b3028 	ldr	r3, [fp, #-40]	; 0xffffffd8
    ba7c:	e593200c 	ldr	r2, [r3, #12]
    ba80:	e3043dd3 	movw	r3, #19923	; 0x4dd3
    ba84:	e3413062 	movt	r3, #4194	; 0x1062
    ba88:	e0832392 	umull	r2, r3, r2, r3
    ba8c:	e1a02323 	lsr	r2, r3, #6
    ba90:	e51b300c 	ldr	r3, [fp, #-12]
    ba94:	e0823003 	add	r3, r2, r3
    ba98:	e50b3010 	str	r3, [fp, #-16]
    ba9c:	e51b202c 	ldr	r2, [fp, #-44]	; 0xffffffd4
    baa0:	e3043dd3 	movw	r3, #19923	; 0x4dd3
    baa4:	e3413062 	movt	r3, #4194	; 0x1062
    baa8:	e0832392 	umull	r2, r3, r2, r3
    baac:	e1a03323 	lsr	r3, r3, #6
    bab0:	e1a01003 	mov	r1, r3
    bab4:	e51b0010 	ldr	r0, [fp, #-16]
    bab8:	ebffffbb 	bl	b9ac <TimerP_dmTimerCheckOverflow>
    babc:	e1a03000 	mov	r3, r0
    bac0:	e3530000 	cmp	r3, #0
    bac4:	0a000001 	beq	bad0 <TimerP_dmTimerSetMicroSeconds+0xc4>
    bac8:	e3a03000 	mov	r3, #0
    bacc:	ea00005c 	b	bc44 <TimerP_dmTimerSetMicroSeconds+0x238>
    bad0:	e51b3010 	ldr	r3, [fp, #-16]
    bad4:	e1a00003 	mov	r0, r3
    bad8:	e3a01000 	mov	r1, #0
    badc:	e51b302c 	ldr	r3, [fp, #-44]	; 0xffffffd4
    bae0:	e1a02003 	mov	r2, r3
    bae4:	e3a03000 	mov	r3, #0
    bae8:	e00e0192 	mul	lr, r2, r1
    baec:	e00c0390 	mul	ip, r0, r3
    baf0:	e08ec00c 	add	ip, lr, ip
    baf4:	e0810290 	umull	r0, r1, r0, r2
    baf8:	e08c3001 	add	r3, ip, r1
    bafc:	e1a01003 	mov	r1, r3
    bb00:	e3a02ffa 	mov	r2, #1000	; 0x3e8
    bb04:	e3a03000 	mov	r3, #0
    bb08:	eb0005d0 	bl	d250 <__aeabi_uldivmod>
    bb0c:	e1a02000 	mov	r2, r0
    bb10:	e1a03001 	mov	r3, r1
    bb14:	e14b21fc 	strd	r2, [fp, #-28]	; 0xffffffe4
    bb18:	e14b21dc 	ldrd	r2, [fp, #-28]	; 0xffffffe4
    bb1c:	e3e00000 	mvn	r0, #0
    bb20:	e3a01000 	mov	r1, #0
    bb24:	e1530001 	cmp	r3, r1
    bb28:	01520000 	cmpeq	r2, r0
    bb2c:	9a000001 	bls	bb38 <TimerP_dmTimerSetMicroSeconds+0x12c>
    bb30:	e3a03000 	mov	r3, #0
    bb34:	ea000042 	b	bc44 <TimerP_dmTimerSetMicroSeconds+0x238>
    bb38:	e51b301c 	ldr	r3, [fp, #-28]	; 0xffffffe4
    bb3c:	e2433001 	sub	r3, r3, #1
    bb40:	e50b3020 	str	r3, [fp, #-32]	; 0xffffffe0
    bb44:	e51b3028 	ldr	r3, [fp, #-40]	; 0xffffffd8
    bb48:	e51b2020 	ldr	r2, [fp, #-32]	; 0xffffffe0
    bb4c:	e583201c 	str	r2, [r3, #28]
    bb50:	e51b3028 	ldr	r3, [fp, #-40]	; 0xffffffd8
    bb54:	e3a02001 	mov	r2, #1
    bb58:	e5832008 	str	r2, [r3, #8]
    bb5c:	e51b3028 	ldr	r3, [fp, #-40]	; 0xffffffd8
    bb60:	e5933018 	ldr	r3, [r3, #24]
    bb64:	e3530000 	cmp	r3, #0
    bb68:	0a000003 	beq	bb7c <TimerP_dmTimerSetMicroSeconds+0x170>
    bb6c:	e51b3028 	ldr	r3, [fp, #-40]	; 0xffffffd8
    bb70:	e5933018 	ldr	r3, [r3, #24]
    bb74:	e3530001 	cmp	r3, #1
    bb78:	1a00001a 	bne	bbe8 <TimerP_dmTimerSetMicroSeconds+0x1dc>
    bb7c:	e51b3020 	ldr	r3, [fp, #-32]	; 0xffffffe0
    bb80:	e1e03003 	mvn	r3, r3
    bb84:	e1a01003 	mov	r1, r3
    bb88:	e51b0008 	ldr	r0, [fp, #-8]
    bb8c:	ebfffca7 	bl	ae30 <TIMERCounterSet>
    bb90:	e51b0008 	ldr	r0, [fp, #-8]
    bb94:	ebfffe5f 	bl	b518 <TIMERWritePostedStatusGet>
    bb98:	e1a03000 	mov	r3, r0
    bb9c:	e2033002 	and	r3, r3, #2
    bba0:	e50b3024 	str	r3, [fp, #-36]	; 0xffffffdc
    bba4:	e51b3024 	ldr	r3, [fp, #-36]	; 0xffffffdc
    bba8:	e3530000 	cmp	r3, #0
    bbac:	1afffff7 	bne	bb90 <TimerP_dmTimerSetMicroSeconds+0x184>
    bbb0:	e51b3020 	ldr	r3, [fp, #-32]	; 0xffffffe0
    bbb4:	e1e03003 	mvn	r3, r3
    bbb8:	e1a01003 	mov	r1, r3
    bbbc:	e51b0008 	ldr	r0, [fp, #-8]
    bbc0:	ebfffcb9 	bl	aeac <TIMERReloadSet>
    bbc4:	e51b0008 	ldr	r0, [fp, #-8]
    bbc8:	ebfffe52 	bl	b518 <TIMERWritePostedStatusGet>
    bbcc:	e1a03000 	mov	r3, r0
    bbd0:	e2033004 	and	r3, r3, #4
    bbd4:	e50b3024 	str	r3, [fp, #-36]	; 0xffffffdc
    bbd8:	e51b3024 	ldr	r3, [fp, #-36]	; 0xffffffdc
    bbdc:	e3530000 	cmp	r3, #0
    bbe0:	1afffff7 	bne	bbc4 <TimerP_dmTimerSetMicroSeconds+0x1b8>
    bbe4:	ea000015 	b	bc40 <TimerP_dmTimerSetMicroSeconds+0x234>
    bbe8:	e3a01000 	mov	r1, #0
    bbec:	e51b0008 	ldr	r0, [fp, #-8]
    bbf0:	ebfffc8e 	bl	ae30 <TIMERCounterSet>
    bbf4:	e51b0008 	ldr	r0, [fp, #-8]
    bbf8:	ebfffe46 	bl	b518 <TIMERWritePostedStatusGet>
    bbfc:	e1a03000 	mov	r3, r0
    bc00:	e2033002 	and	r3, r3, #2
    bc04:	e50b3024 	str	r3, [fp, #-36]	; 0xffffffdc
    bc08:	e51b3024 	ldr	r3, [fp, #-36]	; 0xffffffdc
    bc0c:	e3530000 	cmp	r3, #0
    bc10:	1afffff7 	bne	bbf4 <TimerP_dmTimerSetMicroSeconds+0x1e8>
    bc14:	e51b1020 	ldr	r1, [fp, #-32]	; 0xffffffe0
    bc18:	e51b0008 	ldr	r0, [fp, #-8]
    bc1c:	ebfffcd9 	bl	af88 <TIMERCompareSet>
    bc20:	e51b0008 	ldr	r0, [fp, #-8]
    bc24:	ebfffe3b 	bl	b518 <TIMERWritePostedStatusGet>
    bc28:	e1a03000 	mov	r3, r0
    bc2c:	e2033010 	and	r3, r3, #16
    bc30:	e50b3024 	str	r3, [fp, #-36]	; 0xffffffdc
    bc34:	e51b3024 	ldr	r3, [fp, #-36]	; 0xffffffdc
    bc38:	e3530000 	cmp	r3, #0
    bc3c:	1afffff7 	bne	bc20 <TimerP_dmTimerSetMicroSeconds+0x214>
    bc40:	e3a03001 	mov	r3, #1
    bc44:	e1a00003 	mov	r0, r3
    bc48:	e24bd004 	sub	sp, fp, #4
    bc4c:	e8bd8800 	pop	{fp, pc}

0000bc50 <TimerP_dmTimerDeviceCfg>:
    bc50:	e92d4800 	push	{fp, lr}
    bc54:	e28db004 	add	fp, sp, #4
    bc58:	e24dd018 	sub	sp, sp, #24
    bc5c:	e50b0018 	str	r0, [fp, #-24]	; 0xffffffe8
    bc60:	e50b101c 	str	r1, [fp, #-28]	; 0xffffffe4
    bc64:	e51b101c 	ldr	r1, [fp, #-28]	; 0xffffffe4
    bc68:	e51b0018 	ldr	r0, [fp, #-24]	; 0xffffffe8
    bc6c:	ebffff1e 	bl	b8ec <TimerP_dmTimerInitDevice>
    bc70:	ebfff6c2 	bl	9780 <HwiP_disable>
    bc74:	e50b0008 	str	r0, [fp, #-8]
    bc78:	e51b3018 	ldr	r3, [fp, #-24]	; 0xffffffe8
    bc7c:	e5933054 	ldr	r3, [r3, #84]	; 0x54
    bc80:	e2033001 	and	r3, r3, #1
    bc84:	e3530000 	cmp	r3, #0
    bc88:	0a000001 	beq	bc94 <TimerP_dmTimerDeviceCfg+0x44>
    bc8c:	e51b001c 	ldr	r0, [fp, #-28]	; 0xffffffe4
    bc90:	ebfffd86 	bl	b2b0 <TIMERReset>
    bc94:	e51b301c 	ldr	r3, [fp, #-28]	; 0xffffffe4
    bc98:	e2833010 	add	r3, r3, #16
    bc9c:	e3e01001 	mvn	r1, #1
    bca0:	e1a00003 	mov	r0, r3
    bca4:	ebfffecf 	bl	b7e8 <HW_WR_REG32_RAW>
    bca8:	e51b301c 	ldr	r3, [fp, #-28]	; 0xffffffe4
    bcac:	e2833054 	add	r3, r3, #84	; 0x54
    bcb0:	e1a00003 	mov	r0, r3
    bcb4:	ebfffebf 	bl	b7b8 <HW_RD_REG32_RAW>
    bcb8:	e50b000c 	str	r0, [fp, #-12]
    bcbc:	e51b3018 	ldr	r3, [fp, #-24]	; 0xffffffe8
    bcc0:	e5933050 	ldr	r3, [r3, #80]	; 0x50
    bcc4:	e2033004 	and	r3, r3, #4
    bcc8:	e3530000 	cmp	r3, #0
    bccc:	0a000009 	beq	bcf8 <TimerP_dmTimerDeviceCfg+0xa8>
    bcd0:	e51b300c 	ldr	r3, [fp, #-12]
    bcd4:	e2033004 	and	r3, r3, #4
    bcd8:	e3530000 	cmp	r3, #0
    bcdc:	1a00000e 	bne	bd1c <TimerP_dmTimerDeviceCfg+0xcc>
    bce0:	e51b300c 	ldr	r3, [fp, #-12]
    bce4:	e3833004 	orr	r3, r3, #4
    bce8:	e1a01003 	mov	r1, r3
    bcec:	e51b001c 	ldr	r0, [fp, #-28]	; 0xffffffe4
    bcf0:	ebfffdea 	bl	b4a0 <TIMERPostedModeConfig>
    bcf4:	ea000008 	b	bd1c <TimerP_dmTimerDeviceCfg+0xcc>
    bcf8:	e51b300c 	ldr	r3, [fp, #-12]
    bcfc:	e2033004 	and	r3, r3, #4
    bd00:	e3530000 	cmp	r3, #0
    bd04:	0a000004 	beq	bd1c <TimerP_dmTimerDeviceCfg+0xcc>
    bd08:	e51b300c 	ldr	r3, [fp, #-12]
    bd0c:	e3c33004 	bic	r3, r3, #4
    bd10:	e1a01003 	mov	r1, r3
    bd14:	e51b001c 	ldr	r0, [fp, #-28]	; 0xffffffe4
    bd18:	ebfffde0 	bl	b4a0 <TIMERPostedModeConfig>
    bd1c:	e51b301c 	ldr	r3, [fp, #-28]	; 0xffffffe4
    bd20:	e2833054 	add	r3, r3, #84	; 0x54
    bd24:	e1a00003 	mov	r0, r3
    bd28:	ebfffea2 	bl	b7b8 <HW_RD_REG32_RAW>
    bd2c:	e50b000c 	str	r0, [fp, #-12]
    bd30:	e51b3018 	ldr	r3, [fp, #-24]	; 0xffffffe8
    bd34:	e5933050 	ldr	r3, [r3, #80]	; 0x50
    bd38:	e2033008 	and	r3, r3, #8
    bd3c:	e3530000 	cmp	r3, #0
    bd40:	0a000009 	beq	bd6c <TimerP_dmTimerDeviceCfg+0x11c>
    bd44:	e51b300c 	ldr	r3, [fp, #-12]
    bd48:	e2033008 	and	r3, r3, #8
    bd4c:	e3530000 	cmp	r3, #0
    bd50:	1a000010 	bne	bd98 <TimerP_dmTimerDeviceCfg+0x148>
    bd54:	e51b300c 	ldr	r3, [fp, #-12]
    bd58:	e3833008 	orr	r3, r3, #8
    bd5c:	e1a01003 	mov	r1, r3
    bd60:	e51b001c 	ldr	r0, [fp, #-28]	; 0xffffffe4
    bd64:	ebfffddc 	bl	b4dc <TIMERReadModeConfig>
    bd68:	ea00000a 	b	bd98 <TimerP_dmTimerDeviceCfg+0x148>
    bd6c:	e51b300c 	ldr	r3, [fp, #-12]
    bd70:	e2033008 	and	r3, r3, #8
    bd74:	e3530000 	cmp	r3, #0
    bd78:	0a000006 	beq	bd98 <TimerP_dmTimerDeviceCfg+0x148>
    bd7c:	e51b300c 	ldr	r3, [fp, #-12]
    bd80:	e1e03003 	mvn	r3, r3
    bd84:	e2033008 	and	r3, r3, #8
    bd88:	e1e03003 	mvn	r3, r3
    bd8c:	e1a01003 	mov	r1, r3
    bd90:	e51b001c 	ldr	r0, [fp, #-28]	; 0xffffffe4
    bd94:	ebfffdd0 	bl	b4dc <TIMERReadModeConfig>
    bd98:	e51b3018 	ldr	r3, [fp, #-24]	; 0xffffffe8
    bd9c:	e5933008 	ldr	r3, [r3, #8]
    bda0:	e3530000 	cmp	r3, #0
    bda4:	1a00000d 	bne	bde0 <TimerP_dmTimerDeviceCfg+0x190>
    bda8:	e51b3018 	ldr	r3, [fp, #-24]	; 0xffffffe8
    bdac:	e593301c 	ldr	r3, [r3, #28]
    bdb0:	e1a01003 	mov	r1, r3
    bdb4:	e51b0018 	ldr	r0, [fp, #-24]	; 0xffffffe8
    bdb8:	ebffff13 	bl	ba0c <TimerP_dmTimerSetMicroSeconds>
    bdbc:	e1a03000 	mov	r3, r0
    bdc0:	e2233001 	eor	r3, r3, #1
    bdc4:	e6ef3073 	uxtb	r3, r3
    bdc8:	e3530000 	cmp	r3, #0
    bdcc:	0a000040 	beq	bed4 <TimerP_dmTimerDeviceCfg+0x284>
    bdd0:	e51b0008 	ldr	r0, [fp, #-8]
    bdd4:	ebfff6a3 	bl	9868 <HwiP_restore>
    bdd8:	e3e03000 	mvn	r3, #0
    bddc:	ea000071 	b	bfa8 <TimerP_dmTimerDeviceCfg+0x358>
    bde0:	e51b3018 	ldr	r3, [fp, #-24]	; 0xffffffe8
    bde4:	e5933018 	ldr	r3, [r3, #24]
    bde8:	e3530000 	cmp	r3, #0
    bdec:	0a000003 	beq	be00 <TimerP_dmTimerDeviceCfg+0x1b0>
    bdf0:	e51b3018 	ldr	r3, [fp, #-24]	; 0xffffffe8
    bdf4:	e5933018 	ldr	r3, [r3, #24]
    bdf8:	e3530001 	cmp	r3, #1
    bdfc:	1a00001c 	bne	be74 <TimerP_dmTimerDeviceCfg+0x224>
    be00:	e51b3018 	ldr	r3, [fp, #-24]	; 0xffffffe8
    be04:	e593301c 	ldr	r3, [r3, #28]
    be08:	e1e03003 	mvn	r3, r3
    be0c:	e1a01003 	mov	r1, r3
    be10:	e51b001c 	ldr	r0, [fp, #-28]	; 0xffffffe4
    be14:	ebfffc05 	bl	ae30 <TIMERCounterSet>
    be18:	e51b001c 	ldr	r0, [fp, #-28]	; 0xffffffe4
    be1c:	ebfffdbd 	bl	b518 <TIMERWritePostedStatusGet>
    be20:	e1a03000 	mov	r3, r0
    be24:	e2033002 	and	r3, r3, #2
    be28:	e50b3010 	str	r3, [fp, #-16]
    be2c:	e51b3010 	ldr	r3, [fp, #-16]
    be30:	e3530000 	cmp	r3, #0
    be34:	1afffff7 	bne	be18 <TimerP_dmTimerDeviceCfg+0x1c8>
    be38:	e51b3018 	ldr	r3, [fp, #-24]	; 0xffffffe8
    be3c:	e593301c 	ldr	r3, [r3, #28]
    be40:	e1e03003 	mvn	r3, r3
    be44:	e1a01003 	mov	r1, r3
    be48:	e51b001c 	ldr	r0, [fp, #-28]	; 0xffffffe4
    be4c:	ebfffc16 	bl	aeac <TIMERReloadSet>
    be50:	e51b001c 	ldr	r0, [fp, #-28]	; 0xffffffe4
    be54:	ebfffdaf 	bl	b518 <TIMERWritePostedStatusGet>
    be58:	e1a03000 	mov	r3, r0
    be5c:	e2033004 	and	r3, r3, #4
    be60:	e50b3010 	str	r3, [fp, #-16]
    be64:	e51b3010 	ldr	r3, [fp, #-16]
    be68:	e3530000 	cmp	r3, #0
    be6c:	1afffff7 	bne	be50 <TimerP_dmTimerDeviceCfg+0x200>
    be70:	ea000017 	b	bed4 <TimerP_dmTimerDeviceCfg+0x284>
    be74:	e3a01000 	mov	r1, #0
    be78:	e51b001c 	ldr	r0, [fp, #-28]	; 0xffffffe4
    be7c:	ebfffbeb 	bl	ae30 <TIMERCounterSet>
    be80:	e51b001c 	ldr	r0, [fp, #-28]	; 0xffffffe4
    be84:	ebfffda3 	bl	b518 <TIMERWritePostedStatusGet>
    be88:	e1a03000 	mov	r3, r0
    be8c:	e2033002 	and	r3, r3, #2
    be90:	e50b3010 	str	r3, [fp, #-16]
    be94:	e51b3010 	ldr	r3, [fp, #-16]
    be98:	e3530000 	cmp	r3, #0
    be9c:	1afffff7 	bne	be80 <TimerP_dmTimerDeviceCfg+0x230>
    bea0:	e51b3018 	ldr	r3, [fp, #-24]	; 0xffffffe8
    bea4:	e593301c 	ldr	r3, [r3, #28]
    bea8:	e1a01003 	mov	r1, r3
    beac:	e51b001c 	ldr	r0, [fp, #-28]	; 0xffffffe4
    beb0:	ebfffc34 	bl	af88 <TIMERCompareSet>
    beb4:	e51b001c 	ldr	r0, [fp, #-28]	; 0xffffffe4
    beb8:	ebfffd96 	bl	b518 <TIMERWritePostedStatusGet>
    bebc:	e1a03000 	mov	r3, r0
    bec0:	e2033010 	and	r3, r3, #16
    bec4:	e50b3010 	str	r3, [fp, #-16]
    bec8:	e51b3010 	ldr	r3, [fp, #-16]
    becc:	e3530000 	cmp	r3, #0
    bed0:	1afffff7 	bne	beb4 <TimerP_dmTimerDeviceCfg+0x264>
    bed4:	e51b3018 	ldr	r3, [fp, #-24]	; 0xffffffe8
    bed8:	e5933018 	ldr	r3, [r3, #24]
    bedc:	e3530000 	cmp	r3, #0
    bee0:	0a000003 	beq	bef4 <TimerP_dmTimerDeviceCfg+0x2a4>
    bee4:	e51b3018 	ldr	r3, [fp, #-24]	; 0xffffffe8
    bee8:	e5933018 	ldr	r3, [r3, #24]
    beec:	e3530001 	cmp	r3, #1
    bef0:	1a00000c 	bne	bf28 <TimerP_dmTimerDeviceCfg+0x2d8>
    bef4:	e51b3018 	ldr	r3, [fp, #-24]	; 0xffffffe8
    bef8:	e5933040 	ldr	r3, [r3, #64]	; 0x40
    befc:	e1a01003 	mov	r1, r3
    bf00:	e51b001c 	ldr	r0, [fp, #-28]	; 0xffffffe4
    bf04:	ebfffc1f 	bl	af88 <TIMERCompareSet>
    bf08:	e51b001c 	ldr	r0, [fp, #-28]	; 0xffffffe4
    bf0c:	ebfffd81 	bl	b518 <TIMERWritePostedStatusGet>
    bf10:	e1a03000 	mov	r3, r0
    bf14:	e2033010 	and	r3, r3, #16
    bf18:	e50b3010 	str	r3, [fp, #-16]
    bf1c:	e51b3010 	ldr	r3, [fp, #-16]
    bf20:	e3530000 	cmp	r3, #0
    bf24:	1afffff7 	bne	bf08 <TimerP_dmTimerDeviceCfg+0x2b8>
    bf28:	e51b301c 	ldr	r3, [fp, #-28]	; 0xffffffe4
    bf2c:	e2832034 	add	r2, r3, #52	; 0x34
    bf30:	e51b3018 	ldr	r3, [fp, #-24]	; 0xffffffe8
    bf34:	e5933048 	ldr	r3, [r3, #72]	; 0x48
    bf38:	e1a01003 	mov	r1, r3
    bf3c:	e1a00002 	mov	r0, r2
    bf40:	ebfffe28 	bl	b7e8 <HW_WR_REG32_RAW>
    bf44:	e51b301c 	ldr	r3, [fp, #-28]	; 0xffffffe4
    bf48:	e283202c 	add	r2, r3, #44	; 0x2c
    bf4c:	e51b3018 	ldr	r3, [fp, #-24]	; 0xffffffe8
    bf50:	e5933044 	ldr	r3, [r3, #68]	; 0x44
    bf54:	e1a01003 	mov	r1, r3
    bf58:	e1a00002 	mov	r0, r2
    bf5c:	ebfffe21 	bl	b7e8 <HW_WR_REG32_RAW>
    bf60:	e51b301c 	ldr	r3, [fp, #-28]	; 0xffffffe4
    bf64:	e2832038 	add	r2, r3, #56	; 0x38
    bf68:	e51b3018 	ldr	r3, [fp, #-24]	; 0xffffffe8
    bf6c:	e593304c 	ldr	r3, [r3, #76]	; 0x4c
    bf70:	e1a01003 	mov	r1, r3
    bf74:	e1a00002 	mov	r0, r2
    bf78:	ebfffe1a 	bl	b7e8 <HW_WR_REG32_RAW>
    bf7c:	e51b001c 	ldr	r0, [fp, #-28]	; 0xffffffe4
    bf80:	ebfffd64 	bl	b518 <TIMERWritePostedStatusGet>
    bf84:	e1a03000 	mov	r3, r0
    bf88:	e2033001 	and	r3, r3, #1
    bf8c:	e50b3010 	str	r3, [fp, #-16]
    bf90:	e51b3010 	ldr	r3, [fp, #-16]
    bf94:	e3530000 	cmp	r3, #0
    bf98:	1afffff7 	bne	bf7c <TimerP_dmTimerDeviceCfg+0x32c>
    bf9c:	e51b0008 	ldr	r0, [fp, #-8]
    bfa0:	ebfff630 	bl	9868 <HwiP_restore>
    bfa4:	e3a03000 	mov	r3, #0
    bfa8:	e1a00003 	mov	r0, r3
    bfac:	e24bd004 	sub	sp, fp, #4
    bfb0:	e8bd8800 	pop	{fp, pc}

0000bfb4 <TimerP_dmTimerInitObj>:
    bfb4:	e92d4800 	push	{fp, lr}
    bfb8:	e28db004 	add	fp, sp, #4
    bfbc:	e24dd020 	sub	sp, sp, #32
    bfc0:	e50b0018 	str	r0, [fp, #-24]	; 0xffffffe8
    bfc4:	e50b101c 	str	r1, [fp, #-28]	; 0xffffffe4
    bfc8:	e50b2020 	str	r2, [fp, #-32]	; 0xffffffe0
    bfcc:	e3a03001 	mov	r3, #1
    bfd0:	e54b3005 	strb	r3, [fp, #-5]
    bfd4:	e3a03000 	mov	r3, #0
    bfd8:	e54b3006 	strb	r3, [fp, #-6]
    bfdc:	e3a03000 	mov	r3, #0
    bfe0:	e54b3007 	strb	r3, [fp, #-7]
    bfe4:	e3a03000 	mov	r3, #0
    bfe8:	e54b3008 	strb	r3, [fp, #-8]
    bfec:	e3a03001 	mov	r3, #1
    bff0:	e54b3009 	strb	r3, [fp, #-9]
    bff4:	e3a03000 	mov	r3, #0
    bff8:	e54b300a 	strb	r3, [fp, #-10]
    bffc:	e3a03000 	mov	r3, #0
    c000:	e54b300b 	strb	r3, [fp, #-11]
    c004:	e3a03000 	mov	r3, #0
    c008:	e54b300c 	strb	r3, [fp, #-12]
    c00c:	e3a03000 	mov	r3, #0
    c010:	e54b300d 	strb	r3, [fp, #-13]
    c014:	e51b3018 	ldr	r3, [fp, #-24]	; 0xffffffe8
    c018:	e51b201c 	ldr	r2, [fp, #-28]	; 0xffffffe4
    c01c:	e5832020 	str	r2, [r3, #32]
    c020:	e55b2005 	ldrb	r2, [fp, #-5]
    c024:	e55b3006 	ldrb	r3, [fp, #-6]
    c028:	e1a03083 	lsl	r3, r3, #1
    c02c:	e1822003 	orr	r2, r2, r3
    c030:	e55b3007 	ldrb	r3, [fp, #-7]
    c034:	e1a03103 	lsl	r3, r3, #2
    c038:	e1822003 	orr	r2, r2, r3
    c03c:	e51b3018 	ldr	r3, [fp, #-24]	; 0xffffffe8
    c040:	e5832054 	str	r2, [r3, #84]	; 0x54
    c044:	e55b2008 	ldrb	r2, [fp, #-8]
    c048:	e55b3009 	ldrb	r3, [fp, #-9]
    c04c:	e1a03083 	lsl	r3, r3, #1
    c050:	e1822003 	orr	r2, r2, r3
    c054:	e55b300a 	ldrb	r3, [fp, #-10]
    c058:	e1a03103 	lsl	r3, r3, #2
    c05c:	e1822003 	orr	r2, r2, r3
    c060:	e51b3018 	ldr	r3, [fp, #-24]	; 0xffffffe8
    c064:	e5832044 	str	r2, [r3, #68]	; 0x44
    c068:	e55b200b 	ldrb	r2, [fp, #-11]
    c06c:	e55b300c 	ldrb	r3, [fp, #-12]
    c070:	e1a03083 	lsl	r3, r3, #1
    c074:	e1822003 	orr	r2, r2, r3
    c078:	e55b300d 	ldrb	r3, [fp, #-13]
    c07c:	e1a03103 	lsl	r3, r3, #2
    c080:	e1822003 	orr	r2, r2, r3
    c084:	e51b3018 	ldr	r3, [fp, #-24]	; 0xffffffe8
    c088:	e5832048 	str	r2, [r3, #72]	; 0x48
    c08c:	e51b3018 	ldr	r3, [fp, #-24]	; 0xffffffe8
    c090:	e3a02000 	mov	r2, #0
    c094:	e583204c 	str	r2, [r3, #76]	; 0x4c
    c098:	e51b3018 	ldr	r3, [fp, #-24]	; 0xffffffe8
    c09c:	e3a02000 	mov	r2, #0
    c0a0:	e5832050 	str	r2, [r3, #80]	; 0x50
    c0a4:	e51b3020 	ldr	r3, [fp, #-32]	; 0xffffffe0
    c0a8:	e5933008 	ldr	r3, [r3, #8]
    c0ac:	e3730001 	cmn	r3, #1
    c0b0:	0a000005 	beq	c0cc <TimerP_dmTimerInitObj+0x118>
    c0b4:	e51b3020 	ldr	r3, [fp, #-32]	; 0xffffffe0
    c0b8:	e5933008 	ldr	r3, [r3, #8]
    c0bc:	e1a02003 	mov	r2, r3
    c0c0:	e51b3018 	ldr	r3, [fp, #-24]	; 0xffffffe8
    c0c4:	e583200c 	str	r2, [r3, #12]
    c0c8:	ea000011 	b	c114 <TimerP_dmTimerInitObj+0x160>
    c0cc:	e51b3020 	ldr	r3, [fp, #-32]	; 0xffffffe0
    c0d0:	e5933010 	ldr	r3, [r3, #16]
    c0d4:	e3730001 	cmn	r3, #1
    c0d8:	0a000005 	beq	c0f4 <TimerP_dmTimerInitObj+0x140>
    c0dc:	e51b3020 	ldr	r3, [fp, #-32]	; 0xffffffe0
    c0e0:	e5933010 	ldr	r3, [r3, #16]
    c0e4:	e1a02003 	mov	r2, r3
    c0e8:	e51b3018 	ldr	r3, [fp, #-24]	; 0xffffffe8
    c0ec:	e583200c 	str	r2, [r3, #12]
    c0f0:	ea000007 	b	c114 <TimerP_dmTimerInitObj+0x160>
    c0f4:	e51b3018 	ldr	r3, [fp, #-24]	; 0xffffffe8
    c0f8:	e5933004 	ldr	r3, [r3, #4]
    c0fc:	e1a00003 	mov	r0, r3
    c100:	ebfffd96 	bl	b760 <TimerP_getDefaultFreqLo>
    c104:	e1a03000 	mov	r3, r0
    c108:	e1a02003 	mov	r2, r3
    c10c:	e51b3018 	ldr	r3, [fp, #-24]	; 0xffffffe8
    c110:	e583200c 	str	r2, [r3, #12]
    c114:	e51b3020 	ldr	r3, [fp, #-32]	; 0xffffffe0
    c118:	e593300c 	ldr	r3, [r3, #12]
    c11c:	e3730001 	cmn	r3, #1
    c120:	0a000005 	beq	c13c <TimerP_dmTimerInitObj+0x188>
    c124:	e51b3020 	ldr	r3, [fp, #-32]	; 0xffffffe0
    c128:	e593300c 	ldr	r3, [r3, #12]
    c12c:	e1a02003 	mov	r2, r3
    c130:	e51b3018 	ldr	r3, [fp, #-24]	; 0xffffffe8
    c134:	e5832010 	str	r2, [r3, #16]
    c138:	ea000011 	b	c184 <TimerP_dmTimerInitObj+0x1d0>
    c13c:	e51b3020 	ldr	r3, [fp, #-32]	; 0xffffffe0
    c140:	e5933014 	ldr	r3, [r3, #20]
    c144:	e3730001 	cmn	r3, #1
    c148:	0a000005 	beq	c164 <TimerP_dmTimerInitObj+0x1b0>
    c14c:	e51b3020 	ldr	r3, [fp, #-32]	; 0xffffffe0
    c150:	e5933014 	ldr	r3, [r3, #20]
    c154:	e1a02003 	mov	r2, r3
    c158:	e51b3018 	ldr	r3, [fp, #-24]	; 0xffffffe8
    c15c:	e5832010 	str	r2, [r3, #16]
    c160:	ea000007 	b	c184 <TimerP_dmTimerInitObj+0x1d0>
    c164:	e51b3018 	ldr	r3, [fp, #-24]	; 0xffffffe8
    c168:	e5933004 	ldr	r3, [r3, #4]
    c16c:	e1a00003 	mov	r0, r3
    c170:	ebfffd85 	bl	b78c <TimerP_getDefaultFreqHi>
    c174:	e1a03000 	mov	r3, r0
    c178:	e1a02003 	mov	r2, r3
    c17c:	e51b3018 	ldr	r3, [fp, #-24]	; 0xffffffe8
    c180:	e5832010 	str	r2, [r3, #16]
    c184:	e51b3020 	ldr	r3, [fp, #-32]	; 0xffffffe0
    c188:	e5933020 	ldr	r3, [r3, #32]
    c18c:	e3530000 	cmp	r3, #0
    c190:	0a000004 	beq	c1a8 <TimerP_dmTimerInitObj+0x1f4>
    c194:	e51b3020 	ldr	r3, [fp, #-32]	; 0xffffffe0
    c198:	e5932020 	ldr	r2, [r3, #32]
    c19c:	e51b3018 	ldr	r3, [fp, #-24]	; 0xffffffe8
    c1a0:	e583201c 	str	r2, [r3, #28]
    c1a4:	ea000002 	b	c1b4 <TimerP_dmTimerInitObj+0x200>
    c1a8:	e51b3018 	ldr	r3, [fp, #-24]	; 0xffffffe8
    c1ac:	e3a02000 	mov	r2, #0
    c1b0:	e583201c 	str	r2, [r3, #28]
    c1b4:	e51b3020 	ldr	r3, [fp, #-32]	; 0xffffffe0
    c1b8:	e593302c 	ldr	r3, [r3, #44]	; 0x2c
    c1bc:	e3530000 	cmp	r3, #0
    c1c0:	0a000003 	beq	c1d4 <TimerP_dmTimerInitObj+0x220>
    c1c4:	e51b3020 	ldr	r3, [fp, #-32]	; 0xffffffe0
    c1c8:	e593202c 	ldr	r2, [r3, #44]	; 0x2c
    c1cc:	e51b3018 	ldr	r3, [fp, #-24]	; 0xffffffe8
    c1d0:	e5832024 	str	r2, [r3, #36]	; 0x24
    c1d4:	e51b3020 	ldr	r3, [fp, #-32]	; 0xffffffe0
    c1d8:	e5933028 	ldr	r3, [r3, #40]	; 0x28
    c1dc:	e3730001 	cmn	r3, #1
    c1e0:	0a000004 	beq	c1f8 <TimerP_dmTimerInitObj+0x244>
    c1e4:	e51b3020 	ldr	r3, [fp, #-32]	; 0xffffffe0
    c1e8:	e5932028 	ldr	r2, [r3, #40]	; 0x28
    c1ec:	e51b3018 	ldr	r3, [fp, #-24]	; 0xffffffe8
    c1f0:	e5832030 	str	r2, [r3, #48]	; 0x30
    c1f4:	ea000008 	b	c21c <TimerP_dmTimerInitObj+0x268>
    c1f8:	e51b3018 	ldr	r3, [fp, #-24]	; 0xffffffe8
    c1fc:	e5933004 	ldr	r3, [r3, #4]
    c200:	e30d2d1c 	movw	r2, #56604	; 0xdd1c
    c204:	e3402001 	movt	r2, #1
    c208:	e1a03203 	lsl	r3, r3, #4
    c20c:	e0823003 	add	r3, r2, r3
    c210:	e5932008 	ldr	r2, [r3, #8]
    c214:	e51b3018 	ldr	r3, [fp, #-24]	; 0xffffffe8
    c218:	e5832030 	str	r2, [r3, #48]	; 0x30
    c21c:	e51b3020 	ldr	r3, [fp, #-32]	; 0xffffffe0
    c220:	e5932004 	ldr	r2, [r3, #4]
    c224:	e51b3018 	ldr	r3, [fp, #-24]	; 0xffffffe8
    c228:	e5832008 	str	r2, [r3, #8]
    c22c:	e51b3020 	ldr	r3, [fp, #-32]	; 0xffffffe0
    c230:	e5932018 	ldr	r2, [r3, #24]
    c234:	e51b3018 	ldr	r3, [fp, #-24]	; 0xffffffe8
    c238:	e5832014 	str	r2, [r3, #20]
    c23c:	e51b3020 	ldr	r3, [fp, #-32]	; 0xffffffe0
    c240:	e593201c 	ldr	r2, [r3, #28]
    c244:	e51b3018 	ldr	r3, [fp, #-24]	; 0xffffffe8
    c248:	e5832018 	str	r2, [r3, #24]
    c24c:	e3a03000 	mov	r3, #0
    c250:	e1a00003 	mov	r0, r3
    c254:	e24bd004 	sub	sp, fp, #4
    c258:	e8bd8800 	pop	{fp, pc}

0000c25c <TimerP_dmTimerInstanceInit>:
    c25c:	e92d4800 	push	{fp, lr}
    c260:	e28db004 	add	fp, sp, #4
    c264:	e24dd060 	sub	sp, sp, #96	; 0x60
    c268:	e50b0058 	str	r0, [fp, #-88]	; 0xffffffa8
    c26c:	e50b105c 	str	r1, [fp, #-92]	; 0xffffffa4
    c270:	e50b2060 	str	r2, [fp, #-96]	; 0xffffffa0
    c274:	e50b3064 	str	r3, [fp, #-100]	; 0xffffff9c
    c278:	e3a03000 	mov	r3, #0
    c27c:	e54b3005 	strb	r3, [fp, #-5]
    c280:	e30f3fff 	movw	r3, #65535	; 0xffff
    c284:	e50b3010 	str	r3, [fp, #-16]
    c288:	e3a0303f 	mov	r3, #63	; 0x3f
    c28c:	e50b3014 	str	r3, [fp, #-20]	; 0xffffffec
    c290:	e51b305c 	ldr	r3, [fp, #-92]	; 0xffffffa4
    c294:	e3530005 	cmp	r3, #5
    c298:	9a000001 	bls	c2a4 <TimerP_dmTimerInstanceInit+0x48>
    c29c:	e3e03000 	mvn	r3, #0
    c2a0:	e54b3005 	strb	r3, [fp, #-5]
    c2a4:	e51b3058 	ldr	r3, [fp, #-88]	; 0xffffffa8
    c2a8:	e5933004 	ldr	r3, [r3, #4]
    c2ac:	e1a00003 	mov	r0, r3
    c2b0:	ebfffd58 	bl	b818 <TimerP_getTimerBaseAddr>
    c2b4:	e50b0018 	str	r0, [fp, #-24]	; 0xffffffe8
    c2b8:	e51b3018 	ldr	r3, [fp, #-24]	; 0xffffffe8
    c2bc:	e3530000 	cmp	r3, #0
    c2c0:	1a000001 	bne	c2cc <TimerP_dmTimerInstanceInit+0x70>
    c2c4:	e3e03001 	mvn	r3, #1
    c2c8:	ea00008e 	b	c508 <TimerP_dmTimerInstanceInit+0x2ac>
    c2cc:	e51b3058 	ldr	r3, [fp, #-88]	; 0xffffffa8
    c2d0:	e3a0203f 	mov	r2, #63	; 0x3f
    c2d4:	e5832028 	str	r2, [r3, #40]	; 0x28
    c2d8:	e15b30d5 	ldrsb	r3, [fp, #-5]
    c2dc:	e3530000 	cmp	r3, #0
    c2e0:	1a000046 	bne	c400 <TimerP_dmTimerInstanceInit+0x1a4>
    c2e4:	ebfff525 	bl	9780 <HwiP_disable>
    c2e8:	e50b001c 	str	r0, [fp, #-28]	; 0xffffffe4
    c2ec:	e51b305c 	ldr	r3, [fp, #-92]	; 0xffffffa4
    c2f0:	e3730001 	cmn	r3, #1
    c2f4:	1a000023 	bne	c388 <TimerP_dmTimerInstanceInit+0x12c>
    c2f8:	e3a03000 	mov	r3, #0
    c2fc:	e50b300c 	str	r3, [fp, #-12]
    c300:	ea00001d 	b	c37c <TimerP_dmTimerInstanceInit+0x120>
    c304:	e3a02001 	mov	r2, #1
    c308:	e51b300c 	ldr	r3, [fp, #-12]
    c30c:	e1a03312 	lsl	r3, r2, r3
    c310:	e50b3020 	str	r3, [fp, #-32]	; 0xffffffe0
    c314:	e51b3020 	ldr	r3, [fp, #-32]	; 0xffffffe0
    c318:	e1e03003 	mvn	r3, r3
    c31c:	e50b3024 	str	r3, [fp, #-36]	; 0xffffffdc
    c320:	e51b2014 	ldr	r2, [fp, #-20]	; 0xffffffec
    c324:	e51b3020 	ldr	r3, [fp, #-32]	; 0xffffffe0
    c328:	e0033002 	and	r3, r3, r2
    c32c:	e3530000 	cmp	r3, #0
    c330:	0a00000e 	beq	c370 <TimerP_dmTimerInstanceInit+0x114>
    c334:	e51b3058 	ldr	r3, [fp, #-88]	; 0xffffffa8
    c338:	e5932028 	ldr	r2, [r3, #40]	; 0x28
    c33c:	e51b3020 	ldr	r3, [fp, #-32]	; 0xffffffe0
    c340:	e0033002 	and	r3, r3, r2
    c344:	e3530000 	cmp	r3, #0
    c348:	0a000008 	beq	c370 <TimerP_dmTimerInstanceInit+0x114>
    c34c:	e51b3058 	ldr	r3, [fp, #-88]	; 0xffffffa8
    c350:	e5932028 	ldr	r2, [r3, #40]	; 0x28
    c354:	e51b3024 	ldr	r3, [fp, #-36]	; 0xffffffdc
    c358:	e0022003 	and	r2, r2, r3
    c35c:	e51b3058 	ldr	r3, [fp, #-88]	; 0xffffffa8
    c360:	e5832028 	str	r2, [r3, #40]	; 0x28
    c364:	e51b300c 	ldr	r3, [fp, #-12]
    c368:	e50b3010 	str	r3, [fp, #-16]
    c36c:	ea000005 	b	c388 <TimerP_dmTimerInstanceInit+0x12c>
    c370:	e51b300c 	ldr	r3, [fp, #-12]
    c374:	e2833001 	add	r3, r3, #1
    c378:	e50b300c 	str	r3, [fp, #-12]
    c37c:	e51b300c 	ldr	r3, [fp, #-12]
    c380:	e3530005 	cmp	r3, #5
    c384:	9affffde 	bls	c304 <TimerP_dmTimerInstanceInit+0xa8>
    c388:	e51b3058 	ldr	r3, [fp, #-88]	; 0xffffffa8
    c38c:	e5932028 	ldr	r2, [r3, #40]	; 0x28
    c390:	e51b305c 	ldr	r3, [fp, #-92]	; 0xffffffa4
    c394:	e1a03332 	lsr	r3, r2, r3
    c398:	e2033001 	and	r3, r3, #1
    c39c:	e3530000 	cmp	r3, #0
    c3a0:	0a00000e 	beq	c3e0 <TimerP_dmTimerInstanceInit+0x184>
    c3a4:	e3a02001 	mov	r2, #1
    c3a8:	e51b305c 	ldr	r3, [fp, #-92]	; 0xffffffa4
    c3ac:	e1a03312 	lsl	r3, r2, r3
    c3b0:	e50b3028 	str	r3, [fp, #-40]	; 0xffffffd8
    c3b4:	e51b3028 	ldr	r3, [fp, #-40]	; 0xffffffd8
    c3b8:	e1e03003 	mvn	r3, r3
    c3bc:	e50b302c 	str	r3, [fp, #-44]	; 0xffffffd4
    c3c0:	e51b3058 	ldr	r3, [fp, #-88]	; 0xffffffa8
    c3c4:	e5932028 	ldr	r2, [r3, #40]	; 0x28
    c3c8:	e51b302c 	ldr	r3, [fp, #-44]	; 0xffffffd4
    c3cc:	e0022003 	and	r2, r2, r3
    c3d0:	e51b3058 	ldr	r3, [fp, #-88]	; 0xffffffa8
    c3d4:	e5832028 	str	r2, [r3, #40]	; 0x28
    c3d8:	e51b305c 	ldr	r3, [fp, #-92]	; 0xffffffa4
    c3dc:	e50b3010 	str	r3, [fp, #-16]
    c3e0:	e51b001c 	ldr	r0, [fp, #-28]	; 0xffffffe4
    c3e4:	ebfff51f 	bl	9868 <HwiP_restore>
    c3e8:	e51b3010 	ldr	r3, [fp, #-16]
    c3ec:	e30f2fff 	movw	r2, #65535	; 0xffff
    c3f0:	e1530002 	cmp	r3, r2
    c3f4:	1a000001 	bne	c400 <TimerP_dmTimerInstanceInit+0x1a4>
    c3f8:	e3e03001 	mvn	r3, #1
    c3fc:	e54b3005 	strb	r3, [fp, #-5]
    c400:	e15b30d5 	ldrsb	r3, [fp, #-5]
    c404:	e3530000 	cmp	r3, #0
    c408:	1a000005 	bne	c424 <TimerP_dmTimerInstanceInit+0x1c8>
    c40c:	e51b2064 	ldr	r2, [fp, #-100]	; 0xffffff9c
    c410:	e51b1060 	ldr	r1, [fp, #-96]	; 0xffffffa0
    c414:	e51b0058 	ldr	r0, [fp, #-88]	; 0xffffffa8
    c418:	ebfffee5 	bl	bfb4 <TimerP_dmTimerInitObj>
    c41c:	e1a03000 	mov	r3, r0
    c420:	e54b3005 	strb	r3, [fp, #-5]
    c424:	e15b30d5 	ldrsb	r3, [fp, #-5]
    c428:	e3530000 	cmp	r3, #0
    c42c:	1a000026 	bne	c4cc <TimerP_dmTimerInstanceInit+0x270>
    c430:	e51b3058 	ldr	r3, [fp, #-88]	; 0xffffffa8
    c434:	e5933020 	ldr	r3, [r3, #32]
    c438:	e3530000 	cmp	r3, #0
    c43c:	0a00001f 	beq	c4c0 <TimerP_dmTimerInstanceInit+0x264>
    c440:	e51b3058 	ldr	r3, [fp, #-88]	; 0xffffffa8
    c444:	e5933030 	ldr	r3, [r3, #48]	; 0x30
    c448:	e50b3030 	str	r3, [fp, #-48]	; 0xffffffd0
    c44c:	e24b3054 	sub	r3, fp, #84	; 0x54
    c450:	e1a00003 	mov	r0, r3
    c454:	ebfff7e1 	bl	a3e0 <Osal_RegisterInterrupt_initParams>
    c458:	e51b3058 	ldr	r3, [fp, #-88]	; 0xffffffa8
    c45c:	e50b3044 	str	r3, [fp, #-68]	; 0xffffffbc
    c460:	e3a03000 	mov	r3, #0
    c464:	e50b3054 	str	r3, [fp, #-84]	; 0xffffffac
    c468:	e30b3870 	movw	r3, #47216	; 0xb870
    c46c:	e3403000 	movt	r3, #0
    c470:	e50b3048 	str	r3, [fp, #-72]	; 0xffffffb8
    c474:	e3a03003 	mov	r3, #3
    c478:	e50b303c 	str	r3, [fp, #-60]	; 0xffffffc4
    c47c:	e3a03020 	mov	r3, #32
    c480:	e50b3040 	str	r3, [fp, #-64]	; 0xffffffc0
    c484:	e51b3030 	ldr	r3, [fp, #-48]	; 0xffffffd0
    c488:	e50b304c 	str	r3, [fp, #-76]	; 0xffffffb4
    c48c:	e51b3058 	ldr	r3, [fp, #-88]	; 0xffffffa8
    c490:	e283202c 	add	r2, r3, #44	; 0x2c
    c494:	e24b3054 	sub	r3, fp, #84	; 0x54
    c498:	e1a01002 	mov	r1, r2
    c49c:	e1a00003 	mov	r0, r3
    c4a0:	ebfff7f5 	bl	a47c <Osal_RegisterInterrupt>
    c4a4:	e51b3058 	ldr	r3, [fp, #-88]	; 0xffffffa8
    c4a8:	e593302c 	ldr	r3, [r3, #44]	; 0x2c
    c4ac:	e3530000 	cmp	r3, #0
    c4b0:	1a000005 	bne	c4cc <TimerP_dmTimerInstanceInit+0x270>
    c4b4:	e3e03003 	mvn	r3, #3
    c4b8:	e54b3005 	strb	r3, [fp, #-5]
    c4bc:	ea000002 	b	c4cc <TimerP_dmTimerInstanceInit+0x270>
    c4c0:	e51b3058 	ldr	r3, [fp, #-88]	; 0xffffffa8
    c4c4:	e3a02000 	mov	r2, #0
    c4c8:	e583202c 	str	r2, [r3, #44]	; 0x2c
    c4cc:	e15b30d5 	ldrsb	r3, [fp, #-5]
    c4d0:	e3530000 	cmp	r3, #0
    c4d4:	1a00000a 	bne	c504 <TimerP_dmTimerInstanceInit+0x2a8>
    c4d8:	e51b1018 	ldr	r1, [fp, #-24]	; 0xffffffe8
    c4dc:	e51b0058 	ldr	r0, [fp, #-88]	; 0xffffffa8
    c4e0:	ebfffdda 	bl	bc50 <TimerP_dmTimerDeviceCfg>
    c4e4:	e1a03000 	mov	r3, r0
    c4e8:	e54b3005 	strb	r3, [fp, #-5]
    c4ec:	e51b3058 	ldr	r3, [fp, #-88]	; 0xffffffa8
    c4f0:	e5933014 	ldr	r3, [r3, #20]
    c4f4:	e3530000 	cmp	r3, #0
    c4f8:	1a000001 	bne	c504 <TimerP_dmTimerInstanceInit+0x2a8>
    c4fc:	e51b0058 	ldr	r0, [fp, #-88]	; 0xffffffa8
    c500:	eb000105 	bl	c91c <TimerP_start>
    c504:	e15b30d5 	ldrsb	r3, [fp, #-5]
    c508:	e1a00003 	mov	r0, r3
    c50c:	e24bd004 	sub	sp, fp, #4
    c510:	e8bd8800 	pop	{fp, pc}

0000c514 <TimerP_Params_init>:
    c514:	e92d4800 	push	{fp, lr}
    c518:	e28db004 	add	fp, sp, #4
    c51c:	e24dd008 	sub	sp, sp, #8
    c520:	e50b0008 	str	r0, [fp, #-8]
    c524:	e51b3008 	ldr	r3, [fp, #-8]
    c528:	e3530000 	cmp	r3, #0
    c52c:	03a03001 	moveq	r3, #1
    c530:	13a03000 	movne	r3, #0
    c534:	e6ef3073 	uxtb	r3, r3
    c538:	e300224b 	movw	r2, #587	; 0x24b
    c53c:	e30d19d8 	movw	r1, #55768	; 0xd9d8
    c540:	e3401000 	movt	r1, #0
    c544:	e1a00003 	mov	r0, r3
    c548:	eb0001a6 	bl	cbe8 <_DebugP_assert>
    c54c:	e51b3008 	ldr	r3, [fp, #-8]
    c550:	e3a02000 	mov	r2, #0
    c554:	e583202c 	str	r2, [r3, #44]	; 0x2c
    c558:	e51b3008 	ldr	r3, [fp, #-8]
    c55c:	e3e02000 	mvn	r2, #0
    c560:	e583200c 	str	r2, [r3, #12]
    c564:	e51b3008 	ldr	r3, [fp, #-8]
    c568:	e3e02000 	mvn	r2, #0
    c56c:	e5832008 	str	r2, [r3, #8]
    c570:	e51b3008 	ldr	r3, [fp, #-8]
    c574:	e3e02000 	mvn	r2, #0
    c578:	e5832014 	str	r2, [r3, #20]
    c57c:	e51b3008 	ldr	r3, [fp, #-8]
    c580:	e3e02000 	mvn	r2, #0
    c584:	e5832010 	str	r2, [r3, #16]
    c588:	e51b3008 	ldr	r3, [fp, #-8]
    c58c:	e3a02000 	mov	r2, #0
    c590:	e5832000 	str	r2, [r3]
    c594:	e51b3008 	ldr	r3, [fp, #-8]
    c598:	e3a02000 	mov	r2, #0
    c59c:	e5832020 	str	r2, [r3, #32]
    c5a0:	e51b3008 	ldr	r3, [fp, #-8]
    c5a4:	e3a02000 	mov	r2, #0
    c5a8:	e583201c 	str	r2, [r3, #28]
    c5ac:	e51b3008 	ldr	r3, [fp, #-8]
    c5b0:	e3a02000 	mov	r2, #0
    c5b4:	e5832018 	str	r2, [r3, #24]
    c5b8:	e51b3008 	ldr	r3, [fp, #-8]
    c5bc:	e3a02000 	mov	r2, #0
    c5c0:	e5832004 	str	r2, [r3, #4]
    c5c4:	e51b3008 	ldr	r3, [fp, #-8]
    c5c8:	e3e02000 	mvn	r2, #0
    c5cc:	e5832028 	str	r2, [r3, #40]	; 0x28
    c5d0:	e320f000 	nop	{0}
    c5d4:	e24bd004 	sub	sp, fp, #4
    c5d8:	e8bd8800 	pop	{fp, pc}

0000c5dc <TimerP_create>:
    c5dc:	e92d4800 	push	{fp, lr}
    c5e0:	e28db004 	add	fp, sp, #4
    c5e4:	e24dd050 	sub	sp, sp, #80	; 0x50
    c5e8:	e50b0048 	str	r0, [fp, #-72]	; 0xffffffb8
    c5ec:	e50b104c 	str	r1, [fp, #-76]	; 0xffffffb4
    c5f0:	e50b2050 	str	r2, [fp, #-80]	; 0xffffffb0
    c5f4:	e51b3050 	ldr	r3, [fp, #-80]	; 0xffffffb0
    c5f8:	e3530000 	cmp	r3, #0
    c5fc:	0a000002 	beq	c60c <TimerP_create+0x30>
    c600:	e51b3050 	ldr	r3, [fp, #-80]	; 0xffffffb0
    c604:	e50b3010 	str	r3, [fp, #-16]
    c608:	ea000003 	b	c61c <TimerP_create+0x40>
    c60c:	e24b3044 	sub	r3, fp, #68	; 0x44
    c610:	e50b3010 	str	r3, [fp, #-16]
    c614:	e51b0010 	ldr	r0, [fp, #-16]
    c618:	ebffffbd 	bl	c514 <TimerP_Params_init>
    c61c:	ebfff457 	bl	9780 <HwiP_disable>
    c620:	e50b0014 	str	r0, [fp, #-20]	; 0xffffffec
    c624:	e3a03000 	mov	r3, #0
    c628:	e50b3008 	str	r3, [fp, #-8]
    c62c:	ea000037 	b	c710 <TimerP_create+0x134>
    c630:	e3083000 	movw	r3, #32768	; 0x8000
    c634:	e3403002 	movt	r3, #2
    c638:	e51b2008 	ldr	r2, [fp, #-8]
    c63c:	e3a01058 	mov	r1, #88	; 0x58
    c640:	e0020291 	mul	r2, r1, r2
    c644:	e0833002 	add	r3, r3, r2
    c648:	e5d33000 	ldrb	r3, [r3]
    c64c:	e2233001 	eor	r3, r3, #1
    c650:	e6ef3073 	uxtb	r3, r3
    c654:	e3530000 	cmp	r3, #0
    c658:	0a000029 	beq	c704 <TimerP_create+0x128>
    c65c:	e3083000 	movw	r3, #32768	; 0x8000
    c660:	e3403002 	movt	r3, #2
    c664:	e51b2008 	ldr	r2, [fp, #-8]
    c668:	e3a01058 	mov	r1, #88	; 0x58
    c66c:	e0020291 	mul	r2, r1, r2
    c670:	e0833002 	add	r3, r3, r2
    c674:	e3a02001 	mov	r2, #1
    c678:	e5c32000 	strb	r2, [r3]
    c67c:	e30034b4 	movw	r3, #1204	; 0x4b4
    c680:	e3403002 	movt	r3, #2
    c684:	e5933000 	ldr	r3, [r3]
    c688:	e2832001 	add	r2, r3, #1
    c68c:	e30034b4 	movw	r3, #1204	; 0x4b4
    c690:	e3403002 	movt	r3, #2
    c694:	e5832000 	str	r2, [r3]
    c698:	e30034b4 	movw	r3, #1204	; 0x4b4
    c69c:	e3403002 	movt	r3, #2
    c6a0:	e5932000 	ldr	r2, [r3]
    c6a4:	e30034b8 	movw	r3, #1208	; 0x4b8
    c6a8:	e3403002 	movt	r3, #2
    c6ac:	e5933000 	ldr	r3, [r3]
    c6b0:	e1520003 	cmp	r2, r3
    c6b4:	9a000005 	bls	c6d0 <TimerP_create+0xf4>
    c6b8:	e30034b4 	movw	r3, #1204	; 0x4b4
    c6bc:	e3403002 	movt	r3, #2
    c6c0:	e5932000 	ldr	r2, [r3]
    c6c4:	e30034b8 	movw	r3, #1208	; 0x4b8
    c6c8:	e3403002 	movt	r3, #2
    c6cc:	e5832000 	str	r2, [r3]
    c6d0:	e51b3010 	ldr	r3, [fp, #-16]
    c6d4:	e3530000 	cmp	r3, #0
    c6d8:	0a000010 	beq	c720 <TimerP_create+0x144>
    c6dc:	e51b2048 	ldr	r2, [fp, #-72]	; 0xffffffb8
    c6e0:	e3083000 	movw	r3, #32768	; 0x8000
    c6e4:	e3403002 	movt	r3, #2
    c6e8:	e51b1008 	ldr	r1, [fp, #-8]
    c6ec:	e3a00058 	mov	r0, #88	; 0x58
    c6f0:	e0010190 	mul	r1, r0, r1
    c6f4:	e0833001 	add	r3, r3, r1
    c6f8:	e2833004 	add	r3, r3, #4
    c6fc:	e5832000 	str	r2, [r3]
    c700:	ea000006 	b	c720 <TimerP_create+0x144>
    c704:	e51b3008 	ldr	r3, [fp, #-8]
    c708:	e2833001 	add	r3, r3, #1
    c70c:	e50b3008 	str	r3, [fp, #-8]
    c710:	e51b3008 	ldr	r3, [fp, #-8]
    c714:	e3530005 	cmp	r3, #5
    c718:	9affffc4 	bls	c630 <TimerP_create+0x54>
    c71c:	ea000000 	b	c724 <TimerP_create+0x148>
    c720:	e320f000 	nop	{0}
    c724:	e51b0014 	ldr	r0, [fp, #-20]	; 0xffffffec
    c728:	ebfff44e 	bl	9868 <HwiP_restore>
    c72c:	e51b3008 	ldr	r3, [fp, #-8]
    c730:	e3530006 	cmp	r3, #6
    c734:	1a000002 	bne	c744 <TimerP_create+0x168>
    c738:	e3a03000 	mov	r3, #0
    c73c:	e50b300c 	str	r3, [fp, #-12]
    c740:	ea000006 	b	c760 <TimerP_create+0x184>
    c744:	e51b3008 	ldr	r3, [fp, #-8]
    c748:	e3a02058 	mov	r2, #88	; 0x58
    c74c:	e0020392 	mul	r2, r2, r3
    c750:	e3083000 	movw	r3, #32768	; 0x8000
    c754:	e3403002 	movt	r3, #2
    c758:	e0823003 	add	r3, r2, r3
    c75c:	e50b300c 	str	r3, [fp, #-12]
    c760:	e51b300c 	ldr	r3, [fp, #-12]
    c764:	e3530000 	cmp	r3, #0
    c768:	0a000016 	beq	c7c8 <TimerP_create+0x1ec>
    c76c:	e51b3008 	ldr	r3, [fp, #-8]
    c770:	e3a02058 	mov	r2, #88	; 0x58
    c774:	e0020392 	mul	r2, r2, r3
    c778:	e3083000 	movw	r3, #32768	; 0x8000
    c77c:	e3403002 	movt	r3, #2
    c780:	e0820003 	add	r0, r2, r3
    c784:	e51b1048 	ldr	r1, [fp, #-72]	; 0xffffffb8
    c788:	e51b3010 	ldr	r3, [fp, #-16]
    c78c:	e51b204c 	ldr	r2, [fp, #-76]	; 0xffffffb4
    c790:	ebfffeb1 	bl	c25c <TimerP_dmTimerInstanceInit>
    c794:	e1a03000 	mov	r3, r0
    c798:	e3530000 	cmp	r3, #0
    c79c:	0a000009 	beq	c7c8 <TimerP_create+0x1ec>
    c7a0:	e3083000 	movw	r3, #32768	; 0x8000
    c7a4:	e3403002 	movt	r3, #2
    c7a8:	e51b2008 	ldr	r2, [fp, #-8]
    c7ac:	e3a01058 	mov	r1, #88	; 0x58
    c7b0:	e0020291 	mul	r2, r1, r2
    c7b4:	e0833002 	add	r3, r3, r2
    c7b8:	e3a02000 	mov	r2, #0
    c7bc:	e5c32000 	strb	r2, [r3]
    c7c0:	e3a03000 	mov	r3, #0
    c7c4:	e50b300c 	str	r3, [fp, #-12]
    c7c8:	e51b3010 	ldr	r3, [fp, #-16]
    c7cc:	e5933018 	ldr	r3, [r3, #24]
    c7d0:	e3530000 	cmp	r3, #0
    c7d4:	1a000017 	bne	c838 <TimerP_create+0x25c>
    c7d8:	e51b300c 	ldr	r3, [fp, #-12]
    c7dc:	e3530000 	cmp	r3, #0
    c7e0:	0a000014 	beq	c838 <TimerP_create+0x25c>
    c7e4:	e51b3008 	ldr	r3, [fp, #-8]
    c7e8:	e3a02058 	mov	r2, #88	; 0x58
    c7ec:	e0020392 	mul	r2, r2, r3
    c7f0:	e3083000 	movw	r3, #32768	; 0x8000
    c7f4:	e3403002 	movt	r3, #2
    c7f8:	e0823003 	add	r3, r2, r3
    c7fc:	e1a00003 	mov	r0, r3
    c800:	eb000045 	bl	c91c <TimerP_start>
    c804:	e1a03000 	mov	r3, r0
    c808:	e3530000 	cmp	r3, #0
    c80c:	0a000009 	beq	c838 <TimerP_create+0x25c>
    c810:	e3083000 	movw	r3, #32768	; 0x8000
    c814:	e3403002 	movt	r3, #2
    c818:	e51b2008 	ldr	r2, [fp, #-8]
    c81c:	e3a01058 	mov	r1, #88	; 0x58
    c820:	e0020291 	mul	r2, r1, r2
    c824:	e0833002 	add	r3, r3, r2
    c828:	e3a02000 	mov	r2, #0
    c82c:	e5c32000 	strb	r2, [r3]
    c830:	e3a03000 	mov	r3, #0
    c834:	e50b300c 	str	r3, [fp, #-12]
    c838:	e51b300c 	ldr	r3, [fp, #-12]
    c83c:	e1a00003 	mov	r0, r3
    c840:	e24bd004 	sub	sp, fp, #4
    c844:	e8bd8800 	pop	{fp, pc}

0000c848 <TimerP_delete>:
    c848:	e92d4800 	push	{fp, lr}
    c84c:	e28db004 	add	fp, sp, #4
    c850:	e24dd018 	sub	sp, sp, #24
    c854:	e50b0018 	str	r0, [fp, #-24]	; 0xffffffe8
    c858:	e51b2018 	ldr	r2, [fp, #-24]	; 0xffffffe8
    c85c:	e3083000 	movw	r3, #32768	; 0x8000
    c860:	e3403002 	movt	r3, #2
    c864:	e0423003 	sub	r3, r2, r3
    c868:	e50b3008 	str	r3, [fp, #-8]
    c86c:	e51b3018 	ldr	r3, [fp, #-24]	; 0xffffffe8
    c870:	e50b300c 	str	r3, [fp, #-12]
    c874:	e51b3018 	ldr	r3, [fp, #-24]	; 0xffffffe8
    c878:	e3530000 	cmp	r3, #0
    c87c:	03a03001 	moveq	r3, #1
    c880:	13a03000 	movne	r3, #0
    c884:	e6ef3073 	uxtb	r3, r3
    c888:	e30022be 	movw	r2, #702	; 0x2be
    c88c:	e30d19d8 	movw	r1, #55768	; 0xd9d8
    c890:	e3401000 	movt	r1, #0
    c894:	e1a00003 	mov	r0, r3
    c898:	eb0000d2 	bl	cbe8 <_DebugP_assert>
    c89c:	e51b300c 	ldr	r3, [fp, #-12]
    c8a0:	e593302c 	ldr	r3, [r3, #44]	; 0x2c
    c8a4:	e1a00003 	mov	r0, r3
    c8a8:	ebfff38f 	bl	96ec <HwiP_delete>
    c8ac:	ebfff3b3 	bl	9780 <HwiP_disable>
    c8b0:	e50b0010 	str	r0, [fp, #-16]
    c8b4:	e3083000 	movw	r3, #32768	; 0x8000
    c8b8:	e3403002 	movt	r3, #2
    c8bc:	e51b2008 	ldr	r2, [fp, #-8]
    c8c0:	e3a01058 	mov	r1, #88	; 0x58
    c8c4:	e0020291 	mul	r2, r1, r2
    c8c8:	e0833002 	add	r3, r3, r2
    c8cc:	e3a02000 	mov	r2, #0
    c8d0:	e5c32000 	strb	r2, [r3]
    c8d4:	e30034b4 	movw	r3, #1204	; 0x4b4
    c8d8:	e3403002 	movt	r3, #2
    c8dc:	e5933000 	ldr	r3, [r3]
    c8e0:	e3530000 	cmp	r3, #0
    c8e4:	0a000006 	beq	c904 <TimerP_delete+0xbc>
    c8e8:	e30034b4 	movw	r3, #1204	; 0x4b4
    c8ec:	e3403002 	movt	r3, #2
    c8f0:	e5933000 	ldr	r3, [r3]
    c8f4:	e2432001 	sub	r2, r3, #1
    c8f8:	e30034b4 	movw	r3, #1204	; 0x4b4
    c8fc:	e3403002 	movt	r3, #2
    c900:	e5832000 	str	r2, [r3]
    c904:	e51b0010 	ldr	r0, [fp, #-16]
    c908:	ebfff3d6 	bl	9868 <HwiP_restore>
    c90c:	e3a03000 	mov	r3, #0
    c910:	e1a00003 	mov	r0, r3
    c914:	e24bd004 	sub	sp, fp, #4
    c918:	e8bd8800 	pop	{fp, pc}

0000c91c <TimerP_start>:
    c91c:	e92d4800 	push	{fp, lr}
    c920:	e28db004 	add	fp, sp, #4
    c924:	e24dd020 	sub	sp, sp, #32
    c928:	e50b0020 	str	r0, [fp, #-32]	; 0xffffffe0
    c92c:	e51b3020 	ldr	r3, [fp, #-32]	; 0xffffffe0
    c930:	e50b300c 	str	r3, [fp, #-12]
    c934:	e3e03000 	mvn	r3, #0
    c938:	e50b3010 	str	r3, [fp, #-16]
    c93c:	e51b300c 	ldr	r3, [fp, #-12]
    c940:	e5933004 	ldr	r3, [r3, #4]
    c944:	e1a00003 	mov	r0, r3
    c948:	ebfffbb2 	bl	b818 <TimerP_getTimerBaseAddr>
    c94c:	e50b0014 	str	r0, [fp, #-20]	; 0xffffffec
    c950:	e51b3014 	ldr	r3, [fp, #-20]	; 0xffffffec
    c954:	e3530000 	cmp	r3, #0
    c958:	1a000001 	bne	c964 <TimerP_start+0x48>
    c95c:	e3e03001 	mvn	r3, #1
    c960:	ea000058 	b	cac8 <TimerP_start+0x1ac>
    c964:	ebfff385 	bl	9780 <HwiP_disable>
    c968:	e50b0018 	str	r0, [fp, #-24]	; 0xffffffe8
    c96c:	e51b0020 	ldr	r0, [fp, #-32]	; 0xffffffe0
    c970:	eb000057 	bl	cad4 <TimerP_stop>
    c974:	e51b300c 	ldr	r3, [fp, #-12]
    c978:	e5933018 	ldr	r3, [r3, #24]
    c97c:	e3530000 	cmp	r3, #0
    c980:	0a000003 	beq	c994 <TimerP_start+0x78>
    c984:	e51b300c 	ldr	r3, [fp, #-12]
    c988:	e5933018 	ldr	r3, [r3, #24]
    c98c:	e3530001 	cmp	r3, #1
    c990:	1a000007 	bne	c9b4 <TimerP_start+0x98>
    c994:	e51b300c 	ldr	r3, [fp, #-12]
    c998:	e593301c 	ldr	r3, [r3, #28]
    c99c:	e51b2010 	ldr	r2, [fp, #-16]
    c9a0:	e0423003 	sub	r3, r2, r3
    c9a4:	e1a01003 	mov	r1, r3
    c9a8:	e51b0014 	ldr	r0, [fp, #-20]	; 0xffffffec
    c9ac:	ebfff91f 	bl	ae30 <TIMERCounterSet>
    c9b0:	ea000010 	b	c9f8 <TimerP_start+0xdc>
    c9b4:	e3a01000 	mov	r1, #0
    c9b8:	e51b0014 	ldr	r0, [fp, #-20]	; 0xffffffec
    c9bc:	ebfff91b 	bl	ae30 <TIMERCounterSet>
    c9c0:	e51b300c 	ldr	r3, [fp, #-12]
    c9c4:	e593301c 	ldr	r3, [r3, #28]
    c9c8:	e1a01003 	mov	r1, r3
    c9cc:	e51b0014 	ldr	r0, [fp, #-20]	; 0xffffffec
    c9d0:	ebfff96c 	bl	af88 <TIMERCompareSet>
    c9d4:	e51b300c 	ldr	r3, [fp, #-12]
    c9d8:	e3a02000 	mov	r2, #0
    c9dc:	e583203c 	str	r2, [r3, #60]	; 0x3c
    c9e0:	e51b300c 	ldr	r3, [fp, #-12]
    c9e4:	e3a02000 	mov	r2, #0
    c9e8:	e5832034 	str	r2, [r3, #52]	; 0x34
    c9ec:	e51b300c 	ldr	r3, [fp, #-12]
    c9f0:	e3a02000 	mov	r2, #0
    c9f4:	e5832038 	str	r2, [r3, #56]	; 0x38
    c9f8:	e51b0014 	ldr	r0, [fp, #-20]	; 0xffffffec
    c9fc:	ebfffac5 	bl	b518 <TIMERWritePostedStatusGet>
    ca00:	e1a03000 	mov	r3, r0
    ca04:	e2033002 	and	r3, r3, #2
    ca08:	e50b301c 	str	r3, [fp, #-28]	; 0xffffffe4
    ca0c:	e51b301c 	ldr	r3, [fp, #-28]	; 0xffffffe4
    ca10:	e3530000 	cmp	r3, #0
    ca14:	1afffff7 	bne	c9f8 <TimerP_start+0xdc>
    ca18:	e51b300c 	ldr	r3, [fp, #-12]
    ca1c:	e593302c 	ldr	r3, [r3, #44]	; 0x2c
    ca20:	e3530000 	cmp	r3, #0
    ca24:	0a000007 	beq	ca48 <TimerP_start+0x12c>
    ca28:	e51b300c 	ldr	r3, [fp, #-12]
    ca2c:	e5933030 	ldr	r3, [r3, #48]	; 0x30
    ca30:	e1a00003 	mov	r0, r3
    ca34:	ebfff2fb 	bl	9628 <HwiP_clearInterrupt>
    ca38:	e51b300c 	ldr	r3, [fp, #-12]
    ca3c:	e5933030 	ldr	r3, [r3, #48]	; 0x30
    ca40:	e1a00003 	mov	r0, r3
    ca44:	ebfff35d 	bl	97c0 <HwiP_enableInterrupt>
    ca48:	e51b300c 	ldr	r3, [fp, #-12]
    ca4c:	e5933018 	ldr	r3, [r3, #24]
    ca50:	e3530000 	cmp	r3, #0
    ca54:	1a000002 	bne	ca64 <TimerP_start+0x148>
    ca58:	e3a03003 	mov	r3, #3
    ca5c:	e50b3008 	str	r3, [fp, #-8]
    ca60:	ea000008 	b	ca88 <TimerP_start+0x16c>
    ca64:	e51b300c 	ldr	r3, [fp, #-12]
    ca68:	e5933018 	ldr	r3, [r3, #24]
    ca6c:	e3530001 	cmp	r3, #1
    ca70:	1a000002 	bne	ca80 <TimerP_start+0x164>
    ca74:	e3a03001 	mov	r3, #1
    ca78:	e50b3008 	str	r3, [fp, #-8]
    ca7c:	ea000001 	b	ca88 <TimerP_start+0x16c>
    ca80:	e3a03043 	mov	r3, #67	; 0x43
    ca84:	e50b3008 	str	r3, [fp, #-8]
    ca88:	e51b1008 	ldr	r1, [fp, #-8]
    ca8c:	e51b0014 	ldr	r0, [fp, #-20]	; 0xffffffec
    ca90:	ebfff88a 	bl	acc0 <TIMERModeConfigure>
    ca94:	e51b0014 	ldr	r0, [fp, #-20]	; 0xffffffec
    ca98:	ebfffa9e 	bl	b518 <TIMERWritePostedStatusGet>
    ca9c:	e1a03000 	mov	r3, r0
    caa0:	e2033001 	and	r3, r3, #1
    caa4:	e50b301c 	str	r3, [fp, #-28]	; 0xffffffe4
    caa8:	e51b301c 	ldr	r3, [fp, #-28]	; 0xffffffe4
    caac:	e3530000 	cmp	r3, #0
    cab0:	1afffff7 	bne	ca94 <TimerP_start+0x178>
    cab4:	e51b0014 	ldr	r0, [fp, #-20]	; 0xffffffec
    cab8:	ebfff860 	bl	ac40 <TIMEREnable>
    cabc:	e51b0018 	ldr	r0, [fp, #-24]	; 0xffffffe8
    cac0:	ebfff368 	bl	9868 <HwiP_restore>
    cac4:	e3a03000 	mov	r3, #0
    cac8:	e1a00003 	mov	r0, r3
    cacc:	e24bd004 	sub	sp, fp, #4
    cad0:	e8bd8800 	pop	{fp, pc}

0000cad4 <TimerP_stop>:
    cad4:	e92d4800 	push	{fp, lr}
    cad8:	e28db004 	add	fp, sp, #4
    cadc:	e24dd018 	sub	sp, sp, #24
    cae0:	e50b0018 	str	r0, [fp, #-24]	; 0xffffffe8
    cae4:	e51b3018 	ldr	r3, [fp, #-24]	; 0xffffffe8
    cae8:	e50b3008 	str	r3, [fp, #-8]
    caec:	e51b3008 	ldr	r3, [fp, #-8]
    caf0:	e5933004 	ldr	r3, [r3, #4]
    caf4:	e1a00003 	mov	r0, r3
    caf8:	ebfffb46 	bl	b818 <TimerP_getTimerBaseAddr>
    cafc:	e50b000c 	str	r0, [fp, #-12]
    cb00:	e51b300c 	ldr	r3, [fp, #-12]
    cb04:	e3530000 	cmp	r3, #0
    cb08:	1a000001 	bne	cb14 <TimerP_stop+0x40>
    cb0c:	e3e03001 	mvn	r3, #1
    cb10:	ea000013 	b	cb64 <TimerP_stop+0x90>
    cb14:	e51b000c 	ldr	r0, [fp, #-12]
    cb18:	ebfff858 	bl	ac80 <TIMERDisable>
    cb1c:	e51b000c 	ldr	r0, [fp, #-12]
    cb20:	ebfffa7c 	bl	b518 <TIMERWritePostedStatusGet>
    cb24:	e1a03000 	mov	r3, r0
    cb28:	e2033001 	and	r3, r3, #1
    cb2c:	e50b3010 	str	r3, [fp, #-16]
    cb30:	e51b3010 	ldr	r3, [fp, #-16]
    cb34:	e3530000 	cmp	r3, #0
    cb38:	1afffff7 	bne	cb1c <TimerP_stop+0x48>
    cb3c:	e51b000c 	ldr	r0, [fp, #-12]
    cb40:	ebfff947 	bl	b064 <TIMERIntStatusGet>
    cb44:	e50b0014 	str	r0, [fp, #-20]	; 0xffffffec
    cb48:	e51b3014 	ldr	r3, [fp, #-20]	; 0xffffffec
    cb4c:	e3530000 	cmp	r3, #0
    cb50:	0a000002 	beq	cb60 <TimerP_stop+0x8c>
    cb54:	e51b1014 	ldr	r1, [fp, #-20]	; 0xffffffec
    cb58:	e51b000c 	ldr	r0, [fp, #-12]
    cb5c:	ebfff94c 	bl	b094 <TIMERIntStatusClear>
    cb60:	e3a03000 	mov	r3, #0
    cb64:	e1a00003 	mov	r0, r3
    cb68:	e24bd004 	sub	sp, fp, #4
    cb6c:	e8bd8800 	pop	{fp, pc}

0000cb70 <TimerP_setPeriodMicroSecs>:
    cb70:	e92d4800 	push	{fp, lr}
    cb74:	e28db004 	add	fp, sp, #4
    cb78:	e24dd010 	sub	sp, sp, #16
    cb7c:	e50b0010 	str	r0, [fp, #-16]
    cb80:	e50b1014 	str	r1, [fp, #-20]	; 0xffffffec
    cb84:	e51b3010 	ldr	r3, [fp, #-16]
    cb88:	e50b3008 	str	r3, [fp, #-8]
    cb8c:	e51b1014 	ldr	r1, [fp, #-20]	; 0xffffffec
    cb90:	e51b0008 	ldr	r0, [fp, #-8]
    cb94:	ebfffb9c 	bl	ba0c <TimerP_dmTimerSetMicroSeconds>
    cb98:	e1a03000 	mov	r3, r0
    cb9c:	e2233001 	eor	r3, r3, #1
    cba0:	e6ef3073 	uxtb	r3, r3
    cba4:	e3530000 	cmp	r3, #0
    cba8:	0a000001 	beq	cbb4 <TimerP_setPeriodMicroSecs+0x44>
    cbac:	e3e03000 	mvn	r3, #0
    cbb0:	ea000000 	b	cbb8 <TimerP_setPeriodMicroSecs+0x48>
    cbb4:	e3a03000 	mov	r3, #0
    cbb8:	e1a00003 	mov	r0, r3
    cbbc:	e24bd004 	sub	sp, fp, #4
    cbc0:	e8bd8800 	pop	{fp, pc}

0000cbc4 <TimerP_getTimeInUsecs>:
    cbc4:	e52db004 	push	{fp}		; (str fp, [sp, #-4]!)
    cbc8:	e28db000 	add	fp, sp, #0
    cbcc:	e3a02000 	mov	r2, #0
    cbd0:	e3a03000 	mov	r3, #0
    cbd4:	e1a00002 	mov	r0, r2
    cbd8:	e1a01003 	mov	r1, r3
    cbdc:	e28bd000 	add	sp, fp, #0
    cbe0:	e49db004 	pop	{fp}		; (ldr fp, [sp], #4)
    cbe4:	e12fff1e 	bx	lr

0000cbe8 <_DebugP_assert>:
    cbe8:	e52db004 	push	{fp}		; (str fp, [sp, #-4]!)
    cbec:	e28db000 	add	fp, sp, #0
    cbf0:	e24dd014 	sub	sp, sp, #20
    cbf4:	e50b0008 	str	r0, [fp, #-8]
    cbf8:	e50b100c 	str	r1, [fp, #-12]
    cbfc:	e50b2010 	str	r2, [fp, #-16]
    cc00:	e51b3008 	ldr	r3, [fp, #-8]
    cc04:	e3530000 	cmp	r3, #0
    cc08:	0a000000 	beq	cc10 <_DebugP_assert+0x28>
    cc0c:	eafffffe 	b	cc0c <_DebugP_assert+0x24>
    cc10:	e320f000 	nop	{0}
    cc14:	e28bd000 	add	sp, fp, #0
    cc18:	e49db004 	pop	{fp}		; (ldr fp, [sp], #4)
    cc1c:	e12fff1e 	bx	lr

0000cc20 <Osal_getThreadType>:
    cc20:	e52db004 	push	{fp}		; (str fp, [sp, #-4]!)
    cc24:	e28db000 	add	fp, sp, #0
    cc28:	e3a03003 	mov	r3, #3
    cc2c:	e1a00003 	mov	r0, r3
    cc30:	e28bd000 	add	sp, fp, #0
    cc34:	e49db004 	pop	{fp}		; (ldr fp, [sp], #4)
    cc38:	e12fff1e 	bx	lr

0000cc3c <Osal_setHwAttrs>:
    cc3c:	e92d4800 	push	{fp, lr}
    cc40:	e28db004 	add	fp, sp, #4
    cc44:	e24dd010 	sub	sp, sp, #16
    cc48:	e50b0010 	str	r0, [fp, #-16]
    cc4c:	e50b1014 	str	r1, [fp, #-20]	; 0xffffffec
    cc50:	e3e03000 	mvn	r3, #0
    cc54:	e50b3008 	str	r3, [fp, #-8]
    cc58:	e51b3014 	ldr	r3, [fp, #-20]	; 0xffffffec
    cc5c:	e3530000 	cmp	r3, #0
    cc60:	0a00004e 	beq	cda0 <Osal_setHwAttrs+0x164>
    cc64:	e51b3010 	ldr	r3, [fp, #-16]
    cc68:	e2033001 	and	r3, r3, #1
    cc6c:	e3530000 	cmp	r3, #0
    cc70:	0a000006 	beq	cc90 <Osal_setHwAttrs+0x54>
    cc74:	e51b3014 	ldr	r3, [fp, #-20]	; 0xffffffec
    cc78:	e5932004 	ldr	r2, [r3, #4]
    cc7c:	e30d3d7c 	movw	r3, #56700	; 0xdd7c
    cc80:	e3403001 	movt	r3, #1
    cc84:	e5832004 	str	r2, [r3, #4]
    cc88:	e3a03000 	mov	r3, #0
    cc8c:	e50b3008 	str	r3, [fp, #-8]
    cc90:	e51b3010 	ldr	r3, [fp, #-16]
    cc94:	e2033004 	and	r3, r3, #4
    cc98:	e3530000 	cmp	r3, #0
    cc9c:	0a000006 	beq	ccbc <Osal_setHwAttrs+0x80>
    cca0:	e51b3014 	ldr	r3, [fp, #-20]	; 0xffffffec
    cca4:	e5d32008 	ldrb	r2, [r3, #8]
    cca8:	e30d3d7c 	movw	r3, #56700	; 0xdd7c
    ccac:	e3403001 	movt	r3, #1
    ccb0:	e5c32008 	strb	r2, [r3, #8]
    ccb4:	e3a03000 	mov	r3, #0
    ccb8:	e50b3008 	str	r3, [fp, #-8]
    ccbc:	e51b3010 	ldr	r3, [fp, #-16]
    ccc0:	e2033008 	and	r3, r3, #8
    ccc4:	e3530000 	cmp	r3, #0
    ccc8:	0a000006 	beq	cce8 <Osal_setHwAttrs+0xac>
    cccc:	e51b3014 	ldr	r3, [fp, #-20]	; 0xffffffec
    ccd0:	e593200c 	ldr	r2, [r3, #12]
    ccd4:	e30d3d7c 	movw	r3, #56700	; 0xdd7c
    ccd8:	e3403001 	movt	r3, #1
    ccdc:	e583200c 	str	r2, [r3, #12]
    cce0:	e3a03000 	mov	r3, #0
    cce4:	e50b3008 	str	r3, [fp, #-8]
    cce8:	e51b3010 	ldr	r3, [fp, #-16]
    ccec:	e2033010 	and	r3, r3, #16
    ccf0:	e3530000 	cmp	r3, #0
    ccf4:	0a000012 	beq	cd44 <Osal_setHwAttrs+0x108>
    ccf8:	e30d3d7c 	movw	r3, #56700	; 0xdd7c
    ccfc:	e3403001 	movt	r3, #1
    cd00:	e51b2014 	ldr	r2, [fp, #-20]	; 0xffffffec
    cd04:	e2833010 	add	r3, r3, #16
    cd08:	e2822010 	add	r2, r2, #16
    cd0c:	e8920003 	ldm	r2, {r0, r1}
    cd10:	e8830003 	stm	r3, {r0, r1}
    cd14:	e30d3d7c 	movw	r3, #56700	; 0xdd7c
    cd18:	e3403001 	movt	r3, #1
    cd1c:	e5933010 	ldr	r3, [r3, #16]
    cd20:	e1a00003 	mov	r0, r3
    cd24:	e30d3d7c 	movw	r3, #56700	; 0xdd7c
    cd28:	e3403001 	movt	r3, #1
    cd2c:	e5933014 	ldr	r3, [r3, #20]
    cd30:	e1a02003 	mov	r2, r3
    cd34:	e3a01000 	mov	r1, #0
    cd38:	eb0000b9 	bl	d024 <memset>
    cd3c:	e3a03000 	mov	r3, #0
    cd40:	e50b3008 	str	r3, [fp, #-8]
    cd44:	e51b3010 	ldr	r3, [fp, #-16]
    cd48:	e2033020 	and	r3, r3, #32
    cd4c:	e3530000 	cmp	r3, #0
    cd50:	0a000012 	beq	cda0 <Osal_setHwAttrs+0x164>
    cd54:	e30d3d7c 	movw	r3, #56700	; 0xdd7c
    cd58:	e3403001 	movt	r3, #1
    cd5c:	e51b2014 	ldr	r2, [fp, #-20]	; 0xffffffec
    cd60:	e2833018 	add	r3, r3, #24
    cd64:	e2822018 	add	r2, r2, #24
    cd68:	e8920003 	ldm	r2, {r0, r1}
    cd6c:	e8830003 	stm	r3, {r0, r1}
    cd70:	e30d3d7c 	movw	r3, #56700	; 0xdd7c
    cd74:	e3403001 	movt	r3, #1
    cd78:	e5933018 	ldr	r3, [r3, #24]
    cd7c:	e1a00003 	mov	r0, r3
    cd80:	e30d3d7c 	movw	r3, #56700	; 0xdd7c
    cd84:	e3403001 	movt	r3, #1
    cd88:	e593301c 	ldr	r3, [r3, #28]
    cd8c:	e1a02003 	mov	r2, r3
    cd90:	e3a01000 	mov	r1, #0
    cd94:	eb0000a2 	bl	d024 <memset>
    cd98:	e3a03000 	mov	r3, #0
    cd9c:	e50b3008 	str	r3, [fp, #-8]
    cda0:	e51b3008 	ldr	r3, [fp, #-8]
    cda4:	e1a00003 	mov	r0, r3
    cda8:	e24bd004 	sub	sp, fp, #4
    cdac:	e8bd8800 	pop	{fp, pc}

0000cdb0 <Osal_getHwAttrs>:
    cdb0:	e92d4800 	push	{fp, lr}
    cdb4:	e28db004 	add	fp, sp, #4
    cdb8:	e24dd010 	sub	sp, sp, #16
    cdbc:	e50b0010 	str	r0, [fp, #-16]
    cdc0:	e3e03000 	mvn	r3, #0
    cdc4:	e50b3008 	str	r3, [fp, #-8]
    cdc8:	e51b3010 	ldr	r3, [fp, #-16]
    cdcc:	e3530000 	cmp	r3, #0
    cdd0:	0a000006 	beq	cdf0 <Osal_getHwAttrs+0x40>
    cdd4:	e3a02020 	mov	r2, #32
    cdd8:	e30d1d7c 	movw	r1, #56700	; 0xdd7c
    cddc:	e3401001 	movt	r1, #1
    cde0:	e51b0010 	ldr	r0, [fp, #-16]
    cde4:	eb000049 	bl	cf10 <memcpy>
    cde8:	e3a03000 	mov	r3, #0
    cdec:	e50b3008 	str	r3, [fp, #-8]
    cdf0:	e51b3008 	ldr	r3, [fp, #-8]
    cdf4:	e1a00003 	mov	r0, r3
    cdf8:	e24bd004 	sub	sp, fp, #4
    cdfc:	e8bd8800 	pop	{fp, pc}

0000ce00 <Osal_getStaticMemStatus>:
    ce00:	e92d4800 	push	{fp, lr}
    ce04:	e28db004 	add	fp, sp, #4
    ce08:	e24dd010 	sub	sp, sp, #16
    ce0c:	e50b0010 	str	r0, [fp, #-16]
    ce10:	e3a03000 	mov	r3, #0
    ce14:	e50b3008 	str	r3, [fp, #-8]
    ce18:	e51b3010 	ldr	r3, [fp, #-16]
    ce1c:	e3530000 	cmp	r3, #0
    ce20:	0a000034 	beq	cef8 <Osal_getStaticMemStatus+0xf8>
    ce24:	ebfff255 	bl	9780 <HwiP_disable>
    ce28:	e50b000c 	str	r0, [fp, #-12]
    ce2c:	e30034b0 	movw	r3, #1200	; 0x4b0
    ce30:	e3403002 	movt	r3, #2
    ce34:	e5932000 	ldr	r2, [r3]
    ce38:	e51b3010 	ldr	r3, [fp, #-16]
    ce3c:	e5832000 	str	r2, [r3]
    ce40:	e51b3010 	ldr	r3, [fp, #-16]
    ce44:	e3a02014 	mov	r2, #20
    ce48:	e5832004 	str	r2, [r3, #4]
    ce4c:	e51b3010 	ldr	r3, [fp, #-16]
    ce50:	e5932004 	ldr	r2, [r3, #4]
    ce54:	e30034ac 	movw	r3, #1196	; 0x4ac
    ce58:	e3403002 	movt	r3, #2
    ce5c:	e5933000 	ldr	r3, [r3]
    ce60:	e0422003 	sub	r2, r2, r3
    ce64:	e51b3010 	ldr	r3, [fp, #-16]
    ce68:	e5832008 	str	r2, [r3, #8]
    ce6c:	e30034b8 	movw	r3, #1208	; 0x4b8
    ce70:	e3403002 	movt	r3, #2
    ce74:	e5932000 	ldr	r2, [r3]
    ce78:	e51b3010 	ldr	r3, [fp, #-16]
    ce7c:	e583200c 	str	r2, [r3, #12]
    ce80:	e51b3010 	ldr	r3, [fp, #-16]
    ce84:	e3a02006 	mov	r2, #6
    ce88:	e5832010 	str	r2, [r3, #16]
    ce8c:	e51b3010 	ldr	r3, [fp, #-16]
    ce90:	e5932010 	ldr	r2, [r3, #16]
    ce94:	e30034b4 	movw	r3, #1204	; 0x4b4
    ce98:	e3403002 	movt	r3, #2
    ce9c:	e5933000 	ldr	r3, [r3]
    cea0:	e0422003 	sub	r2, r2, r3
    cea4:	e51b3010 	ldr	r3, [fp, #-16]
    cea8:	e5832014 	str	r2, [r3, #20]
    ceac:	e30034c0 	movw	r3, #1216	; 0x4c0
    ceb0:	e3403002 	movt	r3, #2
    ceb4:	e5932000 	ldr	r2, [r3]
    ceb8:	e51b3010 	ldr	r3, [fp, #-16]
    cebc:	e5832018 	str	r2, [r3, #24]
    cec0:	e51b3010 	ldr	r3, [fp, #-16]
    cec4:	e3a0200a 	mov	r2, #10
    cec8:	e583201c 	str	r2, [r3, #28]
    cecc:	e51b3010 	ldr	r3, [fp, #-16]
    ced0:	e593201c 	ldr	r2, [r3, #28]
    ced4:	e30034bc 	movw	r3, #1212	; 0x4bc
    ced8:	e3403002 	movt	r3, #2
    cedc:	e5933000 	ldr	r3, [r3]
    cee0:	e0422003 	sub	r2, r2, r3
    cee4:	e51b3010 	ldr	r3, [fp, #-16]
    cee8:	e5832020 	str	r2, [r3, #32]
    ceec:	e51b000c 	ldr	r0, [fp, #-12]
    cef0:	ebfff25c 	bl	9868 <HwiP_restore>
    cef4:	ea000001 	b	cf00 <Osal_getStaticMemStatus+0x100>
    cef8:	e3e03000 	mvn	r3, #0
    cefc:	e50b3008 	str	r3, [fp, #-8]
    cf00:	e51b3008 	ldr	r3, [fp, #-8]
    cf04:	e1a00003 	mov	r0, r3
    cf08:	e24bd004 	sub	sp, fp, #4
    cf0c:	e8bd8800 	pop	{fp, pc}

0000cf10 <memcpy>:
    cf10:	e352000f 	cmp	r2, #15
    cf14:	8a000009 	bhi	cf40 <memcpy+0x30>
    cf18:	e3520000 	cmp	r2, #0
    cf1c:	e1a03000 	mov	r3, r0
    cf20:	0a00003c 	beq	d018 <memcpy+0x108>
    cf24:	e2433001 	sub	r3, r3, #1
    cf28:	e0812002 	add	r2, r1, r2
    cf2c:	e4d1c001 	ldrb	ip, [r1], #1
    cf30:	e1510002 	cmp	r1, r2
    cf34:	e5e3c001 	strb	ip, [r3, #1]!
    cf38:	1afffffb 	bne	cf2c <memcpy+0x1c>
    cf3c:	e12fff1e 	bx	lr
    cf40:	e1813000 	orr	r3, r1, r0
    cf44:	e3130003 	tst	r3, #3
    cf48:	1a000030 	bne	d010 <memcpy+0x100>
    cf4c:	e92d40f0 	push	{r4, r5, r6, r7, lr}
    cf50:	e1a0e002 	mov	lr, r2
    cf54:	e280c010 	add	ip, r0, #16
    cf58:	e2813010 	add	r3, r1, #16
    cf5c:	e5137010 	ldr	r7, [r3, #-16]
    cf60:	e513600c 	ldr	r6, [r3, #-12]
    cf64:	e5135008 	ldr	r5, [r3, #-8]
    cf68:	e5134004 	ldr	r4, [r3, #-4]
    cf6c:	e24ee010 	sub	lr, lr, #16
    cf70:	e35e000f 	cmp	lr, #15
    cf74:	e50c7010 	str	r7, [ip, #-16]
    cf78:	e50c600c 	str	r6, [ip, #-12]
    cf7c:	e50c5008 	str	r5, [ip, #-8]
    cf80:	e50c4004 	str	r4, [ip, #-4]
    cf84:	e2833010 	add	r3, r3, #16
    cf88:	e28cc010 	add	ip, ip, #16
    cf8c:	8afffff2 	bhi	cf5c <memcpy+0x4c>
    cf90:	e2423010 	sub	r3, r2, #16
    cf94:	e3c3300f 	bic	r3, r3, #15
    cf98:	e202600f 	and	r6, r2, #15
    cf9c:	e2833010 	add	r3, r3, #16
    cfa0:	e3560003 	cmp	r6, #3
    cfa4:	e0811003 	add	r1, r1, r3
    cfa8:	e0803003 	add	r3, r0, r3
    cfac:	9a00001a 	bls	d01c <memcpy+0x10c>
    cfb0:	e1a04001 	mov	r4, r1
    cfb4:	e1a0c006 	mov	ip, r6
    cfb8:	e243e004 	sub	lr, r3, #4
    cfbc:	e24cc004 	sub	ip, ip, #4
    cfc0:	e4945004 	ldr	r5, [r4], #4
    cfc4:	e35c0003 	cmp	ip, #3
    cfc8:	e5ae5004 	str	r5, [lr, #4]!
    cfcc:	8afffffa 	bhi	cfbc <memcpy+0xac>
    cfd0:	e246c004 	sub	ip, r6, #4
    cfd4:	e3ccc003 	bic	ip, ip, #3
    cfd8:	e28cc004 	add	ip, ip, #4
    cfdc:	e081100c 	add	r1, r1, ip
    cfe0:	e083300c 	add	r3, r3, ip
    cfe4:	e2022003 	and	r2, r2, #3
    cfe8:	e3520000 	cmp	r2, #0
    cfec:	12433001 	subne	r3, r3, #1
    cff0:	10812002 	addne	r2, r1, r2
    cff4:	0a000003 	beq	d008 <memcpy+0xf8>
    cff8:	e4d1c001 	ldrb	ip, [r1], #1
    cffc:	e1510002 	cmp	r1, r2
    d000:	e5e3c001 	strb	ip, [r3, #1]!
    d004:	1afffffb 	bne	cff8 <memcpy+0xe8>
    d008:	e8bd40f0 	pop	{r4, r5, r6, r7, lr}
    d00c:	e12fff1e 	bx	lr
    d010:	e1a03000 	mov	r3, r0
    d014:	eaffffc2 	b	cf24 <memcpy+0x14>
    d018:	e12fff1e 	bx	lr
    d01c:	e1a02006 	mov	r2, r6
    d020:	eafffff0 	b	cfe8 <memcpy+0xd8>

0000d024 <memset>:
    d024:	e3100003 	tst	r0, #3
    d028:	0a000040 	beq	d130 <memset+0x10c>
    d02c:	e3520000 	cmp	r2, #0
    d030:	e2422001 	sub	r2, r2, #1
    d034:	012fff1e 	bxeq	lr
    d038:	e201c0ff 	and	ip, r1, #255	; 0xff
    d03c:	e1a03000 	mov	r3, r0
    d040:	ea000002 	b	d050 <memset+0x2c>
    d044:	e2422001 	sub	r2, r2, #1
    d048:	e3720001 	cmn	r2, #1
    d04c:	012fff1e 	bxeq	lr
    d050:	e4c3c001 	strb	ip, [r3], #1
    d054:	e3130003 	tst	r3, #3
    d058:	1afffff9 	bne	d044 <memset+0x20>
    d05c:	e3520003 	cmp	r2, #3
    d060:	9a00002a 	bls	d110 <memset+0xec>
    d064:	e92d4010 	push	{r4, lr}
    d068:	e201e0ff 	and	lr, r1, #255	; 0xff
    d06c:	e18ee40e 	orr	lr, lr, lr, lsl #8
    d070:	e352000f 	cmp	r2, #15
    d074:	e18ee80e 	orr	lr, lr, lr, lsl #16
    d078:	9a000010 	bls	d0c0 <memset+0x9c>
    d07c:	e1a04002 	mov	r4, r2
    d080:	e283c010 	add	ip, r3, #16
    d084:	e2444010 	sub	r4, r4, #16
    d088:	e354000f 	cmp	r4, #15
    d08c:	e50ce010 	str	lr, [ip, #-16]
    d090:	e50ce00c 	str	lr, [ip, #-12]
    d094:	e50ce008 	str	lr, [ip, #-8]
    d098:	e50ce004 	str	lr, [ip, #-4]
    d09c:	e28cc010 	add	ip, ip, #16
    d0a0:	8afffff7 	bhi	d084 <memset+0x60>
    d0a4:	e242c010 	sub	ip, r2, #16
    d0a8:	e3ccc00f 	bic	ip, ip, #15
    d0ac:	e202200f 	and	r2, r2, #15
    d0b0:	e28cc010 	add	ip, ip, #16
    d0b4:	e3520003 	cmp	r2, #3
    d0b8:	e083300c 	add	r3, r3, ip
    d0bc:	9a00000a 	bls	d0ec <memset+0xc8>
    d0c0:	e1a04003 	mov	r4, r3
    d0c4:	e1a0c002 	mov	ip, r2
    d0c8:	e24cc004 	sub	ip, ip, #4
    d0cc:	e35c0003 	cmp	ip, #3
    d0d0:	e484e004 	str	lr, [r4], #4
    d0d4:	8afffffb 	bhi	d0c8 <memset+0xa4>
    d0d8:	e242c004 	sub	ip, r2, #4
    d0dc:	e3ccc003 	bic	ip, ip, #3
    d0e0:	e28cc004 	add	ip, ip, #4
    d0e4:	e083300c 	add	r3, r3, ip
    d0e8:	e2022003 	and	r2, r2, #3
    d0ec:	e3520000 	cmp	r2, #0
    d0f0:	0a000004 	beq	d108 <memset+0xe4>
    d0f4:	e20110ff 	and	r1, r1, #255	; 0xff
    d0f8:	e0832002 	add	r2, r3, r2
    d0fc:	e4c31001 	strb	r1, [r3], #1
    d100:	e1520003 	cmp	r2, r3
    d104:	1afffffc 	bne	d0fc <memset+0xd8>
    d108:	e8bd4010 	pop	{r4, lr}
    d10c:	e12fff1e 	bx	lr
    d110:	e3520000 	cmp	r2, #0
    d114:	012fff1e 	bxeq	lr
    d118:	e20110ff 	and	r1, r1, #255	; 0xff
    d11c:	e0832002 	add	r2, r3, r2
    d120:	e4c31001 	strb	r1, [r3], #1
    d124:	e1520003 	cmp	r2, r3
    d128:	1afffffc 	bne	d120 <memset+0xfc>
    d12c:	e12fff1e 	bx	lr
    d130:	e1a03000 	mov	r3, r0
    d134:	eaffffc8 	b	d05c <memset+0x38>

0000d138 <__udivsi3>:
    d138:	e2512001 	subs	r2, r1, #1
    d13c:	012fff1e 	bxeq	lr
    d140:	3a000036 	bcc	d220 <__udivsi3+0xe8>
    d144:	e1500001 	cmp	r0, r1
    d148:	9a000022 	bls	d1d8 <__udivsi3+0xa0>
    d14c:	e1110002 	tst	r1, r2
    d150:	0a000023 	beq	d1e4 <__udivsi3+0xac>
    d154:	e311020e 	tst	r1, #-536870912	; 0xe0000000
    d158:	01a01181 	lsleq	r1, r1, #3
    d15c:	03a03008 	moveq	r3, #8
    d160:	13a03001 	movne	r3, #1
    d164:	e3510201 	cmp	r1, #268435456	; 0x10000000
    d168:	31510000 	cmpcc	r1, r0
    d16c:	31a01201 	lslcc	r1, r1, #4
    d170:	31a03203 	lslcc	r3, r3, #4
    d174:	3afffffa 	bcc	d164 <__udivsi3+0x2c>
    d178:	e3510102 	cmp	r1, #-2147483648	; 0x80000000
    d17c:	31510000 	cmpcc	r1, r0
    d180:	31a01081 	lslcc	r1, r1, #1
    d184:	31a03083 	lslcc	r3, r3, #1
    d188:	3afffffa 	bcc	d178 <__udivsi3+0x40>
    d18c:	e3a02000 	mov	r2, #0
    d190:	e1500001 	cmp	r0, r1
    d194:	20400001 	subcs	r0, r0, r1
    d198:	21822003 	orrcs	r2, r2, r3
    d19c:	e15000a1 	cmp	r0, r1, lsr #1
    d1a0:	204000a1 	subcs	r0, r0, r1, lsr #1
    d1a4:	218220a3 	orrcs	r2, r2, r3, lsr #1
    d1a8:	e1500121 	cmp	r0, r1, lsr #2
    d1ac:	20400121 	subcs	r0, r0, r1, lsr #2
    d1b0:	21822123 	orrcs	r2, r2, r3, lsr #2
    d1b4:	e15001a1 	cmp	r0, r1, lsr #3
    d1b8:	204001a1 	subcs	r0, r0, r1, lsr #3
    d1bc:	218221a3 	orrcs	r2, r2, r3, lsr #3
    d1c0:	e3500000 	cmp	r0, #0
    d1c4:	11b03223 	lsrsne	r3, r3, #4
    d1c8:	11a01221 	lsrne	r1, r1, #4
    d1cc:	1affffef 	bne	d190 <__udivsi3+0x58>
    d1d0:	e1a00002 	mov	r0, r2
    d1d4:	e12fff1e 	bx	lr
    d1d8:	03a00001 	moveq	r0, #1
    d1dc:	13a00000 	movne	r0, #0
    d1e0:	e12fff1e 	bx	lr
    d1e4:	e3510801 	cmp	r1, #65536	; 0x10000
    d1e8:	21a01821 	lsrcs	r1, r1, #16
    d1ec:	23a02010 	movcs	r2, #16
    d1f0:	33a02000 	movcc	r2, #0
    d1f4:	e3510c01 	cmp	r1, #256	; 0x100
    d1f8:	21a01421 	lsrcs	r1, r1, #8
    d1fc:	22822008 	addcs	r2, r2, #8
    d200:	e3510010 	cmp	r1, #16
    d204:	21a01221 	lsrcs	r1, r1, #4
    d208:	22822004 	addcs	r2, r2, #4
    d20c:	e3510004 	cmp	r1, #4
    d210:	82822003 	addhi	r2, r2, #3
    d214:	908220a1 	addls	r2, r2, r1, lsr #1
    d218:	e1a00230 	lsr	r0, r0, r2
    d21c:	e12fff1e 	bx	lr
    d220:	e3500000 	cmp	r0, #0
    d224:	13e00000 	mvnne	r0, #0
    d228:	ea000007 	b	d24c <__aeabi_idiv0>

0000d22c <__aeabi_uidivmod>:
    d22c:	e3510000 	cmp	r1, #0
    d230:	0afffffa 	beq	d220 <__udivsi3+0xe8>
    d234:	e92d4003 	push	{r0, r1, lr}
    d238:	ebffffbe 	bl	d138 <__udivsi3>
    d23c:	e8bd4006 	pop	{r1, r2, lr}
    d240:	e0030092 	mul	r3, r2, r0
    d244:	e0411003 	sub	r1, r1, r3
    d248:	e12fff1e 	bx	lr

0000d24c <__aeabi_idiv0>:
    d24c:	e12fff1e 	bx	lr

0000d250 <__aeabi_uldivmod>:
    d250:	e3530000 	cmp	r3, #0
    d254:	03520000 	cmpeq	r2, #0
    d258:	1a000004 	bne	d270 <__aeabi_uldivmod+0x20>
    d25c:	e3510000 	cmp	r1, #0
    d260:	03500000 	cmpeq	r0, #0
    d264:	13e01000 	mvnne	r1, #0
    d268:	13e00000 	mvnne	r0, #0
    d26c:	eafffff6 	b	d24c <__aeabi_idiv0>
    d270:	e24dd008 	sub	sp, sp, #8
    d274:	e92d6000 	push	{sp, lr}
    d278:	eb000003 	bl	d28c <__udivmoddi4>
    d27c:	e59de004 	ldr	lr, [sp, #4]
    d280:	e28dd008 	add	sp, sp, #8
    d284:	e8bd000c 	pop	{r2, r3}
    d288:	e12fff1e 	bx	lr

0000d28c <__udivmoddi4>:
    d28c:	e1510003 	cmp	r1, r3
    d290:	e92d4ff8 	push	{r3, r4, r5, r6, r7, r8, r9, sl, fp, lr}
    d294:	01500002 	cmpeq	r0, r2
    d298:	e1a04000 	mov	r4, r0
    d29c:	e1a05001 	mov	r5, r1
    d2a0:	e59da028 	ldr	sl, [sp, #40]	; 0x28
    d2a4:	33a00000 	movcc	r0, #0
    d2a8:	33a01000 	movcc	r1, #0
    d2ac:	3a00003d 	bcc	d3a8 <__udivmoddi4+0x11c>
    d2b0:	e1a00002 	mov	r0, r2
    d2b4:	e1a01003 	mov	r1, r3
    d2b8:	e1a08002 	mov	r8, r2
    d2bc:	e1a09003 	mov	r9, r3
    d2c0:	eb00003c 	bl	d3b8 <__clzdi2>
    d2c4:	e1a01005 	mov	r1, r5
    d2c8:	e1a0b000 	mov	fp, r0
    d2cc:	e1a00004 	mov	r0, r4
    d2d0:	eb000038 	bl	d3b8 <__clzdi2>
    d2d4:	e04bb000 	sub	fp, fp, r0
    d2d8:	e24b2020 	sub	r2, fp, #32
    d2dc:	e1a07b19 	lsl	r7, r9, fp
    d2e0:	e1877218 	orr	r7, r7, r8, lsl r2
    d2e4:	e26bc020 	rsb	ip, fp, #32
    d2e8:	e1877c38 	orr	r7, r7, r8, lsr ip
    d2ec:	e1550007 	cmp	r5, r7
    d2f0:	e1a06b18 	lsl	r6, r8, fp
    d2f4:	01540006 	cmpeq	r4, r6
    d2f8:	33a00000 	movcc	r0, #0
    d2fc:	33a01000 	movcc	r1, #0
    d300:	3a000005 	bcc	d31c <__udivmoddi4+0x90>
    d304:	e3a0e001 	mov	lr, #1
    d308:	e0544006 	subs	r4, r4, r6
    d30c:	e1a0121e 	lsl	r1, lr, r2
    d310:	e1811c3e 	orr	r1, r1, lr, lsr ip
    d314:	e0c55007 	sbc	r5, r5, r7
    d318:	e1a00b1e 	lsl	r0, lr, fp
    d31c:	e35b0000 	cmp	fp, #0
    d320:	0a000020 	beq	d3a8 <__udivmoddi4+0x11c>
    d324:	e1b070a7 	lsrs	r7, r7, #1
    d328:	e1a06066 	rrx	r6, r6
    d32c:	e1a0e00b 	mov	lr, fp
    d330:	ea000007 	b	d354 <__udivmoddi4+0xc8>
    d334:	e0544006 	subs	r4, r4, r6
    d338:	e0c55007 	sbc	r5, r5, r7
    d33c:	e0944004 	adds	r4, r4, r4
    d340:	e0a55005 	adc	r5, r5, r5
    d344:	e2944001 	adds	r4, r4, #1
    d348:	e2a55000 	adc	r5, r5, #0
    d34c:	e25ee001 	subs	lr, lr, #1
    d350:	0a000006 	beq	d370 <__udivmoddi4+0xe4>
    d354:	e1550007 	cmp	r5, r7
    d358:	01540006 	cmpeq	r4, r6
    d35c:	2afffff4 	bcs	d334 <__udivmoddi4+0xa8>
    d360:	e0944004 	adds	r4, r4, r4
    d364:	e0a55005 	adc	r5, r5, r5
    d368:	e25ee001 	subs	lr, lr, #1
    d36c:	1afffff8 	bne	d354 <__udivmoddi4+0xc8>
    d370:	e1a0eb34 	lsr	lr, r4, fp
    d374:	e18eec15 	orr	lr, lr, r5, lsl ip
    d378:	e18ee235 	orr	lr, lr, r5, lsr r2
    d37c:	e0906004 	adds	r6, r0, r4
    d380:	e1a0400e 	mov	r4, lr
    d384:	e0a17005 	adc	r7, r1, r5
    d388:	e1a01b35 	lsr	r1, r5, fp
    d38c:	e1a05001 	mov	r5, r1
    d390:	e1a01b11 	lsl	r1, r1, fp
    d394:	e181121e 	orr	r1, r1, lr, lsl r2
    d398:	e1a00b1e 	lsl	r0, lr, fp
    d39c:	e1811c3e 	orr	r1, r1, lr, lsr ip
    d3a0:	e0560000 	subs	r0, r6, r0
    d3a4:	e0c71001 	sbc	r1, r7, r1
    d3a8:	e35a0000 	cmp	sl, #0
    d3ac:	188a0030 	stmne	sl, {r4, r5}
    d3b0:	e8bd4ff8 	pop	{r3, r4, r5, r6, r7, r8, r9, sl, fp, lr}
    d3b4:	e12fff1e 	bx	lr

0000d3b8 <__clzdi2>:
    d3b8:	e92d4010 	push	{r4, lr}
    d3bc:	e3510000 	cmp	r1, #0
    d3c0:	1a000002 	bne	d3d0 <__clzdi2+0x18>
    d3c4:	eb000005 	bl	d3e0 <__clzsi2>
    d3c8:	e2800020 	add	r0, r0, #32
    d3cc:	ea000001 	b	d3d8 <__clzdi2+0x20>
    d3d0:	e1a00001 	mov	r0, r1
    d3d4:	eb000001 	bl	d3e0 <__clzsi2>
    d3d8:	e8bd4010 	pop	{r4, lr}
    d3dc:	e12fff1e 	bx	lr

0000d3e0 <__clzsi2>:
    d3e0:	e3a0101c 	mov	r1, #28
    d3e4:	e3500801 	cmp	r0, #65536	; 0x10000
    d3e8:	21a00820 	lsrcs	r0, r0, #16
    d3ec:	22411010 	subcs	r1, r1, #16
    d3f0:	e3500c01 	cmp	r0, #256	; 0x100
    d3f4:	21a00420 	lsrcs	r0, r0, #8
    d3f8:	22411008 	subcs	r1, r1, #8
    d3fc:	e3500010 	cmp	r0, #16
    d400:	21a00220 	lsrcs	r0, r0, #4
    d404:	22411004 	subcs	r1, r1, #4
    d408:	e28f2008 	add	r2, pc, #8
    d40c:	e7d20000 	ldrb	r0, [r2, r0]
    d410:	e0800001 	add	r0, r0, r1
    d414:	e12fff1e 	bx	lr
    d418:	02020304 	andeq	r0, r2, #4, 6	; 0x10000000
    d41c:	01010101 	tsteq	r1, r1, lsl #2
	...
