
C:\Users\Margarita\Desktop\OSAL\\project\\debug\debug.out:     file format elf32-littlearm


Disassembly of section .startcode:

80000000 <.startcode>:
80000000:	e59f010c 	ldr	r0, [pc, #268]	; 0x80000114
80000004:	e321f0db 	msr	CPSR_c, #219	; 0xdb
80000008:	e1a0d000 	mov	sp, r0
8000000c:	e2400008 	sub	r0, r0, #8
80000010:	e321f0d7 	msr	CPSR_c, #215	; 0xd7
80000014:	e1a0d000 	mov	sp, r0
80000018:	e2400008 	sub	r0, r0, #8
8000001c:	e321f0d1 	msr	CPSR_c, #209	; 0xd1
80000020:	e1a0d000 	mov	sp, r0
80000024:	e2400008 	sub	r0, r0, #8
80000028:	e321f0d2 	msr	CPSR_c, #210	; 0xd2
8000002c:	e1a0d000 	mov	sp, r0
80000030:	e2400a01 	sub	r0, r0, #4096	; 0x1000
80000034:	e321f0d3 	msr	CPSR_c, #211	; 0xd3
80000038:	e1a0d000 	mov	sp, r0
8000003c:	e2400008 	sub	r0, r0, #8
80000040:	e321f0df 	msr	CPSR_c, #223	; 0xdf
80000044:	e1a0d000 	mov	sp, r0
80000048:	e3a00000 	mov	r0, #0
8000004c:	ee070fd5 	mcr	15, 0, r0, cr7, cr5, {6}
80000050:	f57ff06f 	isb	sy
80000054:	ee110f10 	mrc	15, 0, r0, cr1, cr0, {0}
80000058:	e3800b02 	orr	r0, r0, #2048	; 0x800
8000005c:	ee010f10 	mcr	15, 0, r0, cr1, cr0, {0}
80000060:	ee111f50 	mrc	15, 0, r1, cr1, cr0, {2}
80000064:	e381160f 	orr	r1, r1, #15728640	; 0xf00000
80000068:	ee011f50 	mcr	15, 0, r1, cr1, cr0, {2}
8000006c:	e3a01000 	mov	r1, #0
80000070:	ee071f95 	mcr	15, 0, r1, cr7, cr5, {4}
80000074:	e3a00101 	mov	r0, #1073741824	; 0x40000000
80000078:	eee80a10 	vmsr	fpexc, r0
8000007c:	e59f0094 	ldr	r0, [pc, #148]	; 0x80000118
80000080:	e59f1094 	ldr	r1, [pc, #148]	; 0x8000011c
80000084:	e3a02000 	mov	r2, #0
80000088:	e4802004 	str	r2, [r0], #4
8000008c:	e1500001 	cmp	r0, r1
80000090:	dafffffc 	ble	0x80000088
80000094:	e59fa084 	ldr	sl, [pc, #132]	; 0x80000120
80000098:	e1a0e00f 	mov	lr, pc
8000009c:	e12fff1a 	bx	sl
800000a0:	e24ff008 	sub	pc, pc, #8
800000a4:	e92d4003 	push	{r0, r1, lr}
800000a8:	e24dd004 	sub	sp, sp, #4
800000ac:	e51e0004 	ldr	r0, [lr, #-4]
800000b0:	e3c00001 	bic	r0, r0, #1
800000b4:	e3500807 	cmp	r0, #458752	; 0x70000
800000b8:	014f1000 	mrseq	r1, SPSR
800000bc:	0381101f 	orreq	r1, r1, #31
800000c0:	0169f001 	msreq	SPSR_fc, r1
800000c4:	e28dd004 	add	sp, sp, #4
800000c8:	e8fd8003 	ldm	sp!, {r0, r1, pc}^
800000cc:	e24ee004 	sub	lr, lr, #4
800000d0:	e92d500f 	push	{r0, r1, r2, r3, ip, lr}
800000d4:	e14fc000 	mrs	ip, SPSR
800000d8:	eef11a10 	vmrs	r1, fpscr
800000dc:	eef82a10 	vmrs	r2, fpexc
800000e0:	e92d1006 	push	{r1, r2, ip}
800000e4:	ed2d0b10 	vpush	{d0-d7}
800000e8:	ed6d0b20 	vpush	{d16-d31}
800000ec:	eb00172e 	bl	0x80005dac
800000f0:	ecfd0b20 	vpop	{d16-d31}
800000f4:	ecbd0b10 	vpop	{d0-d7}
800000f8:	e8bd1006 	pop	{r1, r2, ip}
800000fc:	e169f00c 	msr	SPSR_fc, ip
80000100:	eee11a10 	vmsr	fpscr, r1
80000104:	eee82a10 	vmsr	fpexc, r2
80000108:	e8fd900f 	ldm	sp!, {r0, r1, r2, r3, ip, pc}^
8000010c:	e25ef004 	subs	pc, lr, #4
80000110:	eafffffe 	b	0x80000110
80000114:	80016cb8 			; <UNDEFINED> instruction: 0x80016cb8
80000118:	800060ac 	andhi	r6, r0, ip, lsr #1
8000011c:	800064b4 			; <UNDEFINED> instruction: 0x800064b4
80000120:	80000b70 	andhi	r0, r0, r0, ror fp

Disassembly of section .text:

80000124 <.text>:
80000124:	e52db004 	push	{fp}		; (str fp, [sp, #-4]!)
80000128:	e28db000 	add	fp, sp, #0
8000012c:	e24dd014 	sub	sp, sp, #20
80000130:	e1a03000 	mov	r3, r0
80000134:	e50b1014 	str	r1, [fp, #-20]	; 0xffffffec
80000138:	e54b300d 	strb	r3, [fp, #-13]
8000013c:	e3a03000 	mov	r3, #0
80000140:	e54b3005 	strb	r3, [fp, #-5]
80000144:	e51b3014 	ldr	r3, [fp, #-20]	; 0xffffffec
80000148:	e353000a 	cmp	r3, #10
8000014c:	0a000002 	beq	0x8000015c
80000150:	e51b3014 	ldr	r3, [fp, #-20]	; 0xffffffec
80000154:	e3530010 	cmp	r3, #16
80000158:	1a000026 	bne	0x800001f8
8000015c:	e55b300d 	ldrb	r3, [fp, #-13]
80000160:	e353002f 	cmp	r3, #47	; 0x2f
80000164:	9a000007 	bls	0x80000188
80000168:	e55b300d 	ldrb	r3, [fp, #-13]
8000016c:	e3530039 	cmp	r3, #57	; 0x39
80000170:	8a000004 	bhi	0x80000188
80000174:	e55b300d 	ldrb	r3, [fp, #-13]
80000178:	e2433030 	sub	r3, r3, #48	; 0x30
8000017c:	e54b3005 	strb	r3, [fp, #-5]
80000180:	e55b3005 	ldrb	r3, [fp, #-5]
80000184:	ea00001c 	b	0x800001fc
80000188:	e51b3014 	ldr	r3, [fp, #-20]	; 0xffffffec
8000018c:	e3530010 	cmp	r3, #16
80000190:	1a00000a 	bne	0x800001c0
80000194:	e55b300d 	ldrb	r3, [fp, #-13]
80000198:	e3530040 	cmp	r3, #64	; 0x40
8000019c:	9a000007 	bls	0x800001c0
800001a0:	e55b300d 	ldrb	r3, [fp, #-13]
800001a4:	e3530046 	cmp	r3, #70	; 0x46
800001a8:	8a000004 	bhi	0x800001c0
800001ac:	e55b300d 	ldrb	r3, [fp, #-13]
800001b0:	e2433037 	sub	r3, r3, #55	; 0x37
800001b4:	e54b3005 	strb	r3, [fp, #-5]
800001b8:	e55b3005 	ldrb	r3, [fp, #-5]
800001bc:	ea00000e 	b	0x800001fc
800001c0:	e51b3014 	ldr	r3, [fp, #-20]	; 0xffffffec
800001c4:	e3530010 	cmp	r3, #16
800001c8:	1a00000a 	bne	0x800001f8
800001cc:	e55b300d 	ldrb	r3, [fp, #-13]
800001d0:	e3530060 	cmp	r3, #96	; 0x60
800001d4:	9a000007 	bls	0x800001f8
800001d8:	e55b300d 	ldrb	r3, [fp, #-13]
800001dc:	e3530066 	cmp	r3, #102	; 0x66
800001e0:	8a000004 	bhi	0x800001f8
800001e4:	e55b300d 	ldrb	r3, [fp, #-13]
800001e8:	e2433057 	sub	r3, r3, #87	; 0x57
800001ec:	e54b3005 	strb	r3, [fp, #-5]
800001f0:	e55b3005 	ldrb	r3, [fp, #-5]
800001f4:	ea000000 	b	0x800001fc
800001f8:	e3a030ff 	mov	r3, #255	; 0xff
800001fc:	e1a00003 	mov	r0, r3
80000200:	e28bd000 	add	sp, fp, #0
80000204:	e49db004 	pop	{fp}		; (ldr fp, [sp], #4)
80000208:	e12fff1e 	bx	lr
8000020c:	e52db004 	push	{fp}		; (str fp, [sp, #-4]!)
80000210:	e28db000 	add	fp, sp, #0
80000214:	e24dd014 	sub	sp, sp, #20
80000218:	e1a03000 	mov	r3, r0
8000021c:	e50b1014 	str	r1, [fp, #-20]	; 0xffffffec
80000220:	e54b300d 	strb	r3, [fp, #-13]
80000224:	e3a03000 	mov	r3, #0
80000228:	e50b3008 	str	r3, [fp, #-8]
8000022c:	e55b300d 	ldrb	r3, [fp, #-13]
80000230:	e203300f 	and	r3, r3, #15
80000234:	e54b3009 	strb	r3, [fp, #-9]
80000238:	e51b3014 	ldr	r3, [fp, #-20]	; 0xffffffec
8000023c:	e353000a 	cmp	r3, #10
80000240:	0a000002 	beq	0x80000250
80000244:	e51b3014 	ldr	r3, [fp, #-20]	; 0xffffffec
80000248:	e3530010 	cmp	r3, #16
8000024c:	1a000017 	bne	0x800002b0
80000250:	e55b3009 	ldrb	r3, [fp, #-9]
80000254:	e3530009 	cmp	r3, #9
80000258:	8a000005 	bhi	0x80000274
8000025c:	e55b3009 	ldrb	r3, [fp, #-9]
80000260:	e2833030 	add	r3, r3, #48	; 0x30
80000264:	e50b3008 	str	r3, [fp, #-8]
80000268:	e51b3008 	ldr	r3, [fp, #-8]
8000026c:	e6ef3073 	uxtb	r3, r3
80000270:	ea00000f 	b	0x800002b4
80000274:	e51b3014 	ldr	r3, [fp, #-20]	; 0xffffffec
80000278:	e3530010 	cmp	r3, #16
8000027c:	1a00000b 	bne	0x800002b0
80000280:	e55b3009 	ldrb	r3, [fp, #-9]
80000284:	e3530009 	cmp	r3, #9
80000288:	9a000008 	bls	0x800002b0
8000028c:	e55b3009 	ldrb	r3, [fp, #-9]
80000290:	e353000f 	cmp	r3, #15
80000294:	8a000005 	bhi	0x800002b0
80000298:	e55b3009 	ldrb	r3, [fp, #-9]
8000029c:	e2833037 	add	r3, r3, #55	; 0x37
800002a0:	e50b3008 	str	r3, [fp, #-8]
800002a4:	e51b3008 	ldr	r3, [fp, #-8]
800002a8:	e6ef3073 	uxtb	r3, r3
800002ac:	ea000000 	b	0x800002b4
800002b0:	e3a030ff 	mov	r3, #255	; 0xff
800002b4:	e1a00003 	mov	r0, r3
800002b8:	e28bd000 	add	sp, fp, #0
800002bc:	e49db004 	pop	{fp}		; (ldr fp, [sp], #4)
800002c0:	e12fff1e 	bx	lr
800002c4:	e92d4800 	push	{fp, lr}
800002c8:	e28db004 	add	fp, sp, #4
800002cc:	e24dd010 	sub	sp, sp, #16
800002d0:	e50b0010 	str	r0, [fp, #-16]
800002d4:	e50b1014 	str	r1, [fp, #-20]	; 0xffffffec
800002d8:	e3a03000 	mov	r3, #0
800002dc:	e50b3008 	str	r3, [fp, #-8]
800002e0:	e3a03000 	mov	r3, #0
800002e4:	e54b3009 	strb	r3, [fp, #-9]
800002e8:	e3a03000 	mov	r3, #0
800002ec:	e54b300a 	strb	r3, [fp, #-10]
800002f0:	e3a03000 	mov	r3, #0
800002f4:	e50b3008 	str	r3, [fp, #-8]
800002f8:	ea000044 	b	0x80000410
800002fc:	e51b2008 	ldr	r2, [fp, #-8]
80000300:	e1a03002 	mov	r3, r2
80000304:	e1a03083 	lsl	r3, r3, #1
80000308:	e0833002 	add	r3, r3, r2
8000030c:	e2833001 	add	r3, r3, #1
80000310:	e51b2010 	ldr	r2, [fp, #-16]
80000314:	e0823003 	add	r3, r2, r3
80000318:	e5d33000 	ldrb	r3, [r3]
8000031c:	e3a01010 	mov	r1, #16
80000320:	e1a00003 	mov	r0, r3
80000324:	ebffff7e 	bl	0x80000124
80000328:	e1a03000 	mov	r3, r0
8000032c:	e54b3009 	strb	r3, [fp, #-9]
80000330:	e51b2008 	ldr	r2, [fp, #-8]
80000334:	e1a03002 	mov	r3, r2
80000338:	e1a03083 	lsl	r3, r3, #1
8000033c:	e0833002 	add	r3, r3, r2
80000340:	e51b2010 	ldr	r2, [fp, #-16]
80000344:	e0823003 	add	r3, r2, r3
80000348:	e5d33000 	ldrb	r3, [r3]
8000034c:	e3a01010 	mov	r1, #16
80000350:	e1a00003 	mov	r0, r3
80000354:	ebffff72 	bl	0x80000124
80000358:	e1a03000 	mov	r3, r0
8000035c:	e54b300a 	strb	r3, [fp, #-10]
80000360:	e51b3008 	ldr	r3, [fp, #-8]
80000364:	e3530005 	cmp	r3, #5
80000368:	0a00000e 	beq	0x800003a8
8000036c:	e51b2008 	ldr	r2, [fp, #-8]
80000370:	e1a03002 	mov	r3, r2
80000374:	e1a03083 	lsl	r3, r3, #1
80000378:	e0833002 	add	r3, r3, r2
8000037c:	e2833002 	add	r3, r3, #2
80000380:	e51b2010 	ldr	r2, [fp, #-16]
80000384:	e0823003 	add	r3, r2, r3
80000388:	e5d33000 	ldrb	r3, [r3]
8000038c:	e353002d 	cmp	r3, #45	; 0x2d
80000390:	0a000004 	beq	0x800003a8
80000394:	e51b2008 	ldr	r2, [fp, #-8]
80000398:	e1a03002 	mov	r3, r2
8000039c:	e1a03083 	lsl	r3, r3, #1
800003a0:	e0833002 	add	r3, r3, r2
800003a4:	ea000020 	b	0x8000042c
800003a8:	e55b3009 	ldrb	r3, [fp, #-9]
800003ac:	e35300ff 	cmp	r3, #255	; 0xff
800003b0:	0a000011 	beq	0x800003fc
800003b4:	e55b300a 	ldrb	r3, [fp, #-10]
800003b8:	e35300ff 	cmp	r3, #255	; 0xff
800003bc:	0a00000e 	beq	0x800003fc
800003c0:	e51b2014 	ldr	r2, [fp, #-20]	; 0xffffffec
800003c4:	e51b3008 	ldr	r3, [fp, #-8]
800003c8:	e0823003 	add	r3, r2, r3
800003cc:	e55b200a 	ldrb	r2, [fp, #-10]
800003d0:	e1a02202 	lsl	r2, r2, #4
800003d4:	e6af1072 	sxtb	r1, r2
800003d8:	e15b20d9 	ldrsb	r2, [fp, #-9]
800003dc:	e1812002 	orr	r2, r1, r2
800003e0:	e6af2072 	sxtb	r2, r2
800003e4:	e6ef2072 	uxtb	r2, r2
800003e8:	e5c32000 	strb	r2, [r3]
800003ec:	e51b3008 	ldr	r3, [fp, #-8]
800003f0:	e2833001 	add	r3, r3, #1
800003f4:	e50b3008 	str	r3, [fp, #-8]
800003f8:	ea000004 	b	0x80000410
800003fc:	e51b2008 	ldr	r2, [fp, #-8]
80000400:	e1a03002 	mov	r3, r2
80000404:	e1a03083 	lsl	r3, r3, #1
80000408:	e0833002 	add	r3, r3, r2
8000040c:	ea000006 	b	0x8000042c
80000410:	e51b3008 	ldr	r3, [fp, #-8]
80000414:	e3530005 	cmp	r3, #5
80000418:	9affffb7 	bls	0x800002fc
8000041c:	e51b2008 	ldr	r2, [fp, #-8]
80000420:	e1a03002 	mov	r3, r2
80000424:	e1a03083 	lsl	r3, r3, #1
80000428:	e0833002 	add	r3, r3, r2
8000042c:	e1a00003 	mov	r0, r3
80000430:	e24bd004 	sub	sp, fp, #4
80000434:	e8bd8800 	pop	{fp, pc}
80000438:	e92d4800 	push	{fp, lr}
8000043c:	e28db004 	add	fp, sp, #4
80000440:	e24dd010 	sub	sp, sp, #16
80000444:	e50b0010 	str	r0, [fp, #-16]
80000448:	e50b1014 	str	r1, [fp, #-20]	; 0xffffffec
8000044c:	e3a03000 	mov	r3, #0
80000450:	e50b3008 	str	r3, [fp, #-8]
80000454:	e3a03000 	mov	r3, #0
80000458:	e54b3009 	strb	r3, [fp, #-9]
8000045c:	e3a03000 	mov	r3, #0
80000460:	e54b300a 	strb	r3, [fp, #-10]
80000464:	e3a03000 	mov	r3, #0
80000468:	e50b3008 	str	r3, [fp, #-8]
8000046c:	ea000046 	b	0x8000058c
80000470:	e51b2010 	ldr	r2, [fp, #-16]
80000474:	e51b3008 	ldr	r3, [fp, #-8]
80000478:	e0823003 	add	r3, r2, r3
8000047c:	e5d33000 	ldrb	r3, [r3]
80000480:	e1a03223 	lsr	r3, r3, #4
80000484:	e6ef3073 	uxtb	r3, r3
80000488:	e3a01010 	mov	r1, #16
8000048c:	e1a00003 	mov	r0, r3
80000490:	ebffff5d 	bl	0x8000020c
80000494:	e1a03000 	mov	r3, r0
80000498:	e54b300a 	strb	r3, [fp, #-10]
8000049c:	e51b2010 	ldr	r2, [fp, #-16]
800004a0:	e51b3008 	ldr	r3, [fp, #-8]
800004a4:	e0823003 	add	r3, r2, r3
800004a8:	e5d33000 	ldrb	r3, [r3]
800004ac:	e3a01010 	mov	r1, #16
800004b0:	e1a00003 	mov	r0, r3
800004b4:	ebffff54 	bl	0x8000020c
800004b8:	e1a03000 	mov	r3, r0
800004bc:	e54b3009 	strb	r3, [fp, #-9]
800004c0:	e55b3009 	ldrb	r3, [fp, #-9]
800004c4:	e35300ff 	cmp	r3, #255	; 0xff
800004c8:	0a00002a 	beq	0x80000578
800004cc:	e55b300a 	ldrb	r3, [fp, #-10]
800004d0:	e35300ff 	cmp	r3, #255	; 0xff
800004d4:	0a000027 	beq	0x80000578
800004d8:	e51b2008 	ldr	r2, [fp, #-8]
800004dc:	e1a03002 	mov	r3, r2
800004e0:	e1a03083 	lsl	r3, r3, #1
800004e4:	e0833002 	add	r3, r3, r2
800004e8:	e2833001 	add	r3, r3, #1
800004ec:	e51b2014 	ldr	r2, [fp, #-20]	; 0xffffffec
800004f0:	e0823003 	add	r3, r2, r3
800004f4:	e55b2009 	ldrb	r2, [fp, #-9]
800004f8:	e5c32000 	strb	r2, [r3]
800004fc:	e51b2008 	ldr	r2, [fp, #-8]
80000500:	e1a03002 	mov	r3, r2
80000504:	e1a03083 	lsl	r3, r3, #1
80000508:	e0833002 	add	r3, r3, r2
8000050c:	e51b2014 	ldr	r2, [fp, #-20]	; 0xffffffec
80000510:	e0823003 	add	r3, r2, r3
80000514:	e55b200a 	ldrb	r2, [fp, #-10]
80000518:	e5c32000 	strb	r2, [r3]
8000051c:	e51b3008 	ldr	r3, [fp, #-8]
80000520:	e3530005 	cmp	r3, #5
80000524:	1a000009 	bne	0x80000550
80000528:	e51b2008 	ldr	r2, [fp, #-8]
8000052c:	e1a03002 	mov	r3, r2
80000530:	e1a03083 	lsl	r3, r3, #1
80000534:	e0833002 	add	r3, r3, r2
80000538:	e2833002 	add	r3, r3, #2
8000053c:	e51b2014 	ldr	r2, [fp, #-20]	; 0xffffffec
80000540:	e0823003 	add	r3, r2, r3
80000544:	e3a02000 	mov	r2, #0
80000548:	e5c32000 	strb	r2, [r3]
8000054c:	ea00000b 	b	0x80000580
80000550:	e51b2008 	ldr	r2, [fp, #-8]
80000554:	e1a03002 	mov	r3, r2
80000558:	e1a03083 	lsl	r3, r3, #1
8000055c:	e0833002 	add	r3, r3, r2
80000560:	e2833002 	add	r3, r3, #2
80000564:	e51b2014 	ldr	r2, [fp, #-20]	; 0xffffffec
80000568:	e0823003 	add	r3, r2, r3
8000056c:	e3a0202d 	mov	r2, #45	; 0x2d
80000570:	e5c32000 	strb	r2, [r3]
80000574:	ea000001 	b	0x80000580
80000578:	e51b3008 	ldr	r3, [fp, #-8]
8000057c:	ea000006 	b	0x8000059c
80000580:	e51b3008 	ldr	r3, [fp, #-8]
80000584:	e2833001 	add	r3, r3, #1
80000588:	e50b3008 	str	r3, [fp, #-8]
8000058c:	e51b3008 	ldr	r3, [fp, #-8]
80000590:	e3530005 	cmp	r3, #5
80000594:	9affffb5 	bls	0x80000470
80000598:	e51b3008 	ldr	r3, [fp, #-8]
8000059c:	e1a00003 	mov	r0, r3
800005a0:	e24bd004 	sub	sp, fp, #4
800005a4:	e8bd8800 	pop	{fp, pc}
800005a8:	e92d4800 	push	{fp, lr}
800005ac:	e28db004 	add	fp, sp, #4
800005b0:	e24dd010 	sub	sp, sp, #16
800005b4:	e50b0010 	str	r0, [fp, #-16]
800005b8:	e50b1014 	str	r1, [fp, #-20]	; 0xffffffec
800005bc:	e3a03000 	mov	r3, #0
800005c0:	e50b3008 	str	r3, [fp, #-8]
800005c4:	e3a03000 	mov	r3, #0
800005c8:	e54b3009 	strb	r3, [fp, #-9]
800005cc:	e3a03000 	mov	r3, #0
800005d0:	e54b300a 	strb	r3, [fp, #-10]
800005d4:	e3a03000 	mov	r3, #0
800005d8:	e50b3008 	str	r3, [fp, #-8]
800005dc:	ea000049 	b	0x80000708
800005e0:	e51b3008 	ldr	r3, [fp, #-8]
800005e4:	e1a03183 	lsl	r3, r3, #3
800005e8:	e283300c 	add	r3, r3, #12
800005ec:	e51b2010 	ldr	r2, [fp, #-16]
800005f0:	e1a03332 	lsr	r3, r2, r3
800005f4:	e6ef3073 	uxtb	r3, r3
800005f8:	e3a0100a 	mov	r1, #10
800005fc:	e1a00003 	mov	r0, r3
80000600:	ebffff01 	bl	0x8000020c
80000604:	e1a03000 	mov	r3, r0
80000608:	e54b300a 	strb	r3, [fp, #-10]
8000060c:	e51b3008 	ldr	r3, [fp, #-8]
80000610:	e2833001 	add	r3, r3, #1
80000614:	e1a03183 	lsl	r3, r3, #3
80000618:	e51b2010 	ldr	r2, [fp, #-16]
8000061c:	e1a03332 	lsr	r3, r2, r3
80000620:	e6ef3073 	uxtb	r3, r3
80000624:	e3a0100a 	mov	r1, #10
80000628:	e1a00003 	mov	r0, r3
8000062c:	ebfffef6 	bl	0x8000020c
80000630:	e1a03000 	mov	r3, r0
80000634:	e54b3009 	strb	r3, [fp, #-9]
80000638:	e55b3009 	ldrb	r3, [fp, #-9]
8000063c:	e35300ff 	cmp	r3, #255	; 0xff
80000640:	0a00002b 	beq	0x800006f4
80000644:	e55b300a 	ldrb	r3, [fp, #-10]
80000648:	e35300ff 	cmp	r3, #255	; 0xff
8000064c:	0a000028 	beq	0x800006f4
80000650:	e51b3008 	ldr	r3, [fp, #-8]
80000654:	e1a02003 	mov	r2, r3
80000658:	e1a03103 	lsl	r3, r3, #2
8000065c:	e0423003 	sub	r3, r2, r3
80000660:	e2833007 	add	r3, r3, #7
80000664:	e51b2014 	ldr	r2, [fp, #-20]	; 0xffffffec
80000668:	e0823003 	add	r3, r2, r3
8000066c:	e55b2009 	ldrb	r2, [fp, #-9]
80000670:	e5c32000 	strb	r2, [r3]
80000674:	e51b3008 	ldr	r3, [fp, #-8]
80000678:	e1a02003 	mov	r2, r3
8000067c:	e1a03103 	lsl	r3, r3, #2
80000680:	e0423003 	sub	r3, r2, r3
80000684:	e2833006 	add	r3, r3, #6
80000688:	e51b2014 	ldr	r2, [fp, #-20]	; 0xffffffec
8000068c:	e0823003 	add	r3, r2, r3
80000690:	e55b200a 	ldrb	r2, [fp, #-10]
80000694:	e5c32000 	strb	r2, [r3]
80000698:	e51b3008 	ldr	r3, [fp, #-8]
8000069c:	e3530000 	cmp	r3, #0
800006a0:	1a000009 	bne	0x800006cc
800006a4:	e51b3008 	ldr	r3, [fp, #-8]
800006a8:	e1a02003 	mov	r2, r3
800006ac:	e1a03103 	lsl	r3, r3, #2
800006b0:	e0423003 	sub	r3, r2, r3
800006b4:	e2833008 	add	r3, r3, #8
800006b8:	e51b2014 	ldr	r2, [fp, #-20]	; 0xffffffec
800006bc:	e0823003 	add	r3, r2, r3
800006c0:	e3a02000 	mov	r2, #0
800006c4:	e5c32000 	strb	r2, [r3]
800006c8:	ea00000b 	b	0x800006fc
800006cc:	e51b3008 	ldr	r3, [fp, #-8]
800006d0:	e1a02003 	mov	r2, r3
800006d4:	e1a03103 	lsl	r3, r3, #2
800006d8:	e0423003 	sub	r3, r2, r3
800006dc:	e2833008 	add	r3, r3, #8
800006e0:	e51b2014 	ldr	r2, [fp, #-20]	; 0xffffffec
800006e4:	e0823003 	add	r3, r2, r3
800006e8:	e3a0203a 	mov	r2, #58	; 0x3a
800006ec:	e5c32000 	strb	r2, [r3]
800006f0:	ea000001 	b	0x800006fc
800006f4:	e51b3008 	ldr	r3, [fp, #-8]
800006f8:	ea000006 	b	0x80000718
800006fc:	e51b3008 	ldr	r3, [fp, #-8]
80000700:	e2833001 	add	r3, r3, #1
80000704:	e50b3008 	str	r3, [fp, #-8]
80000708:	e51b3008 	ldr	r3, [fp, #-8]
8000070c:	e3530002 	cmp	r3, #2
80000710:	9affffb2 	bls	0x800005e0
80000714:	e51b3008 	ldr	r3, [fp, #-8]
80000718:	e1a00003 	mov	r0, r3
8000071c:	e24bd004 	sub	sp, fp, #4
80000720:	e8bd8800 	pop	{fp, pc}
80000724:	e92d4800 	push	{fp, lr}
80000728:	e28db004 	add	fp, sp, #4
8000072c:	e24dd010 	sub	sp, sp, #16
80000730:	e50b0010 	str	r0, [fp, #-16]
80000734:	e50b1014 	str	r1, [fp, #-20]	; 0xffffffec
80000738:	e3a03000 	mov	r3, #0
8000073c:	e50b3008 	str	r3, [fp, #-8]
80000740:	e3a03000 	mov	r3, #0
80000744:	e54b3009 	strb	r3, [fp, #-9]
80000748:	e3a03000 	mov	r3, #0
8000074c:	e54b300a 	strb	r3, [fp, #-10]
80000750:	e3a03000 	mov	r3, #0
80000754:	e50b3008 	str	r3, [fp, #-8]
80000758:	ea000049 	b	0x80000884
8000075c:	e51b3008 	ldr	r3, [fp, #-8]
80000760:	e1a03183 	lsl	r3, r3, #3
80000764:	e283300c 	add	r3, r3, #12
80000768:	e51b2010 	ldr	r2, [fp, #-16]
8000076c:	e1a03332 	lsr	r3, r2, r3
80000770:	e6ef3073 	uxtb	r3, r3
80000774:	e3a0100a 	mov	r1, #10
80000778:	e1a00003 	mov	r0, r3
8000077c:	ebfffea2 	bl	0x8000020c
80000780:	e1a03000 	mov	r3, r0
80000784:	e54b300a 	strb	r3, [fp, #-10]
80000788:	e51b3008 	ldr	r3, [fp, #-8]
8000078c:	e2833001 	add	r3, r3, #1
80000790:	e1a03183 	lsl	r3, r3, #3
80000794:	e51b2010 	ldr	r2, [fp, #-16]
80000798:	e1a03332 	lsr	r3, r2, r3
8000079c:	e6ef3073 	uxtb	r3, r3
800007a0:	e3a0100a 	mov	r1, #10
800007a4:	e1a00003 	mov	r0, r3
800007a8:	ebfffe97 	bl	0x8000020c
800007ac:	e1a03000 	mov	r3, r0
800007b0:	e54b3009 	strb	r3, [fp, #-9]
800007b4:	e55b3009 	ldrb	r3, [fp, #-9]
800007b8:	e35300ff 	cmp	r3, #255	; 0xff
800007bc:	0a00002b 	beq	0x80000870
800007c0:	e55b300a 	ldrb	r3, [fp, #-10]
800007c4:	e35300ff 	cmp	r3, #255	; 0xff
800007c8:	0a000028 	beq	0x80000870
800007cc:	e51b3008 	ldr	r3, [fp, #-8]
800007d0:	e1a02003 	mov	r2, r3
800007d4:	e1a03103 	lsl	r3, r3, #2
800007d8:	e0423003 	sub	r3, r2, r3
800007dc:	e2833007 	add	r3, r3, #7
800007e0:	e51b2014 	ldr	r2, [fp, #-20]	; 0xffffffec
800007e4:	e0823003 	add	r3, r2, r3
800007e8:	e55b2009 	ldrb	r2, [fp, #-9]
800007ec:	e5c32000 	strb	r2, [r3]
800007f0:	e51b3008 	ldr	r3, [fp, #-8]
800007f4:	e1a02003 	mov	r2, r3
800007f8:	e1a03103 	lsl	r3, r3, #2
800007fc:	e0423003 	sub	r3, r2, r3
80000800:	e2833006 	add	r3, r3, #6
80000804:	e51b2014 	ldr	r2, [fp, #-20]	; 0xffffffec
80000808:	e0823003 	add	r3, r2, r3
8000080c:	e55b200a 	ldrb	r2, [fp, #-10]
80000810:	e5c32000 	strb	r2, [r3]
80000814:	e51b3008 	ldr	r3, [fp, #-8]
80000818:	e3530000 	cmp	r3, #0
8000081c:	1a000009 	bne	0x80000848
80000820:	e51b3008 	ldr	r3, [fp, #-8]
80000824:	e1a02003 	mov	r2, r3
80000828:	e1a03103 	lsl	r3, r3, #2
8000082c:	e0423003 	sub	r3, r2, r3
80000830:	e2833008 	add	r3, r3, #8
80000834:	e51b2014 	ldr	r2, [fp, #-20]	; 0xffffffec
80000838:	e0823003 	add	r3, r2, r3
8000083c:	e3a02000 	mov	r2, #0
80000840:	e5c32000 	strb	r2, [r3]
80000844:	ea00000b 	b	0x80000878
80000848:	e51b3008 	ldr	r3, [fp, #-8]
8000084c:	e1a02003 	mov	r2, r3
80000850:	e1a03103 	lsl	r3, r3, #2
80000854:	e0423003 	sub	r3, r2, r3
80000858:	e2833008 	add	r3, r3, #8
8000085c:	e51b2014 	ldr	r2, [fp, #-20]	; 0xffffffec
80000860:	e0823003 	add	r3, r2, r3
80000864:	e3a0202f 	mov	r2, #47	; 0x2f
80000868:	e5c32000 	strb	r2, [r3]
8000086c:	ea000001 	b	0x80000878
80000870:	e51b3008 	ldr	r3, [fp, #-8]
80000874:	ea000006 	b	0x80000894
80000878:	e51b3008 	ldr	r3, [fp, #-8]
8000087c:	e2833001 	add	r3, r3, #1
80000880:	e50b3008 	str	r3, [fp, #-8]
80000884:	e51b3008 	ldr	r3, [fp, #-8]
80000888:	e3530002 	cmp	r3, #2
8000088c:	9affffb2 	bls	0x8000075c
80000890:	e51b3008 	ldr	r3, [fp, #-8]
80000894:	e1a00003 	mov	r0, r3
80000898:	e24bd004 	sub	sp, fp, #4
8000089c:	e8bd8800 	pop	{fp, pc}
800008a0:	e92d4800 	push	{fp, lr}
800008a4:	e28db004 	add	fp, sp, #4
800008a8:	eb000c5f 	bl	0x80003a2c
800008ac:	e320f000 	nop	{0}
800008b0:	e8bd8800 	pop	{fp, pc}
800008b4:	e92d4800 	push	{fp, lr}
800008b8:	e28db004 	add	fp, sp, #4
800008bc:	e24dd008 	sub	sp, sp, #8
800008c0:	e1a03000 	mov	r3, r0
800008c4:	e54b3005 	strb	r3, [fp, #-5]
800008c8:	e55b3005 	ldrb	r3, [fp, #-5]
800008cc:	e3530001 	cmp	r3, #1
800008d0:	8a000004 	bhi	0x800008e8
800008d4:	e30630ac 	movw	r3, #24748	; 0x60ac
800008d8:	e3483000 	movt	r3, #32768	; 0x8000
800008dc:	e55b2005 	ldrb	r2, [fp, #-5]
800008e0:	e5c32000 	strb	r2, [r3]
800008e4:	ea000003 	b	0x800008f8
800008e8:	e3e01000 	mvn	r1, #0
800008ec:	e3050fd0 	movw	r0, #24528	; 0x5fd0
800008f0:	e3480000 	movt	r0, #32768	; 0x8000
800008f4:	eb000c81 	bl	0x80003b00
800008f8:	e320f000 	nop	{0}
800008fc:	e24bd004 	sub	sp, fp, #4
80000900:	e8bd8800 	pop	{fp, pc}
80000904:	e92d000f 	push	{r0, r1, r2, r3}
80000908:	e92d4800 	push	{fp, lr}
8000090c:	e28db004 	add	fp, sp, #4
80000910:	e24dd008 	sub	sp, sp, #8
80000914:	e28b3008 	add	r3, fp, #8
80000918:	e50b3008 	str	r3, [fp, #-8]
8000091c:	e30630ac 	movw	r3, #24748	; 0x60ac
80000920:	e3483000 	movt	r3, #32768	; 0x8000
80000924:	e5d33000 	ldrb	r3, [r3]
80000928:	e3530001 	cmp	r3, #1
8000092c:	1a000004 	bne	0x80000944
80000930:	e3e01000 	mvn	r1, #0
80000934:	e3050ff4 	movw	r0, #24564	; 0x5ff4
80000938:	e3480000 	movt	r0, #32768	; 0x8000
8000093c:	eb000c6f 	bl	0x80003b00
80000940:	ea000002 	b	0x80000950
80000944:	e51b1008 	ldr	r1, [fp, #-8]
80000948:	e59b0004 	ldr	r0, [fp, #4]
8000094c:	eb00122e 	bl	0x8000520c
80000950:	e320f000 	nop	{0}
80000954:	e24bd004 	sub	sp, fp, #4
80000958:	e8bd4800 	pop	{fp, lr}
8000095c:	e28dd010 	add	sp, sp, #16
80000960:	e12fff1e 	bx	lr
80000964:	e92d000f 	push	{r0, r1, r2, r3}
80000968:	e92d4800 	push	{fp, lr}
8000096c:	e28db004 	add	fp, sp, #4
80000970:	e24dd008 	sub	sp, sp, #8
80000974:	e3e03000 	mvn	r3, #0
80000978:	e50b3008 	str	r3, [fp, #-8]
8000097c:	e28b3008 	add	r3, fp, #8
80000980:	e50b300c 	str	r3, [fp, #-12]
80000984:	e30630ac 	movw	r3, #24748	; 0x60ac
80000988:	e3483000 	movt	r3, #32768	; 0x8000
8000098c:	e5d33000 	ldrb	r3, [r3]
80000990:	e3530001 	cmp	r3, #1
80000994:	1a000004 	bne	0x800009ac
80000998:	e3e01000 	mvn	r1, #0
8000099c:	e3050ff4 	movw	r0, #24564	; 0x5ff4
800009a0:	e3480000 	movt	r0, #32768	; 0x8000
800009a4:	eb000c55 	bl	0x80003b00
800009a8:	ea000003 	b	0x800009bc
800009ac:	e51b100c 	ldr	r1, [fp, #-12]
800009b0:	e59b0004 	ldr	r0, [fp, #4]
800009b4:	eb000fec 	bl	0x8000496c
800009b8:	e50b0008 	str	r0, [fp, #-8]
800009bc:	e51b3008 	ldr	r3, [fp, #-8]
800009c0:	e1a00003 	mov	r0, r3
800009c4:	e24bd004 	sub	sp, fp, #4
800009c8:	e8bd4800 	pop	{fp, lr}
800009cc:	e28dd010 	add	sp, sp, #16
800009d0:	e12fff1e 	bx	lr
800009d4:	e92d4800 	push	{fp, lr}
800009d8:	e28db004 	add	fp, sp, #4
800009dc:	e24dd010 	sub	sp, sp, #16
800009e0:	e50b0010 	str	r0, [fp, #-16]
800009e4:	e50b1014 	str	r1, [fp, #-20]	; 0xffffffec
800009e8:	e3a03000 	mov	r3, #0
800009ec:	e50b3008 	str	r3, [fp, #-8]
800009f0:	e30630ac 	movw	r3, #24748	; 0x60ac
800009f4:	e3483000 	movt	r3, #32768	; 0x8000
800009f8:	e5d33000 	ldrb	r3, [r3]
800009fc:	e3530001 	cmp	r3, #1
80000a00:	1a000004 	bne	0x80000a18
80000a04:	e3e01000 	mvn	r1, #0
80000a08:	e3050ff4 	movw	r0, #24564	; 0x5ff4
80000a0c:	e3480000 	movt	r0, #32768	; 0x8000
80000a10:	eb000c3a 	bl	0x80003b00
80000a14:	ea000003 	b	0x80000a28
80000a18:	e51b1014 	ldr	r1, [fp, #-20]	; 0xffffffec
80000a1c:	e51b0010 	ldr	r0, [fp, #-16]
80000a20:	eb000c69 	bl	0x80003bcc
80000a24:	e50b0008 	str	r0, [fp, #-8]
80000a28:	e51b3008 	ldr	r3, [fp, #-8]
80000a2c:	e1a00003 	mov	r0, r3
80000a30:	e24bd004 	sub	sp, fp, #4
80000a34:	e8bd8800 	pop	{fp, pc}
80000a38:	e92d4800 	push	{fp, lr}
80000a3c:	e28db004 	add	fp, sp, #4
80000a40:	e24dd008 	sub	sp, sp, #8
80000a44:	e50b0008 	str	r0, [fp, #-8]
80000a48:	e50b100c 	str	r1, [fp, #-12]
80000a4c:	e30630ac 	movw	r3, #24748	; 0x60ac
80000a50:	e3483000 	movt	r3, #32768	; 0x8000
80000a54:	e5d33000 	ldrb	r3, [r3]
80000a58:	e3530001 	cmp	r3, #1
80000a5c:	1a000004 	bne	0x80000a74
80000a60:	e3e01000 	mvn	r1, #0
80000a64:	e3050ff4 	movw	r0, #24564	; 0x5ff4
80000a68:	e3480000 	movt	r0, #32768	; 0x8000
80000a6c:	eb000c23 	bl	0x80003b00
80000a70:	ea000002 	b	0x80000a80
80000a74:	e51b100c 	ldr	r1, [fp, #-12]
80000a78:	e51b0008 	ldr	r0, [fp, #-8]
80000a7c:	eb000c1f 	bl	0x80003b00
80000a80:	e320f000 	nop	{0}
80000a84:	e24bd004 	sub	sp, fp, #4
80000a88:	e8bd8800 	pop	{fp, pc}
80000a8c:	e92d4800 	push	{fp, lr}
80000a90:	e28db004 	add	fp, sp, #4
80000a94:	e24dd008 	sub	sp, sp, #8
80000a98:	e3a03000 	mov	r3, #0
80000a9c:	e54b3005 	strb	r3, [fp, #-5]
80000aa0:	e3a03000 	mov	r3, #0
80000aa4:	e54b3006 	strb	r3, [fp, #-6]
80000aa8:	e30630ac 	movw	r3, #24748	; 0x60ac
80000aac:	e3483000 	movt	r3, #32768	; 0x8000
80000ab0:	e5d33000 	ldrb	r3, [r3]
80000ab4:	e3530001 	cmp	r3, #1
80000ab8:	1a000004 	bne	0x80000ad0
80000abc:	e3e01000 	mvn	r1, #0
80000ac0:	e3050ff4 	movw	r0, #24564	; 0x5ff4
80000ac4:	e3480000 	movt	r0, #32768	; 0x8000
80000ac8:	eb000c0c 	bl	0x80003b00
80000acc:	ea00000e 	b	0x80000b0c
80000ad0:	eb000dfd 	bl	0x800042cc
80000ad4:	e1a03000 	mov	r3, r0
80000ad8:	e54b3005 	strb	r3, [fp, #-5]
80000adc:	e55b3005 	ldrb	r3, [fp, #-5]
80000ae0:	e54b3006 	strb	r3, [fp, #-6]
80000ae4:	ea000002 	b	0x80000af4
80000ae8:	eb000df7 	bl	0x800042cc
80000aec:	e1a03000 	mov	r3, r0
80000af0:	e54b3006 	strb	r3, [fp, #-6]
80000af4:	e55b3006 	ldrb	r3, [fp, #-6]
80000af8:	e353000a 	cmp	r3, #10
80000afc:	0a000002 	beq	0x80000b0c
80000b00:	e55b3006 	ldrb	r3, [fp, #-6]
80000b04:	e353000d 	cmp	r3, #13
80000b08:	1afffff6 	bne	0x80000ae8
80000b0c:	e55b3005 	ldrb	r3, [fp, #-5]
80000b10:	e1a00003 	mov	r0, r3
80000b14:	e24bd004 	sub	sp, fp, #4
80000b18:	e8bd8800 	pop	{fp, pc}
80000b1c:	e92d4800 	push	{fp, lr}
80000b20:	e28db004 	add	fp, sp, #4
80000b24:	e24dd008 	sub	sp, sp, #8
80000b28:	e1a03000 	mov	r3, r0
80000b2c:	e54b3005 	strb	r3, [fp, #-5]
80000b30:	e30630ac 	movw	r3, #24748	; 0x60ac
80000b34:	e3483000 	movt	r3, #32768	; 0x8000
80000b38:	e5d33000 	ldrb	r3, [r3]
80000b3c:	e3530001 	cmp	r3, #1
80000b40:	1a000004 	bne	0x80000b58
80000b44:	e3e01000 	mvn	r1, #0
80000b48:	e3050ff4 	movw	r0, #24564	; 0x5ff4
80000b4c:	e3480000 	movt	r0, #32768	; 0x8000
80000b50:	eb000bea 	bl	0x80003b00
80000b54:	ea000002 	b	0x80000b64
80000b58:	e55b3005 	ldrb	r3, [fp, #-5]
80000b5c:	e1a00003 	mov	r0, r3
80000b60:	eb000dce 	bl	0x800042a0
80000b64:	e320f000 	nop	{0}
80000b68:	e24bd004 	sub	sp, fp, #4
80000b6c:	e8bd8800 	pop	{fp, pc}
80000b70:	e92d4800 	push	{fp, lr}
80000b74:	e28db004 	add	fp, sp, #4
80000b78:	e24dd008 	sub	sp, sp, #8
80000b7c:	eb000baa 	bl	0x80003a2c
80000b80:	e3a03032 	mov	r3, #50	; 0x32
80000b84:	e50b3008 	str	r3, [fp, #-8]
80000b88:	ea000005 	b	0x80000ba4
80000b8c:	e3060020 	movw	r0, #24608	; 0x6020
80000b90:	e3480000 	movt	r0, #32768	; 0x8000
80000b94:	eb00119c 	bl	0x8000520c
80000b98:	e51b3008 	ldr	r3, [fp, #-8]
80000b9c:	e2433001 	sub	r3, r3, #1
80000ba0:	e50b3008 	str	r3, [fp, #-8]
80000ba4:	e51b3008 	ldr	r3, [fp, #-8]
80000ba8:	e3530000 	cmp	r3, #0
80000bac:	cafffff6 	bgt	0x80000b8c
80000bb0:	e3a03032 	mov	r3, #50	; 0x32
80000bb4:	e50b3008 	str	r3, [fp, #-8]
80000bb8:	ea000005 	b	0x80000bd4
80000bbc:	e3060028 	movw	r0, #24616	; 0x6028
80000bc0:	e3480000 	movt	r0, #32768	; 0x8000
80000bc4:	eb001190 	bl	0x8000520c
80000bc8:	e51b3008 	ldr	r3, [fp, #-8]
80000bcc:	e2433001 	sub	r3, r3, #1
80000bd0:	e50b3008 	str	r3, [fp, #-8]
80000bd4:	e51b3008 	ldr	r3, [fp, #-8]
80000bd8:	e3530000 	cmp	r3, #0
80000bdc:	cafffff6 	bgt	0x80000bbc
80000be0:	e3a03000 	mov	r3, #0
80000be4:	e1a00003 	mov	r0, r3
80000be8:	e24bd004 	sub	sp, fp, #4
80000bec:	e8bd8800 	pop	{fp, pc}
80000bf0:	e52db004 	push	{fp}		; (str fp, [sp, #-4]!)
80000bf4:	e28db000 	add	fp, sp, #0
80000bf8:	e24dd00c 	sub	sp, sp, #12
80000bfc:	e50b0008 	str	r0, [fp, #-8]
80000c00:	e51b3008 	ldr	r3, [fp, #-8]
80000c04:	e3530000 	cmp	r3, #0
80000c08:	1a000007 	bne	0x80000c2c
80000c0c:	e3a03e97 	mov	r3, #2416	; 0x970
80000c10:	e34434e1 	movt	r3, #17633	; 0x44e1
80000c14:	e3a02030 	mov	r2, #48	; 0x30
80000c18:	e5832000 	str	r2, [r3]
80000c1c:	e3003974 	movw	r3, #2420	; 0x974
80000c20:	e34434e1 	movt	r3, #17633	; 0x44e1
80000c24:	e3a02010 	mov	r2, #16
80000c28:	e5832000 	str	r2, [r3]
80000c2c:	e320f000 	nop	{0}
80000c30:	e28bd000 	add	sp, fp, #0
80000c34:	e49db004 	pop	{fp}		; (ldr fp, [sp], #4)
80000c38:	e12fff1e 	bx	lr
80000c3c:	e52db004 	push	{fp}		; (str fp, [sp, #-4]!)
80000c40:	e28db000 	add	fp, sp, #0
80000c44:	e3a030e0 	mov	r3, #224	; 0xe0
80000c48:	e34434e0 	movt	r3, #17632	; 0x44e0
80000c4c:	e3a020e0 	mov	r2, #224	; 0xe0
80000c50:	e34424e0 	movt	r2, #17632	; 0x44e0
80000c54:	e5922000 	ldr	r2, [r2]
80000c58:	e3822002 	orr	r2, r2, #2
80000c5c:	e5832000 	str	r2, [r3]
80000c60:	e320f000 	nop	{0}
80000c64:	e3a030e0 	mov	r3, #224	; 0xe0
80000c68:	e34434e0 	movt	r3, #17632	; 0x44e0
80000c6c:	e5933000 	ldr	r3, [r3]
80000c70:	e2033003 	and	r3, r3, #3
80000c74:	e3530002 	cmp	r3, #2
80000c78:	1afffff9 	bne	0x80000c64
80000c7c:	e3a030dc 	mov	r3, #220	; 0xdc
80000c80:	e34434e0 	movt	r3, #17632	; 0x44e0
80000c84:	e3a020dc 	mov	r2, #220	; 0xdc
80000c88:	e34424e0 	movt	r2, #17632	; 0x44e0
80000c8c:	e5922000 	ldr	r2, [r2]
80000c90:	e3822002 	orr	r2, r2, #2
80000c94:	e5832000 	str	r2, [r3]
80000c98:	e320f000 	nop	{0}
80000c9c:	e3a030dc 	mov	r3, #220	; 0xdc
80000ca0:	e34434e0 	movt	r3, #17632	; 0x44e0
80000ca4:	e5933000 	ldr	r3, [r3]
80000ca8:	e2033003 	and	r3, r3, #3
80000cac:	e3530002 	cmp	r3, #2
80000cb0:	1afffff9 	bne	0x80000c9c
80000cb4:	e3a0300c 	mov	r3, #12
80000cb8:	e34434e0 	movt	r3, #17632	; 0x44e0
80000cbc:	e3a0200c 	mov	r2, #12
80000cc0:	e34424e0 	movt	r2, #17632	; 0x44e0
80000cc4:	e5922000 	ldr	r2, [r2]
80000cc8:	e3822002 	orr	r2, r2, #2
80000ccc:	e5832000 	str	r2, [r3]
80000cd0:	e320f000 	nop	{0}
80000cd4:	e3a0300c 	mov	r3, #12
80000cd8:	e34434e0 	movt	r3, #17632	; 0x44e0
80000cdc:	e5933000 	ldr	r3, [r3]
80000ce0:	e2033003 	and	r3, r3, #3
80000ce4:	e3530002 	cmp	r3, #2
80000ce8:	1afffff9 	bne	0x80000cd4
80000cec:	e3a03f4b 	mov	r3, #300	; 0x12c
80000cf0:	e34434e0 	movt	r3, #17632	; 0x44e0
80000cf4:	e3a02f4b 	mov	r2, #300	; 0x12c
80000cf8:	e34424e0 	movt	r2, #17632	; 0x44e0
80000cfc:	e5922000 	ldr	r2, [r2]
80000d00:	e3822002 	orr	r2, r2, #2
80000d04:	e5832000 	str	r2, [r3]
80000d08:	e320f000 	nop	{0}
80000d0c:	e3a03f4b 	mov	r3, #300	; 0x12c
80000d10:	e34434e0 	movt	r3, #17632	; 0x44e0
80000d14:	e5933000 	ldr	r3, [r3]
80000d18:	e2033003 	and	r3, r3, #3
80000d1c:	e3530002 	cmp	r3, #2
80000d20:	1afffff9 	bne	0x80000d0c
80000d24:	e3a03004 	mov	r3, #4
80000d28:	e34434e0 	movt	r3, #17632	; 0x44e0
80000d2c:	e3a02004 	mov	r2, #4
80000d30:	e34424e0 	movt	r2, #17632	; 0x44e0
80000d34:	e5922000 	ldr	r2, [r2]
80000d38:	e3822002 	orr	r2, r2, #2
80000d3c:	e5832000 	str	r2, [r3]
80000d40:	e320f000 	nop	{0}
80000d44:	e3a03004 	mov	r3, #4
80000d48:	e34434e0 	movt	r3, #17632	; 0x44e0
80000d4c:	e5933000 	ldr	r3, [r3]
80000d50:	e2033003 	and	r3, r3, #3
80000d54:	e3530002 	cmp	r3, #2
80000d58:	1afffff9 	bne	0x80000d44
80000d5c:	e320f000 	nop	{0}
80000d60:	e3a030e0 	mov	r3, #224	; 0xe0
80000d64:	e34434e0 	movt	r3, #17632	; 0x44e0
80000d68:	e5933000 	ldr	r3, [r3]
80000d6c:	e2033803 	and	r3, r3, #196608	; 0x30000
80000d70:	e3530000 	cmp	r3, #0
80000d74:	1afffff9 	bne	0x80000d60
80000d78:	e320f000 	nop	{0}
80000d7c:	e3a030dc 	mov	r3, #220	; 0xdc
80000d80:	e34434e0 	movt	r3, #17632	; 0x44e0
80000d84:	e5933000 	ldr	r3, [r3]
80000d88:	e2033803 	and	r3, r3, #196608	; 0x30000
80000d8c:	e3530000 	cmp	r3, #0
80000d90:	1afffff9 	bne	0x80000d7c
80000d94:	e320f000 	nop	{0}
80000d98:	e3a0300c 	mov	r3, #12
80000d9c:	e34434e0 	movt	r3, #17632	; 0x44e0
80000da0:	e5933000 	ldr	r3, [r3]
80000da4:	e2033010 	and	r3, r3, #16
80000da8:	e3530010 	cmp	r3, #16
80000dac:	1afffff9 	bne	0x80000d98
80000db0:	e320f000 	nop	{0}
80000db4:	e3a03f4b 	mov	r3, #300	; 0x12c
80000db8:	e34434e0 	movt	r3, #17632	; 0x44e0
80000dbc:	e5933000 	ldr	r3, [r3]
80000dc0:	e2033010 	and	r3, r3, #16
80000dc4:	e3530010 	cmp	r3, #16
80000dc8:	1afffff9 	bne	0x80000db4
80000dcc:	e320f000 	nop	{0}
80000dd0:	e3a03004 	mov	r3, #4
80000dd4:	e34434e0 	movt	r3, #17632	; 0x44e0
80000dd8:	e5933000 	ldr	r3, [r3]
80000ddc:	e2033008 	and	r3, r3, #8
80000de0:	e3530008 	cmp	r3, #8
80000de4:	1afffff9 	bne	0x80000dd0
80000de8:	e3003404 	movw	r3, #1028	; 0x404
80000dec:	e34434e0 	movt	r3, #17632	; 0x44e0
80000df0:	e3002404 	movw	r2, #1028	; 0x404
80000df4:	e34424e0 	movt	r2, #17632	; 0x44e0
80000df8:	e5922000 	ldr	r2, [r2]
80000dfc:	e3822002 	orr	r2, r2, #2
80000e00:	e5832000 	str	r2, [r3]
80000e04:	e320f000 	nop	{0}
80000e08:	e3003404 	movw	r3, #1028	; 0x404
80000e0c:	e34434e0 	movt	r3, #17632	; 0x44e0
80000e10:	e5933000 	ldr	r3, [r3]
80000e14:	e2033003 	and	r3, r3, #3
80000e18:	e3530002 	cmp	r3, #2
80000e1c:	1afffff9 	bne	0x80000e08
80000e20:	e3a03b01 	mov	r3, #1024	; 0x400
80000e24:	e34434e0 	movt	r3, #17632	; 0x44e0
80000e28:	e3a02b01 	mov	r2, #1024	; 0x400
80000e2c:	e34424e0 	movt	r2, #17632	; 0x44e0
80000e30:	e5922000 	ldr	r2, [r2]
80000e34:	e3822002 	orr	r2, r2, #2
80000e38:	e5832000 	str	r2, [r3]
80000e3c:	e320f000 	nop	{0}
80000e40:	e3a03b01 	mov	r3, #1024	; 0x400
80000e44:	e34434e0 	movt	r3, #17632	; 0x44e0
80000e48:	e5933000 	ldr	r3, [r3]
80000e4c:	e2033003 	and	r3, r3, #3
80000e50:	e3530002 	cmp	r3, #2
80000e54:	1afffff9 	bne	0x80000e40
80000e58:	e3003418 	movw	r3, #1048	; 0x418
80000e5c:	e34434e0 	movt	r3, #17632	; 0x44e0
80000e60:	e3002418 	movw	r2, #1048	; 0x418
80000e64:	e34424e0 	movt	r2, #17632	; 0x44e0
80000e68:	e5922000 	ldr	r2, [r2]
80000e6c:	e3822002 	orr	r2, r2, #2
80000e70:	e5832000 	str	r2, [r3]
80000e74:	e320f000 	nop	{0}
80000e78:	e3003418 	movw	r3, #1048	; 0x418
80000e7c:	e34434e0 	movt	r3, #17632	; 0x44e0
80000e80:	e5933000 	ldr	r3, [r3]
80000e84:	e2033003 	and	r3, r3, #3
80000e88:	e3530002 	cmp	r3, #2
80000e8c:	1afffff9 	bne	0x80000e78
80000e90:	e30034b4 	movw	r3, #1204	; 0x4b4
80000e94:	e34434e0 	movt	r3, #17632	; 0x44e0
80000e98:	e30024b4 	movw	r2, #1204	; 0x4b4
80000e9c:	e34424e0 	movt	r2, #17632	; 0x44e0
80000ea0:	e5922000 	ldr	r2, [r2]
80000ea4:	e3822002 	orr	r2, r2, #2
80000ea8:	e5832000 	str	r2, [r3]
80000eac:	e320f000 	nop	{0}
80000eb0:	e30034b4 	movw	r3, #1204	; 0x4b4
80000eb4:	e34434e0 	movt	r3, #17632	; 0x44e0
80000eb8:	e5933000 	ldr	r3, [r3]
80000ebc:	e2033003 	and	r3, r3, #3
80000ec0:	e3530002 	cmp	r3, #2
80000ec4:	1afffff9 	bne	0x80000eb0
80000ec8:	e320f000 	nop	{0}
80000ecc:	e3003404 	movw	r3, #1028	; 0x404
80000ed0:	e34434e0 	movt	r3, #17632	; 0x44e0
80000ed4:	e5933000 	ldr	r3, [r3]
80000ed8:	e2033803 	and	r3, r3, #196608	; 0x30000
80000edc:	e3530000 	cmp	r3, #0
80000ee0:	1afffff9 	bne	0x80000ecc
80000ee4:	e320f000 	nop	{0}
80000ee8:	e3003418 	movw	r3, #1048	; 0x418
80000eec:	e34434e0 	movt	r3, #17632	; 0x44e0
80000ef0:	e5933000 	ldr	r3, [r3]
80000ef4:	e2033008 	and	r3, r3, #8
80000ef8:	e3530008 	cmp	r3, #8
80000efc:	1afffff9 	bne	0x80000ee8
80000f00:	e320f000 	nop	{0}
80000f04:	e300340c 	movw	r3, #1036	; 0x40c
80000f08:	e34434e0 	movt	r3, #17632	; 0x44e0
80000f0c:	e5933000 	ldr	r3, [r3]
80000f10:	e2033803 	and	r3, r3, #196608	; 0x30000
80000f14:	e3530000 	cmp	r3, #0
80000f18:	1afffff9 	bne	0x80000f04
80000f1c:	e320f000 	nop	{0}
80000f20:	e3a03b01 	mov	r3, #1024	; 0x400
80000f24:	e34434e0 	movt	r3, #17632	; 0x44e0
80000f28:	e5933000 	ldr	r3, [r3]
80000f2c:	e2033004 	and	r3, r3, #4
80000f30:	e3530004 	cmp	r3, #4
80000f34:	1afffff9 	bne	0x80000f20
80000f38:	e320f000 	nop	{0}
80000f3c:	e30034cc 	movw	r3, #1228	; 0x4cc
80000f40:	e34434e0 	movt	r3, #17632	; 0x44e0
80000f44:	e5933000 	ldr	r3, [r3]
80000f48:	e2033004 	and	r3, r3, #4
80000f4c:	e3530004 	cmp	r3, #4
80000f50:	1afffff9 	bne	0x80000f3c
80000f54:	e320f000 	nop	{0}
80000f58:	e3a03b01 	mov	r3, #1024	; 0x400
80000f5c:	e34434e0 	movt	r3, #17632	; 0x44e0
80000f60:	e5933000 	ldr	r3, [r3]
80000f64:	e2033a01 	and	r3, r3, #4096	; 0x1000
80000f68:	e3530a01 	cmp	r3, #4096	; 0x1000
80000f6c:	1afffff9 	bne	0x80000f58
80000f70:	e320f000 	nop	{0}
80000f74:	e30034b4 	movw	r3, #1204	; 0x4b4
80000f78:	e34434e0 	movt	r3, #17632	; 0x44e0
80000f7c:	e5933000 	ldr	r3, [r3]
80000f80:	e2033803 	and	r3, r3, #196608	; 0x30000
80000f84:	e3530000 	cmp	r3, #0
80000f88:	1afffff9 	bne	0x80000f74
80000f8c:	e320f000 	nop	{0}
80000f90:	e28bd000 	add	sp, fp, #0
80000f94:	e49db004 	pop	{fp}		; (ldr fp, [sp], #4)
80000f98:	e12fff1e 	bx	lr
80000f9c:	e52db004 	push	{fp}		; (str fp, [sp, #-4]!)
80000fa0:	e28db000 	add	fp, sp, #0
80000fa4:	e24dd014 	sub	sp, sp, #20
80000fa8:	e50b0010 	str	r0, [fp, #-16]
80000fac:	e50b1014 	str	r1, [fp, #-20]	; 0xffffffec
80000fb0:	e3a03000 	mov	r3, #0
80000fb4:	e50b3008 	str	r3, [fp, #-8]
80000fb8:	e51b3010 	ldr	r3, [fp, #-16]
80000fbc:	e2833020 	add	r3, r3, #32
80000fc0:	e5933000 	ldr	r3, [r3]
80000fc4:	e2033007 	and	r3, r3, #7
80000fc8:	e50b3008 	str	r3, [fp, #-8]
80000fcc:	e51b3010 	ldr	r3, [fp, #-16]
80000fd0:	e2833020 	add	r3, r3, #32
80000fd4:	e1a02003 	mov	r2, r3
80000fd8:	e51b3010 	ldr	r3, [fp, #-16]
80000fdc:	e2833020 	add	r3, r3, #32
80000fe0:	e5933000 	ldr	r3, [r3]
80000fe4:	e3c33007 	bic	r3, r3, #7
80000fe8:	e5823000 	str	r3, [r2]
80000fec:	e51b3010 	ldr	r3, [fp, #-16]
80000ff0:	e2833020 	add	r3, r3, #32
80000ff4:	e1a01003 	mov	r1, r3
80000ff8:	e51b3010 	ldr	r3, [fp, #-16]
80000ffc:	e2833020 	add	r3, r3, #32
80001000:	e5932000 	ldr	r2, [r3]
80001004:	e51b3014 	ldr	r3, [fp, #-20]	; 0xffffffec
80001008:	e2033007 	and	r3, r3, #7
8000100c:	e1823003 	orr	r3, r2, r3
80001010:	e5813000 	str	r3, [r1]
80001014:	e51b3008 	ldr	r3, [fp, #-8]
80001018:	e1a00003 	mov	r0, r3
8000101c:	e28bd000 	add	sp, fp, #0
80001020:	e49db004 	pop	{fp}		; (ldr fp, [sp], #4)
80001024:	e12fff1e 	bx	lr
80001028:	e92d4800 	push	{fp, lr}
8000102c:	e28db004 	add	fp, sp, #4
80001030:	e24dd018 	sub	sp, sp, #24
80001034:	e50b0010 	str	r0, [fp, #-16]
80001038:	e50b1014 	str	r1, [fp, #-20]	; 0xffffffec
8000103c:	e50b2018 	str	r2, [fp, #-24]	; 0xffffffe8
80001040:	e50b301c 	str	r3, [fp, #-28]	; 0xffffffe4
80001044:	e3a03000 	mov	r3, #0
80001048:	e50b3008 	str	r3, [fp, #-8]
8000104c:	e51b3018 	ldr	r3, [fp, #-24]	; 0xffffffe8
80001050:	e2033007 	and	r3, r3, #7
80001054:	e50b3018 	str	r3, [fp, #-24]	; 0xffffffe8
80001058:	e51b3018 	ldr	r3, [fp, #-24]	; 0xffffffe8
8000105c:	e3530005 	cmp	r3, #5
80001060:	979ff103 	ldrls	pc, [pc, r3, lsl #2]
80001064:	ea000022 	b	0x800010f4
80001068:	80001080 	andhi	r1, r0, r0, lsl #1
8000106c:	80001080 	andhi	r1, r0, r0, lsl #1
80001070:	800010f4 	strdhi	r1, [r0], -r4
80001074:	800010a0 	andhi	r1, r0, r0, lsr #1
80001078:	800010c4 	andhi	r1, r0, r4, asr #1
8000107c:	800010e8 	andhi	r1, r0, r8, ror #1
80001080:	e51b3014 	ldr	r3, [fp, #-20]	; 0xffffffec
80001084:	e1a03203 	lsl	r3, r3, #4
80001088:	e1a01003 	mov	r1, r3
8000108c:	e51b0010 	ldr	r0, [fp, #-16]
80001090:	eb0011db 	bl	0x80005804
80001094:	e1a03000 	mov	r3, r0
80001098:	e50b3008 	str	r3, [fp, #-8]
8000109c:	ea000015 	b	0x800010f8
800010a0:	e51b3014 	ldr	r3, [fp, #-20]	; 0xffffffec
800010a4:	e3a0200d 	mov	r2, #13
800010a8:	e0030392 	mul	r3, r2, r3
800010ac:	e1a01003 	mov	r1, r3
800010b0:	e51b0010 	ldr	r0, [fp, #-16]
800010b4:	eb0011d2 	bl	0x80005804
800010b8:	e1a03000 	mov	r3, r0
800010bc:	e50b3008 	str	r3, [fp, #-8]
800010c0:	ea00000c 	b	0x800010f8
800010c4:	e51b301c 	ldr	r3, [fp, #-28]	; 0xffffffe4
800010c8:	e51b2014 	ldr	r2, [fp, #-20]	; 0xffffffec
800010cc:	e0030392 	mul	r3, r2, r3
800010d0:	e1a01003 	mov	r1, r3
800010d4:	e51b0010 	ldr	r0, [fp, #-16]
800010d8:	eb0011c9 	bl	0x80005804
800010dc:	e1a03000 	mov	r3, r0
800010e0:	e50b3008 	str	r3, [fp, #-8]
800010e4:	ea000003 	b	0x800010f8
800010e8:	e3a03000 	mov	r3, #0
800010ec:	e50b3008 	str	r3, [fp, #-8]
800010f0:	ea000000 	b	0x800010f8
800010f4:	e320f000 	nop	{0}
800010f8:	e51b3008 	ldr	r3, [fp, #-8]
800010fc:	e1a00003 	mov	r0, r3
80001100:	e24bd004 	sub	sp, fp, #4
80001104:	e8bd8800 	pop	{fp, pc}
80001108:	e92d4800 	push	{fp, lr}
8000110c:	e28db004 	add	fp, sp, #4
80001110:	e24dd020 	sub	sp, sp, #32
80001114:	e50b0020 	str	r0, [fp, #-32]	; 0xffffffe0
80001118:	e50b1024 	str	r1, [fp, #-36]	; 0xffffffdc
8000111c:	e3a03000 	mov	r3, #0
80001120:	e50b300c 	str	r3, [fp, #-12]
80001124:	e3a03000 	mov	r3, #0
80001128:	e50b3010 	str	r3, [fp, #-16]
8000112c:	e3a03000 	mov	r3, #0
80001130:	e50b3014 	str	r3, [fp, #-20]	; 0xffffffec
80001134:	e3a03000 	mov	r3, #0
80001138:	e50b3018 	str	r3, [fp, #-24]	; 0xffffffe8
8000113c:	e3a03000 	mov	r3, #0
80001140:	e50b3008 	str	r3, [fp, #-8]
80001144:	e3a010bf 	mov	r1, #191	; 0xbf
80001148:	e51b0020 	ldr	r0, [fp, #-32]	; 0xffffffe0
8000114c:	eb00008a 	bl	0x8000137c
80001150:	e1a03000 	mov	r3, r0
80001154:	e50b3014 	str	r3, [fp, #-20]	; 0xffffffec
80001158:	e51b3020 	ldr	r3, [fp, #-32]	; 0xffffffe0
8000115c:	e2833008 	add	r3, r3, #8
80001160:	e5933000 	ldr	r3, [r3]
80001164:	e2033010 	and	r3, r3, #16
80001168:	e50b300c 	str	r3, [fp, #-12]
8000116c:	e51b3020 	ldr	r3, [fp, #-32]	; 0xffffffe0
80001170:	e2833008 	add	r3, r3, #8
80001174:	e1a02003 	mov	r2, r3
80001178:	e51b3020 	ldr	r3, [fp, #-32]	; 0xffffffe0
8000117c:	e2833008 	add	r3, r3, #8
80001180:	e5933000 	ldr	r3, [r3]
80001184:	e3833010 	orr	r3, r3, #16
80001188:	e5823000 	str	r3, [r2]
8000118c:	e3a0107f 	mov	r1, #127	; 0x7f
80001190:	e51b0020 	ldr	r0, [fp, #-32]	; 0xffffffe0
80001194:	eb000078 	bl	0x8000137c
80001198:	e51b3020 	ldr	r3, [fp, #-32]	; 0xffffffe0
8000119c:	e2833004 	add	r3, r3, #4
800011a0:	e5933000 	ldr	r3, [r3]
800011a4:	e2033010 	and	r3, r3, #16
800011a8:	e50b3010 	str	r3, [fp, #-16]
800011ac:	e51b3020 	ldr	r3, [fp, #-32]	; 0xffffffe0
800011b0:	e2833004 	add	r3, r3, #4
800011b4:	e1a02003 	mov	r2, r3
800011b8:	e51b3020 	ldr	r3, [fp, #-32]	; 0xffffffe0
800011bc:	e2833004 	add	r3, r3, #4
800011c0:	e5933000 	ldr	r3, [r3]
800011c4:	e3c33010 	bic	r3, r3, #16
800011c8:	e5823000 	str	r3, [r2]
800011cc:	e3a010bf 	mov	r1, #191	; 0xbf
800011d0:	e51b0020 	ldr	r0, [fp, #-32]	; 0xffffffe0
800011d4:	eb000068 	bl	0x8000137c
800011d8:	e51b3020 	ldr	r3, [fp, #-32]	; 0xffffffe0
800011dc:	e5933000 	ldr	r3, [r3]
800011e0:	e6ef3073 	uxtb	r3, r3
800011e4:	e50b3008 	str	r3, [fp, #-8]
800011e8:	e51b3020 	ldr	r3, [fp, #-32]	; 0xffffffe0
800011ec:	e2833004 	add	r3, r3, #4
800011f0:	e5933000 	ldr	r3, [r3]
800011f4:	e1a03403 	lsl	r3, r3, #8
800011f8:	e2033c3f 	and	r3, r3, #16128	; 0x3f00
800011fc:	e51b2008 	ldr	r2, [fp, #-8]
80001200:	e1823003 	orr	r3, r2, r3
80001204:	e50b3008 	str	r3, [fp, #-8]
80001208:	e3a01007 	mov	r1, #7
8000120c:	e51b0020 	ldr	r0, [fp, #-32]	; 0xffffffe0
80001210:	ebffff61 	bl	0x80000f9c
80001214:	e1a03000 	mov	r3, r0
80001218:	e50b3018 	str	r3, [fp, #-24]	; 0xffffffe8
8000121c:	e51b3020 	ldr	r3, [fp, #-32]	; 0xffffffe0
80001220:	e51b2024 	ldr	r2, [fp, #-36]	; 0xffffffdc
80001224:	e6ef2072 	uxtb	r2, r2
80001228:	e5832000 	str	r2, [r3]
8000122c:	e51b3020 	ldr	r3, [fp, #-32]	; 0xffffffe0
80001230:	e2833004 	add	r3, r3, #4
80001234:	e1a02003 	mov	r2, r3
80001238:	e51b3024 	ldr	r3, [fp, #-36]	; 0xffffffdc
8000123c:	e1a03423 	lsr	r3, r3, #8
80001240:	e203303f 	and	r3, r3, #63	; 0x3f
80001244:	e5823000 	str	r3, [r2]
80001248:	e51b3018 	ldr	r3, [fp, #-24]	; 0xffffffe8
8000124c:	e1a01003 	mov	r1, r3
80001250:	e51b0020 	ldr	r0, [fp, #-32]	; 0xffffffe0
80001254:	ebffff50 	bl	0x80000f9c
80001258:	e3a0107f 	mov	r1, #127	; 0x7f
8000125c:	e51b0020 	ldr	r0, [fp, #-32]	; 0xffffffe0
80001260:	eb000045 	bl	0x8000137c
80001264:	e51b3010 	ldr	r3, [fp, #-16]
80001268:	e51b2020 	ldr	r2, [fp, #-32]	; 0xffffffe0
8000126c:	e2822004 	add	r2, r2, #4
80001270:	e1a01002 	mov	r1, r2
80001274:	e51b2020 	ldr	r2, [fp, #-32]	; 0xffffffe0
80001278:	e2822004 	add	r2, r2, #4
8000127c:	e5922000 	ldr	r2, [r2]
80001280:	e1823003 	orr	r3, r2, r3
80001284:	e5813000 	str	r3, [r1]
80001288:	e3a010bf 	mov	r1, #191	; 0xbf
8000128c:	e51b0020 	ldr	r0, [fp, #-32]	; 0xffffffe0
80001290:	eb000039 	bl	0x8000137c
80001294:	e51b3020 	ldr	r3, [fp, #-32]	; 0xffffffe0
80001298:	e2833008 	add	r3, r3, #8
8000129c:	e1a02003 	mov	r2, r3
800012a0:	e51b3020 	ldr	r3, [fp, #-32]	; 0xffffffe0
800012a4:	e2833008 	add	r3, r3, #8
800012a8:	e5933000 	ldr	r3, [r3]
800012ac:	e3c33010 	bic	r3, r3, #16
800012b0:	e5823000 	str	r3, [r2]
800012b4:	e51b300c 	ldr	r3, [fp, #-12]
800012b8:	e51b2020 	ldr	r2, [fp, #-32]	; 0xffffffe0
800012bc:	e2822008 	add	r2, r2, #8
800012c0:	e1a01002 	mov	r1, r2
800012c4:	e51b2020 	ldr	r2, [fp, #-32]	; 0xffffffe0
800012c8:	e2822008 	add	r2, r2, #8
800012cc:	e5922000 	ldr	r2, [r2]
800012d0:	e1823003 	orr	r3, r2, r3
800012d4:	e5813000 	str	r3, [r1]
800012d8:	e51b3020 	ldr	r3, [fp, #-32]	; 0xffffffe0
800012dc:	e283300c 	add	r3, r3, #12
800012e0:	e1a02003 	mov	r2, r3
800012e4:	e51b3014 	ldr	r3, [fp, #-20]	; 0xffffffec
800012e8:	e5823000 	str	r3, [r2]
800012ec:	e51b3008 	ldr	r3, [fp, #-8]
800012f0:	e1a00003 	mov	r0, r3
800012f4:	e24bd004 	sub	sp, fp, #4
800012f8:	e8bd8800 	pop	{fp, pc}
800012fc:	e52db004 	push	{fp}		; (str fp, [sp, #-4]!)
80001300:	e28db000 	add	fp, sp, #0
80001304:	e24dd00c 	sub	sp, sp, #12
80001308:	e50b0008 	str	r0, [fp, #-8]
8000130c:	e51b3008 	ldr	r3, [fp, #-8]
80001310:	e283300c 	add	r3, r3, #12
80001314:	e1a02003 	mov	r2, r3
80001318:	e51b3008 	ldr	r3, [fp, #-8]
8000131c:	e283300c 	add	r3, r3, #12
80001320:	e5933000 	ldr	r3, [r3]
80001324:	e3833080 	orr	r3, r3, #128	; 0x80
80001328:	e5823000 	str	r3, [r2]
8000132c:	e320f000 	nop	{0}
80001330:	e28bd000 	add	sp, fp, #0
80001334:	e49db004 	pop	{fp}		; (ldr fp, [sp], #4)
80001338:	e12fff1e 	bx	lr
8000133c:	e52db004 	push	{fp}		; (str fp, [sp, #-4]!)
80001340:	e28db000 	add	fp, sp, #0
80001344:	e24dd00c 	sub	sp, sp, #12
80001348:	e50b0008 	str	r0, [fp, #-8]
8000134c:	e51b3008 	ldr	r3, [fp, #-8]
80001350:	e283300c 	add	r3, r3, #12
80001354:	e1a02003 	mov	r2, r3
80001358:	e51b3008 	ldr	r3, [fp, #-8]
8000135c:	e283300c 	add	r3, r3, #12
80001360:	e5933000 	ldr	r3, [r3]
80001364:	e3c33080 	bic	r3, r3, #128	; 0x80
80001368:	e5823000 	str	r3, [r2]
8000136c:	e320f000 	nop	{0}
80001370:	e28bd000 	add	sp, fp, #0
80001374:	e49db004 	pop	{fp}		; (ldr fp, [sp], #4)
80001378:	e12fff1e 	bx	lr
8000137c:	e52db004 	push	{fp}		; (str fp, [sp, #-4]!)
80001380:	e28db000 	add	fp, sp, #0
80001384:	e24dd014 	sub	sp, sp, #20
80001388:	e50b0010 	str	r0, [fp, #-16]
8000138c:	e50b1014 	str	r1, [fp, #-20]	; 0xffffffec
80001390:	e3a03000 	mov	r3, #0
80001394:	e50b3008 	str	r3, [fp, #-8]
80001398:	e51b3010 	ldr	r3, [fp, #-16]
8000139c:	e283300c 	add	r3, r3, #12
800013a0:	e5933000 	ldr	r3, [r3]
800013a4:	e50b3008 	str	r3, [fp, #-8]
800013a8:	e51b3014 	ldr	r3, [fp, #-20]	; 0xffffffec
800013ac:	e3530080 	cmp	r3, #128	; 0x80
800013b0:	0a000004 	beq	0x800013c8
800013b4:	e35300bf 	cmp	r3, #191	; 0xbf
800013b8:	0a000002 	beq	0x800013c8
800013bc:	e353007f 	cmp	r3, #127	; 0x7f
800013c0:	0a000007 	beq	0x800013e4
800013c4:	ea00000f 	b	0x80001408
800013c8:	e51b3010 	ldr	r3, [fp, #-16]
800013cc:	e283300c 	add	r3, r3, #12
800013d0:	e1a02003 	mov	r2, r3
800013d4:	e51b3014 	ldr	r3, [fp, #-20]	; 0xffffffec
800013d8:	e6ef3073 	uxtb	r3, r3
800013dc:	e5823000 	str	r3, [r2]
800013e0:	ea000008 	b	0x80001408
800013e4:	e51b3010 	ldr	r3, [fp, #-16]
800013e8:	e283300c 	add	r3, r3, #12
800013ec:	e1a02003 	mov	r2, r3
800013f0:	e51b3010 	ldr	r3, [fp, #-16]
800013f4:	e283300c 	add	r3, r3, #12
800013f8:	e5933000 	ldr	r3, [r3]
800013fc:	e203307f 	and	r3, r3, #127	; 0x7f
80001400:	e5823000 	str	r3, [r2]
80001404:	e320f000 	nop	{0}
80001408:	e51b3008 	ldr	r3, [fp, #-8]
8000140c:	e1a00003 	mov	r0, r3
80001410:	e28bd000 	add	sp, fp, #0
80001414:	e49db004 	pop	{fp}		; (ldr fp, [sp], #4)
80001418:	e12fff1e 	bx	lr
8000141c:	e52db004 	push	{fp}		; (str fp, [sp, #-4]!)
80001420:	e28db000 	add	fp, sp, #0
80001424:	e24dd00c 	sub	sp, sp, #12
80001428:	e50b0008 	str	r0, [fp, #-8]
8000142c:	e50b100c 	str	r1, [fp, #-12]
80001430:	e51b3008 	ldr	r3, [fp, #-8]
80001434:	e283300c 	add	r3, r3, #12
80001438:	e1a02003 	mov	r2, r3
8000143c:	e51b300c 	ldr	r3, [fp, #-12]
80001440:	e5823000 	str	r3, [r2]
80001444:	e320f000 	nop	{0}
80001448:	e28bd000 	add	sp, fp, #0
8000144c:	e49db004 	pop	{fp}		; (ldr fp, [sp], #4)
80001450:	e12fff1e 	bx	lr
80001454:	e52db004 	push	{fp}		; (str fp, [sp, #-4]!)
80001458:	e28db000 	add	fp, sp, #0
8000145c:	e24dd00c 	sub	sp, sp, #12
80001460:	e50b0008 	str	r0, [fp, #-8]
80001464:	e50b100c 	str	r1, [fp, #-12]
80001468:	e51b3008 	ldr	r3, [fp, #-8]
8000146c:	e283300c 	add	r3, r3, #12
80001470:	e1a02003 	mov	r2, r3
80001474:	e51b3008 	ldr	r3, [fp, #-8]
80001478:	e283300c 	add	r3, r3, #12
8000147c:	e5933000 	ldr	r3, [r3]
80001480:	e3c33040 	bic	r3, r3, #64	; 0x40
80001484:	e5823000 	str	r3, [r2]
80001488:	e51b3008 	ldr	r3, [fp, #-8]
8000148c:	e283300c 	add	r3, r3, #12
80001490:	e1a01003 	mov	r1, r3
80001494:	e51b3008 	ldr	r3, [fp, #-8]
80001498:	e283300c 	add	r3, r3, #12
8000149c:	e5932000 	ldr	r2, [r3]
800014a0:	e51b300c 	ldr	r3, [fp, #-12]
800014a4:	e2033040 	and	r3, r3, #64	; 0x40
800014a8:	e1823003 	orr	r3, r2, r3
800014ac:	e5813000 	str	r3, [r1]
800014b0:	e320f000 	nop	{0}
800014b4:	e28bd000 	add	sp, fp, #0
800014b8:	e49db004 	pop	{fp}		; (ldr fp, [sp], #4)
800014bc:	e12fff1e 	bx	lr
800014c0:	e52db004 	push	{fp}		; (str fp, [sp, #-4]!)
800014c4:	e28db000 	add	fp, sp, #0
800014c8:	e24dd014 	sub	sp, sp, #20
800014cc:	e50b0008 	str	r0, [fp, #-8]
800014d0:	e50b100c 	str	r1, [fp, #-12]
800014d4:	e50b2010 	str	r2, [fp, #-16]
800014d8:	e51b3008 	ldr	r3, [fp, #-8]
800014dc:	e283300c 	add	r3, r3, #12
800014e0:	e1a02003 	mov	r2, r3
800014e4:	e51b3008 	ldr	r3, [fp, #-8]
800014e8:	e283300c 	add	r3, r3, #12
800014ec:	e5933000 	ldr	r3, [r3]
800014f0:	e3c33007 	bic	r3, r3, #7
800014f4:	e5823000 	str	r3, [r2]
800014f8:	e51b3008 	ldr	r3, [fp, #-8]
800014fc:	e283300c 	add	r3, r3, #12
80001500:	e1a01003 	mov	r1, r3
80001504:	e51b3008 	ldr	r3, [fp, #-8]
80001508:	e283300c 	add	r3, r3, #12
8000150c:	e5932000 	ldr	r2, [r3]
80001510:	e51b300c 	ldr	r3, [fp, #-12]
80001514:	e2033007 	and	r3, r3, #7
80001518:	e1823003 	orr	r3, r2, r3
8000151c:	e5813000 	str	r3, [r1]
80001520:	e51b3008 	ldr	r3, [fp, #-8]
80001524:	e283300c 	add	r3, r3, #12
80001528:	e1a02003 	mov	r2, r3
8000152c:	e51b3008 	ldr	r3, [fp, #-8]
80001530:	e283300c 	add	r3, r3, #12
80001534:	e5933000 	ldr	r3, [r3]
80001538:	e3c33038 	bic	r3, r3, #56	; 0x38
8000153c:	e5823000 	str	r3, [r2]
80001540:	e51b3008 	ldr	r3, [fp, #-8]
80001544:	e283300c 	add	r3, r3, #12
80001548:	e1a01003 	mov	r1, r3
8000154c:	e51b3008 	ldr	r3, [fp, #-8]
80001550:	e283300c 	add	r3, r3, #12
80001554:	e5932000 	ldr	r2, [r3]
80001558:	e51b3010 	ldr	r3, [fp, #-16]
8000155c:	e2033038 	and	r3, r3, #56	; 0x38
80001560:	e1823003 	orr	r3, r2, r3
80001564:	e5813000 	str	r3, [r1]
80001568:	e320f000 	nop	{0}
8000156c:	e28bd000 	add	sp, fp, #0
80001570:	e49db004 	pop	{fp}		; (ldr fp, [sp], #4)
80001574:	e12fff1e 	bx	lr
80001578:	e52db004 	push	{fp}		; (str fp, [sp, #-4]!)
8000157c:	e28db000 	add	fp, sp, #0
80001580:	e24dd00c 	sub	sp, sp, #12
80001584:	e50b0008 	str	r0, [fp, #-8]
80001588:	e50b100c 	str	r1, [fp, #-12]
8000158c:	e51b3008 	ldr	r3, [fp, #-8]
80001590:	e283300c 	add	r3, r3, #12
80001594:	e1a02003 	mov	r2, r3
80001598:	e51b3008 	ldr	r3, [fp, #-8]
8000159c:	e283300c 	add	r3, r3, #12
800015a0:	e5933000 	ldr	r3, [r3]
800015a4:	e3c33038 	bic	r3, r3, #56	; 0x38
800015a8:	e5823000 	str	r3, [r2]
800015ac:	e51b3008 	ldr	r3, [fp, #-8]
800015b0:	e283300c 	add	r3, r3, #12
800015b4:	e1a01003 	mov	r1, r3
800015b8:	e51b3008 	ldr	r3, [fp, #-8]
800015bc:	e283300c 	add	r3, r3, #12
800015c0:	e5932000 	ldr	r2, [r3]
800015c4:	e51b300c 	ldr	r3, [fp, #-12]
800015c8:	e2033038 	and	r3, r3, #56	; 0x38
800015cc:	e1823003 	orr	r3, r2, r3
800015d0:	e5813000 	str	r3, [r1]
800015d4:	e320f000 	nop	{0}
800015d8:	e28bd000 	add	sp, fp, #0
800015dc:	e49db004 	pop	{fp}		; (ldr fp, [sp], #4)
800015e0:	e12fff1e 	bx	lr
800015e4:	e52db004 	push	{fp}		; (str fp, [sp, #-4]!)
800015e8:	e28db000 	add	fp, sp, #0
800015ec:	e24dd00c 	sub	sp, sp, #12
800015f0:	e50b0008 	str	r0, [fp, #-8]
800015f4:	e51b3008 	ldr	r3, [fp, #-8]
800015f8:	e283300c 	add	r3, r3, #12
800015fc:	e5933000 	ldr	r3, [r3]
80001600:	e2033038 	and	r3, r3, #56	; 0x38
80001604:	e1a00003 	mov	r0, r3
80001608:	e28bd000 	add	sp, fp, #0
8000160c:	e49db004 	pop	{fp}		; (ldr fp, [sp], #4)
80001610:	e12fff1e 	bx	lr
80001614:	e92d4800 	push	{fp, lr}
80001618:	e28db004 	add	fp, sp, #4
8000161c:	e24dd038 	sub	sp, sp, #56	; 0x38
80001620:	e50b0038 	str	r0, [fp, #-56]	; 0xffffffc8
80001624:	e50b103c 	str	r1, [fp, #-60]	; 0xffffffc4
80001628:	e51b303c 	ldr	r3, [fp, #-60]	; 0xffffffc4
8000162c:	e1a03d23 	lsr	r3, r3, #26
80001630:	e203300f 	and	r3, r3, #15
80001634:	e50b300c 	str	r3, [fp, #-12]
80001638:	e51b303c 	ldr	r3, [fp, #-60]	; 0xffffffc4
8000163c:	e1a03b23 	lsr	r3, r3, #22
80001640:	e203300f 	and	r3, r3, #15
80001644:	e50b3010 	str	r3, [fp, #-16]
80001648:	e51b303c 	ldr	r3, [fp, #-60]	; 0xffffffc4
8000164c:	e1a03723 	lsr	r3, r3, #14
80001650:	e6ef3073 	uxtb	r3, r3
80001654:	e50b3014 	str	r3, [fp, #-20]	; 0xffffffec
80001658:	e51b303c 	ldr	r3, [fp, #-60]	; 0xffffffc4
8000165c:	e1a03323 	lsr	r3, r3, #6
80001660:	e6ef3073 	uxtb	r3, r3
80001664:	e50b3018 	str	r3, [fp, #-24]	; 0xffffffe8
80001668:	e51b303c 	ldr	r3, [fp, #-60]	; 0xffffffc4
8000166c:	e1a032a3 	lsr	r3, r3, #5
80001670:	e2033001 	and	r3, r3, #1
80001674:	e50b301c 	str	r3, [fp, #-28]	; 0xffffffe4
80001678:	e51b303c 	ldr	r3, [fp, #-60]	; 0xffffffc4
8000167c:	e1a03223 	lsr	r3, r3, #4
80001680:	e2033001 	and	r3, r3, #1
80001684:	e50b3020 	str	r3, [fp, #-32]	; 0xffffffe0
80001688:	e51b303c 	ldr	r3, [fp, #-60]	; 0xffffffc4
8000168c:	e1a031a3 	lsr	r3, r3, #3
80001690:	e2033001 	and	r3, r3, #1
80001694:	e50b3024 	str	r3, [fp, #-36]	; 0xffffffdc
80001698:	e51b303c 	ldr	r3, [fp, #-60]	; 0xffffffc4
8000169c:	e2033007 	and	r3, r3, #7
800016a0:	e50b3028 	str	r3, [fp, #-40]	; 0xffffffd8
800016a4:	e3a03000 	mov	r3, #0
800016a8:	e50b302c 	str	r3, [fp, #-44]	; 0xffffffd4
800016ac:	e3a03000 	mov	r3, #0
800016b0:	e50b3030 	str	r3, [fp, #-48]	; 0xffffffd0
800016b4:	e3a03000 	mov	r3, #0
800016b8:	e50b3034 	str	r3, [fp, #-52]	; 0xffffffcc
800016bc:	e3a03000 	mov	r3, #0
800016c0:	e50b3008 	str	r3, [fp, #-8]
800016c4:	e51b0038 	ldr	r0, [fp, #-56]	; 0xffffffc8
800016c8:	eb00015a 	bl	0x80001c38
800016cc:	e50b002c 	str	r0, [fp, #-44]	; 0xffffffd4
800016d0:	e51b0038 	ldr	r0, [fp, #-56]	; 0xffffffc8
800016d4:	eb0001e6 	bl	0x80001e74
800016d8:	e50b0030 	str	r0, [fp, #-48]	; 0xffffffd0
800016dc:	e51b3008 	ldr	r3, [fp, #-8]
800016e0:	e3833001 	orr	r3, r3, #1
800016e4:	e50b3008 	str	r3, [fp, #-8]
800016e8:	e51b3010 	ldr	r3, [fp, #-16]
800016ec:	e3530001 	cmp	r3, #1
800016f0:	0a000030 	beq	0x800017b8
800016f4:	e51b3038 	ldr	r3, [fp, #-56]	; 0xffffffc8
800016f8:	e2833040 	add	r3, r3, #64	; 0x40
800016fc:	e1a02003 	mov	r2, r3
80001700:	e51b3038 	ldr	r3, [fp, #-56]	; 0xffffffc8
80001704:	e2833040 	add	r3, r3, #64	; 0x40
80001708:	e5933000 	ldr	r3, [r3]
8000170c:	e3c33080 	bic	r3, r3, #128	; 0x80
80001710:	e5823000 	str	r3, [r2]
80001714:	e51b3038 	ldr	r3, [fp, #-56]	; 0xffffffc8
80001718:	e283301c 	add	r3, r3, #28
8000171c:	e1a02003 	mov	r2, r3
80001720:	e51b3038 	ldr	r3, [fp, #-56]	; 0xffffffc8
80001724:	e283301c 	add	r3, r3, #28
80001728:	e5933000 	ldr	r3, [r3]
8000172c:	e3c330f0 	bic	r3, r3, #240	; 0xf0
80001730:	e5823000 	str	r3, [r2]
80001734:	e51b3008 	ldr	r3, [fp, #-8]
80001738:	e3c330c0 	bic	r3, r3, #192	; 0xc0
8000173c:	e50b3008 	str	r3, [fp, #-8]
80001740:	e51b3018 	ldr	r3, [fp, #-24]	; 0xffffffe8
80001744:	e3530000 	cmp	r3, #0
80001748:	0a000008 	beq	0x80001770
8000174c:	e51b3018 	ldr	r3, [fp, #-24]	; 0xffffffe8
80001750:	e3530040 	cmp	r3, #64	; 0x40
80001754:	0a000005 	beq	0x80001770
80001758:	e51b3018 	ldr	r3, [fp, #-24]	; 0xffffffe8
8000175c:	e3530080 	cmp	r3, #128	; 0x80
80001760:	0a000002 	beq	0x80001770
80001764:	e51b3018 	ldr	r3, [fp, #-24]	; 0xffffffe8
80001768:	e35300c0 	cmp	r3, #192	; 0xc0
8000176c:	1a000005 	bne	0x80001788
80001770:	e51b3018 	ldr	r3, [fp, #-24]	; 0xffffffe8
80001774:	e20330c0 	and	r3, r3, #192	; 0xc0
80001778:	e51b2008 	ldr	r2, [fp, #-8]
8000177c:	e1823003 	orr	r3, r2, r3
80001780:	e50b3008 	str	r3, [fp, #-8]
80001784:	ea00002a 	b	0x80001834
80001788:	e51b3038 	ldr	r3, [fp, #-56]	; 0xffffffc8
8000178c:	e283301c 	add	r3, r3, #28
80001790:	e1a01003 	mov	r1, r3
80001794:	e51b3038 	ldr	r3, [fp, #-56]	; 0xffffffc8
80001798:	e283301c 	add	r3, r3, #28
8000179c:	e5932000 	ldr	r2, [r3]
800017a0:	e51b3018 	ldr	r3, [fp, #-24]	; 0xffffffe8
800017a4:	e1a03203 	lsl	r3, r3, #4
800017a8:	e6ef3073 	uxtb	r3, r3
800017ac:	e1823003 	orr	r3, r2, r3
800017b0:	e5813000 	str	r3, [r1]
800017b4:	ea00001e 	b	0x80001834
800017b8:	e51b3018 	ldr	r3, [fp, #-24]	; 0xffffffe8
800017bc:	e203303f 	and	r3, r3, #63	; 0x3f
800017c0:	e50b3018 	str	r3, [fp, #-24]	; 0xffffffe8
800017c4:	e51b3018 	ldr	r3, [fp, #-24]	; 0xffffffe8
800017c8:	e1a03123 	lsr	r3, r3, #2
800017cc:	e203300f 	and	r3, r3, #15
800017d0:	e50b3034 	str	r3, [fp, #-52]	; 0xffffffcc
800017d4:	e51b3018 	ldr	r3, [fp, #-24]	; 0xffffffe8
800017d8:	e1a03303 	lsl	r3, r3, #6
800017dc:	e6ef3073 	uxtb	r3, r3
800017e0:	e51b2008 	ldr	r2, [fp, #-8]
800017e4:	e1823003 	orr	r3, r2, r3
800017e8:	e50b3008 	str	r3, [fp, #-8]
800017ec:	e51b3038 	ldr	r3, [fp, #-56]	; 0xffffffc8
800017f0:	e2833040 	add	r3, r3, #64	; 0x40
800017f4:	e1a02003 	mov	r2, r3
800017f8:	e51b3038 	ldr	r3, [fp, #-56]	; 0xffffffc8
800017fc:	e2833040 	add	r3, r3, #64	; 0x40
80001800:	e5933000 	ldr	r3, [r3]
80001804:	e3833080 	orr	r3, r3, #128	; 0x80
80001808:	e5823000 	str	r3, [r2]
8000180c:	e51b3038 	ldr	r3, [fp, #-56]	; 0xffffffc8
80001810:	e283301c 	add	r3, r3, #28
80001814:	e1a01003 	mov	r1, r3
80001818:	e51b3038 	ldr	r3, [fp, #-56]	; 0xffffffc8
8000181c:	e283301c 	add	r3, r3, #28
80001820:	e5932000 	ldr	r2, [r3]
80001824:	e51b3034 	ldr	r3, [fp, #-52]	; 0xffffffcc
80001828:	e1a03203 	lsl	r3, r3, #4
8000182c:	e1823003 	orr	r3, r2, r3
80001830:	e5813000 	str	r3, [r1]
80001834:	e51b300c 	ldr	r3, [fp, #-12]
80001838:	e3530001 	cmp	r3, #1
8000183c:	0a00002f 	beq	0x80001900
80001840:	e51b3038 	ldr	r3, [fp, #-56]	; 0xffffffc8
80001844:	e2833040 	add	r3, r3, #64	; 0x40
80001848:	e1a02003 	mov	r2, r3
8000184c:	e51b3038 	ldr	r3, [fp, #-56]	; 0xffffffc8
80001850:	e2833040 	add	r3, r3, #64	; 0x40
80001854:	e5933000 	ldr	r3, [r3]
80001858:	e3c33040 	bic	r3, r3, #64	; 0x40
8000185c:	e5823000 	str	r3, [r2]
80001860:	e51b3038 	ldr	r3, [fp, #-56]	; 0xffffffc8
80001864:	e283301c 	add	r3, r3, #28
80001868:	e1a02003 	mov	r2, r3
8000186c:	e51b3038 	ldr	r3, [fp, #-56]	; 0xffffffc8
80001870:	e283301c 	add	r3, r3, #28
80001874:	e5933000 	ldr	r3, [r3]
80001878:	e3c3300f 	bic	r3, r3, #15
8000187c:	e5823000 	str	r3, [r2]
80001880:	e51b3008 	ldr	r3, [fp, #-8]
80001884:	e3c33030 	bic	r3, r3, #48	; 0x30
80001888:	e50b3008 	str	r3, [fp, #-8]
8000188c:	e51b3014 	ldr	r3, [fp, #-20]	; 0xffffffec
80001890:	e3530000 	cmp	r3, #0
80001894:	0a000008 	beq	0x800018bc
80001898:	e51b3014 	ldr	r3, [fp, #-20]	; 0xffffffec
8000189c:	e3530010 	cmp	r3, #16
800018a0:	0a000005 	beq	0x800018bc
800018a4:	e51b3014 	ldr	r3, [fp, #-20]	; 0xffffffec
800018a8:	e3530020 	cmp	r3, #32
800018ac:	0a000002 	beq	0x800018bc
800018b0:	e51b3014 	ldr	r3, [fp, #-20]	; 0xffffffec
800018b4:	e3530030 	cmp	r3, #48	; 0x30
800018b8:	1a000005 	bne	0x800018d4
800018bc:	e51b3014 	ldr	r3, [fp, #-20]	; 0xffffffec
800018c0:	e2033030 	and	r3, r3, #48	; 0x30
800018c4:	e51b2008 	ldr	r2, [fp, #-8]
800018c8:	e1823003 	orr	r3, r2, r3
800018cc:	e50b3008 	str	r3, [fp, #-8]
800018d0:	ea000028 	b	0x80001978
800018d4:	e51b3038 	ldr	r3, [fp, #-56]	; 0xffffffc8
800018d8:	e283301c 	add	r3, r3, #28
800018dc:	e1a01003 	mov	r1, r3
800018e0:	e51b3038 	ldr	r3, [fp, #-56]	; 0xffffffc8
800018e4:	e283301c 	add	r3, r3, #28
800018e8:	e5932000 	ldr	r2, [r3]
800018ec:	e51b3014 	ldr	r3, [fp, #-20]	; 0xffffffec
800018f0:	e203300f 	and	r3, r3, #15
800018f4:	e1823003 	orr	r3, r2, r3
800018f8:	e5813000 	str	r3, [r1]
800018fc:	ea00001d 	b	0x80001978
80001900:	e51b3014 	ldr	r3, [fp, #-20]	; 0xffffffec
80001904:	e203303f 	and	r3, r3, #63	; 0x3f
80001908:	e50b3014 	str	r3, [fp, #-20]	; 0xffffffec
8000190c:	e51b3014 	ldr	r3, [fp, #-20]	; 0xffffffec
80001910:	e1a03123 	lsr	r3, r3, #2
80001914:	e203300f 	and	r3, r3, #15
80001918:	e50b3034 	str	r3, [fp, #-52]	; 0xffffffcc
8000191c:	e51b3014 	ldr	r3, [fp, #-20]	; 0xffffffec
80001920:	e1a03203 	lsl	r3, r3, #4
80001924:	e2033030 	and	r3, r3, #48	; 0x30
80001928:	e51b2008 	ldr	r2, [fp, #-8]
8000192c:	e1823003 	orr	r3, r2, r3
80001930:	e50b3008 	str	r3, [fp, #-8]
80001934:	e51b3038 	ldr	r3, [fp, #-56]	; 0xffffffc8
80001938:	e2833040 	add	r3, r3, #64	; 0x40
8000193c:	e1a02003 	mov	r2, r3
80001940:	e51b3038 	ldr	r3, [fp, #-56]	; 0xffffffc8
80001944:	e2833040 	add	r3, r3, #64	; 0x40
80001948:	e5933000 	ldr	r3, [r3]
8000194c:	e3833040 	orr	r3, r3, #64	; 0x40
80001950:	e5823000 	str	r3, [r2]
80001954:	e51b3038 	ldr	r3, [fp, #-56]	; 0xffffffc8
80001958:	e283301c 	add	r3, r3, #28
8000195c:	e1a01003 	mov	r1, r3
80001960:	e51b3038 	ldr	r3, [fp, #-56]	; 0xffffffc8
80001964:	e283301c 	add	r3, r3, #28
80001968:	e5932000 	ldr	r2, [r3]
8000196c:	e51b3034 	ldr	r3, [fp, #-52]	; 0xffffffcc
80001970:	e1823003 	orr	r3, r2, r3
80001974:	e5813000 	str	r3, [r1]
80001978:	e51b3024 	ldr	r3, [fp, #-36]	; 0xffffffdc
8000197c:	e3530000 	cmp	r3, #0
80001980:	1a000013 	bne	0x800019d4
80001984:	e51b3038 	ldr	r3, [fp, #-56]	; 0xffffffc8
80001988:	e2833040 	add	r3, r3, #64	; 0x40
8000198c:	e1a02003 	mov	r2, r3
80001990:	e51b3038 	ldr	r3, [fp, #-56]	; 0xffffffc8
80001994:	e2833040 	add	r3, r3, #64	; 0x40
80001998:	e5933000 	ldr	r3, [r3]
8000199c:	e3c33001 	bic	r3, r3, #1
800019a0:	e5823000 	str	r3, [r2]
800019a4:	e51b3028 	ldr	r3, [fp, #-40]	; 0xffffffd8
800019a8:	e2033001 	and	r3, r3, #1
800019ac:	e50b3028 	str	r3, [fp, #-40]	; 0xffffffd8
800019b0:	e51b3008 	ldr	r3, [fp, #-8]
800019b4:	e3c33008 	bic	r3, r3, #8
800019b8:	e50b3008 	str	r3, [fp, #-8]
800019bc:	e51b3028 	ldr	r3, [fp, #-40]	; 0xffffffd8
800019c0:	e1a03183 	lsl	r3, r3, #3
800019c4:	e51b2008 	ldr	r2, [fp, #-8]
800019c8:	e1823003 	orr	r3, r2, r3
800019cc:	e50b3008 	str	r3, [fp, #-8]
800019d0:	ea00001c 	b	0x80001a48
800019d4:	e51b3028 	ldr	r3, [fp, #-40]	; 0xffffffd8
800019d8:	e2033003 	and	r3, r3, #3
800019dc:	e50b3028 	str	r3, [fp, #-40]	; 0xffffffd8
800019e0:	e51b3038 	ldr	r3, [fp, #-56]	; 0xffffffc8
800019e4:	e2833040 	add	r3, r3, #64	; 0x40
800019e8:	e1a02003 	mov	r2, r3
800019ec:	e51b3038 	ldr	r3, [fp, #-56]	; 0xffffffc8
800019f0:	e2833040 	add	r3, r3, #64	; 0x40
800019f4:	e5933000 	ldr	r3, [r3]
800019f8:	e3833001 	orr	r3, r3, #1
800019fc:	e5823000 	str	r3, [r2]
80001a00:	e51b3038 	ldr	r3, [fp, #-56]	; 0xffffffc8
80001a04:	e2833040 	add	r3, r3, #64	; 0x40
80001a08:	e1a02003 	mov	r2, r3
80001a0c:	e51b3038 	ldr	r3, [fp, #-56]	; 0xffffffc8
80001a10:	e2833040 	add	r3, r3, #64	; 0x40
80001a14:	e5933000 	ldr	r3, [r3]
80001a18:	e3c33006 	bic	r3, r3, #6
80001a1c:	e5823000 	str	r3, [r2]
80001a20:	e51b3038 	ldr	r3, [fp, #-56]	; 0xffffffc8
80001a24:	e2833040 	add	r3, r3, #64	; 0x40
80001a28:	e1a01003 	mov	r1, r3
80001a2c:	e51b3038 	ldr	r3, [fp, #-56]	; 0xffffffc8
80001a30:	e2833040 	add	r3, r3, #64	; 0x40
80001a34:	e5932000 	ldr	r2, [r3]
80001a38:	e51b3028 	ldr	r3, [fp, #-40]	; 0xffffffd8
80001a3c:	e1a03083 	lsl	r3, r3, #1
80001a40:	e1823003 	orr	r3, r2, r3
80001a44:	e5813000 	str	r3, [r1]
80001a48:	e51b3020 	ldr	r3, [fp, #-32]	; 0xffffffe0
80001a4c:	e1a03083 	lsl	r3, r3, #1
80001a50:	e51b2008 	ldr	r2, [fp, #-8]
80001a54:	e1823003 	orr	r3, r2, r3
80001a58:	e50b3008 	str	r3, [fp, #-8]
80001a5c:	e51b301c 	ldr	r3, [fp, #-28]	; 0xffffffe4
80001a60:	e1a03103 	lsl	r3, r3, #2
80001a64:	e51b2008 	ldr	r2, [fp, #-8]
80001a68:	e1823003 	orr	r3, r2, r3
80001a6c:	e50b3008 	str	r3, [fp, #-8]
80001a70:	e51b1008 	ldr	r1, [fp, #-8]
80001a74:	e51b0038 	ldr	r0, [fp, #-56]	; 0xffffffc8
80001a78:	eb000045 	bl	0x80001b94
80001a7c:	e51b1030 	ldr	r1, [fp, #-48]	; 0xffffffd0
80001a80:	e51b0038 	ldr	r0, [fp, #-56]	; 0xffffffc8
80001a84:	eb00018a 	bl	0x800020b4
80001a88:	e51b102c 	ldr	r1, [fp, #-44]	; 0xffffffd4
80001a8c:	e51b0038 	ldr	r0, [fp, #-56]	; 0xffffffc8
80001a90:	eb00008a 	bl	0x80001cc0
80001a94:	e51b3008 	ldr	r3, [fp, #-8]
80001a98:	e1a00003 	mov	r0, r3
80001a9c:	e24bd004 	sub	sp, fp, #4
80001aa0:	e8bd8800 	pop	{fp, pc}
80001aa4:	e52db004 	push	{fp}		; (str fp, [sp, #-4]!)
80001aa8:	e28db000 	add	fp, sp, #0
80001aac:	e24dd00c 	sub	sp, sp, #12
80001ab0:	e50b0008 	str	r0, [fp, #-8]
80001ab4:	e50b100c 	str	r1, [fp, #-12]
80001ab8:	e51b3008 	ldr	r3, [fp, #-8]
80001abc:	e2833040 	add	r3, r3, #64	; 0x40
80001ac0:	e1a02003 	mov	r2, r3
80001ac4:	e51b3008 	ldr	r3, [fp, #-8]
80001ac8:	e2833040 	add	r3, r3, #64	; 0x40
80001acc:	e5933000 	ldr	r3, [r3]
80001ad0:	e3833001 	orr	r3, r3, #1
80001ad4:	e5823000 	str	r3, [r2]
80001ad8:	e51b3008 	ldr	r3, [fp, #-8]
80001adc:	e2833040 	add	r3, r3, #64	; 0x40
80001ae0:	e1a02003 	mov	r2, r3
80001ae4:	e51b3008 	ldr	r3, [fp, #-8]
80001ae8:	e2833040 	add	r3, r3, #64	; 0x40
80001aec:	e5933000 	ldr	r3, [r3]
80001af0:	e3c33006 	bic	r3, r3, #6
80001af4:	e5823000 	str	r3, [r2]
80001af8:	e51b3008 	ldr	r3, [fp, #-8]
80001afc:	e2833040 	add	r3, r3, #64	; 0x40
80001b00:	e1a01003 	mov	r1, r3
80001b04:	e51b3008 	ldr	r3, [fp, #-8]
80001b08:	e2833040 	add	r3, r3, #64	; 0x40
80001b0c:	e5932000 	ldr	r2, [r3]
80001b10:	e51b300c 	ldr	r3, [fp, #-12]
80001b14:	e1a03083 	lsl	r3, r3, #1
80001b18:	e2033006 	and	r3, r3, #6
80001b1c:	e1823003 	orr	r3, r2, r3
80001b20:	e5813000 	str	r3, [r1]
80001b24:	e320f000 	nop	{0}
80001b28:	e28bd000 	add	sp, fp, #0
80001b2c:	e49db004 	pop	{fp}		; (ldr fp, [sp], #4)
80001b30:	e12fff1e 	bx	lr
80001b34:	e52db004 	push	{fp}		; (str fp, [sp, #-4]!)
80001b38:	e28db000 	add	fp, sp, #0
80001b3c:	e24dd00c 	sub	sp, sp, #12
80001b40:	e50b0008 	str	r0, [fp, #-8]
80001b44:	e51b3008 	ldr	r3, [fp, #-8]
80001b48:	e2833040 	add	r3, r3, #64	; 0x40
80001b4c:	e1a02003 	mov	r2, r3
80001b50:	e51b3008 	ldr	r3, [fp, #-8]
80001b54:	e2833040 	add	r3, r3, #64	; 0x40
80001b58:	e5933000 	ldr	r3, [r3]
80001b5c:	e3833001 	orr	r3, r3, #1
80001b60:	e5823000 	str	r3, [r2]
80001b64:	e51b3008 	ldr	r3, [fp, #-8]
80001b68:	e2833040 	add	r3, r3, #64	; 0x40
80001b6c:	e1a02003 	mov	r2, r3
80001b70:	e51b3008 	ldr	r3, [fp, #-8]
80001b74:	e2833040 	add	r3, r3, #64	; 0x40
80001b78:	e5933000 	ldr	r3, [r3]
80001b7c:	e3c33006 	bic	r3, r3, #6
80001b80:	e5823000 	str	r3, [r2]
80001b84:	e320f000 	nop	{0}
80001b88:	e28bd000 	add	sp, fp, #0
80001b8c:	e49db004 	pop	{fp}		; (ldr fp, [sp], #4)
80001b90:	e12fff1e 	bx	lr
80001b94:	e92d4800 	push	{fp, lr}
80001b98:	e28db004 	add	fp, sp, #4
80001b9c:	e24dd018 	sub	sp, sp, #24
80001ba0:	e50b0018 	str	r0, [fp, #-24]	; 0xffffffe8
80001ba4:	e50b101c 	str	r1, [fp, #-28]	; 0xffffffe4
80001ba8:	e3a03000 	mov	r3, #0
80001bac:	e50b3008 	str	r3, [fp, #-8]
80001bb0:	e3a03000 	mov	r3, #0
80001bb4:	e50b300c 	str	r3, [fp, #-12]
80001bb8:	e3a03000 	mov	r3, #0
80001bbc:	e50b3010 	str	r3, [fp, #-16]
80001bc0:	e3a01080 	mov	r1, #128	; 0x80
80001bc4:	e51b0018 	ldr	r0, [fp, #-24]	; 0xffffffe8
80001bc8:	ebfffdeb 	bl	0x8000137c
80001bcc:	e50b0010 	str	r0, [fp, #-16]
80001bd0:	e3a01000 	mov	r1, #0
80001bd4:	e51b0018 	ldr	r0, [fp, #-24]	; 0xffffffe8
80001bd8:	ebfffd4a 	bl	0x80001108
80001bdc:	e50b0008 	str	r0, [fp, #-8]
80001be0:	e51b0018 	ldr	r0, [fp, #-24]	; 0xffffffe8
80001be4:	eb000013 	bl	0x80001c38
80001be8:	e50b000c 	str	r0, [fp, #-12]
80001bec:	e51b3018 	ldr	r3, [fp, #-24]	; 0xffffffe8
80001bf0:	e2833008 	add	r3, r3, #8
80001bf4:	e1a02003 	mov	r2, r3
80001bf8:	e51b301c 	ldr	r3, [fp, #-28]	; 0xffffffe4
80001bfc:	e5823000 	str	r3, [r2]
80001c00:	e51b100c 	ldr	r1, [fp, #-12]
80001c04:	e51b0018 	ldr	r0, [fp, #-24]	; 0xffffffe8
80001c08:	eb00002c 	bl	0x80001cc0
80001c0c:	e51b1008 	ldr	r1, [fp, #-8]
80001c10:	e51b0018 	ldr	r0, [fp, #-24]	; 0xffffffe8
80001c14:	ebfffd3b 	bl	0x80001108
80001c18:	e51b3018 	ldr	r3, [fp, #-24]	; 0xffffffe8
80001c1c:	e283300c 	add	r3, r3, #12
80001c20:	e1a02003 	mov	r2, r3
80001c24:	e51b3010 	ldr	r3, [fp, #-16]
80001c28:	e5823000 	str	r3, [r2]
80001c2c:	e320f000 	nop	{0}
80001c30:	e24bd004 	sub	sp, fp, #4
80001c34:	e8bd8800 	pop	{fp, pc}
80001c38:	e92d4800 	push	{fp, lr}
80001c3c:	e28db004 	add	fp, sp, #4
80001c40:	e24dd010 	sub	sp, sp, #16
80001c44:	e50b0010 	str	r0, [fp, #-16]
80001c48:	e3a03000 	mov	r3, #0
80001c4c:	e50b3008 	str	r3, [fp, #-8]
80001c50:	e3a03000 	mov	r3, #0
80001c54:	e50b300c 	str	r3, [fp, #-12]
80001c58:	e3a010bf 	mov	r1, #191	; 0xbf
80001c5c:	e51b0010 	ldr	r0, [fp, #-16]
80001c60:	ebfffdc5 	bl	0x8000137c
80001c64:	e50b000c 	str	r0, [fp, #-12]
80001c68:	e51b3010 	ldr	r3, [fp, #-16]
80001c6c:	e2833008 	add	r3, r3, #8
80001c70:	e5933000 	ldr	r3, [r3]
80001c74:	e2033010 	and	r3, r3, #16
80001c78:	e50b3008 	str	r3, [fp, #-8]
80001c7c:	e51b3010 	ldr	r3, [fp, #-16]
80001c80:	e2833008 	add	r3, r3, #8
80001c84:	e1a02003 	mov	r2, r3
80001c88:	e51b3010 	ldr	r3, [fp, #-16]
80001c8c:	e2833008 	add	r3, r3, #8
80001c90:	e5933000 	ldr	r3, [r3]
80001c94:	e3833010 	orr	r3, r3, #16
80001c98:	e5823000 	str	r3, [r2]
80001c9c:	e51b3010 	ldr	r3, [fp, #-16]
80001ca0:	e283300c 	add	r3, r3, #12
80001ca4:	e1a02003 	mov	r2, r3
80001ca8:	e51b300c 	ldr	r3, [fp, #-12]
80001cac:	e5823000 	str	r3, [r2]
80001cb0:	e51b3008 	ldr	r3, [fp, #-8]
80001cb4:	e1a00003 	mov	r0, r3
80001cb8:	e24bd004 	sub	sp, fp, #4
80001cbc:	e8bd8800 	pop	{fp, pc}
80001cc0:	e92d4800 	push	{fp, lr}
80001cc4:	e28db004 	add	fp, sp, #4
80001cc8:	e24dd010 	sub	sp, sp, #16
80001ccc:	e50b0010 	str	r0, [fp, #-16]
80001cd0:	e50b1014 	str	r1, [fp, #-20]	; 0xffffffec
80001cd4:	e3a03000 	mov	r3, #0
80001cd8:	e50b3008 	str	r3, [fp, #-8]
80001cdc:	e3a010bf 	mov	r1, #191	; 0xbf
80001ce0:	e51b0010 	ldr	r0, [fp, #-16]
80001ce4:	ebfffda4 	bl	0x8000137c
80001ce8:	e50b0008 	str	r0, [fp, #-8]
80001cec:	e51b3010 	ldr	r3, [fp, #-16]
80001cf0:	e2833008 	add	r3, r3, #8
80001cf4:	e1a02003 	mov	r2, r3
80001cf8:	e51b3010 	ldr	r3, [fp, #-16]
80001cfc:	e2833008 	add	r3, r3, #8
80001d00:	e5933000 	ldr	r3, [r3]
80001d04:	e3c33010 	bic	r3, r3, #16
80001d08:	e5823000 	str	r3, [r2]
80001d0c:	e51b3010 	ldr	r3, [fp, #-16]
80001d10:	e2833008 	add	r3, r3, #8
80001d14:	e1a01003 	mov	r1, r3
80001d18:	e51b3010 	ldr	r3, [fp, #-16]
80001d1c:	e2833008 	add	r3, r3, #8
80001d20:	e5932000 	ldr	r2, [r3]
80001d24:	e51b3014 	ldr	r3, [fp, #-20]	; 0xffffffec
80001d28:	e2033010 	and	r3, r3, #16
80001d2c:	e1823003 	orr	r3, r2, r3
80001d30:	e5813000 	str	r3, [r1]
80001d34:	e51b3010 	ldr	r3, [fp, #-16]
80001d38:	e283300c 	add	r3, r3, #12
80001d3c:	e1a02003 	mov	r2, r3
80001d40:	e51b3008 	ldr	r3, [fp, #-8]
80001d44:	e5823000 	str	r3, [r2]
80001d48:	e320f000 	nop	{0}
80001d4c:	e24bd004 	sub	sp, fp, #4
80001d50:	e8bd8800 	pop	{fp, pc}
80001d54:	e92d4800 	push	{fp, lr}
80001d58:	e28db004 	add	fp, sp, #4
80001d5c:	e24dd018 	sub	sp, sp, #24
80001d60:	e50b0018 	str	r0, [fp, #-24]	; 0xffffffe8
80001d64:	e3a03000 	mov	r3, #0
80001d68:	e50b3008 	str	r3, [fp, #-8]
80001d6c:	e3a03000 	mov	r3, #0
80001d70:	e50b300c 	str	r3, [fp, #-12]
80001d74:	e3a03000 	mov	r3, #0
80001d78:	e50b3010 	str	r3, [fp, #-16]
80001d7c:	e3a010bf 	mov	r1, #191	; 0xbf
80001d80:	e51b0018 	ldr	r0, [fp, #-24]	; 0xffffffe8
80001d84:	ebfffd7c 	bl	0x8000137c
80001d88:	e50b0010 	str	r0, [fp, #-16]
80001d8c:	e51b3018 	ldr	r3, [fp, #-24]	; 0xffffffe8
80001d90:	e2833008 	add	r3, r3, #8
80001d94:	e5933000 	ldr	r3, [r3]
80001d98:	e2033010 	and	r3, r3, #16
80001d9c:	e50b3008 	str	r3, [fp, #-8]
80001da0:	e51b3018 	ldr	r3, [fp, #-24]	; 0xffffffe8
80001da4:	e2833008 	add	r3, r3, #8
80001da8:	e1a02003 	mov	r2, r3
80001dac:	e51b3018 	ldr	r3, [fp, #-24]	; 0xffffffe8
80001db0:	e2833008 	add	r3, r3, #8
80001db4:	e5933000 	ldr	r3, [r3]
80001db8:	e3833010 	orr	r3, r3, #16
80001dbc:	e5823000 	str	r3, [r2]
80001dc0:	e3a01080 	mov	r1, #128	; 0x80
80001dc4:	e51b0018 	ldr	r0, [fp, #-24]	; 0xffffffe8
80001dc8:	ebfffd6b 	bl	0x8000137c
80001dcc:	e51b3018 	ldr	r3, [fp, #-24]	; 0xffffffe8
80001dd0:	e2833010 	add	r3, r3, #16
80001dd4:	e5933000 	ldr	r3, [r3]
80001dd8:	e2033040 	and	r3, r3, #64	; 0x40
80001ddc:	e50b300c 	str	r3, [fp, #-12]
80001de0:	e51b3018 	ldr	r3, [fp, #-24]	; 0xffffffe8
80001de4:	e2833010 	add	r3, r3, #16
80001de8:	e1a02003 	mov	r2, r3
80001dec:	e51b3018 	ldr	r3, [fp, #-24]	; 0xffffffe8
80001df0:	e2833010 	add	r3, r3, #16
80001df4:	e5933000 	ldr	r3, [r3]
80001df8:	e3c33040 	bic	r3, r3, #64	; 0x40
80001dfc:	e5823000 	str	r3, [r2]
80001e00:	e3a010bf 	mov	r1, #191	; 0xbf
80001e04:	e51b0018 	ldr	r0, [fp, #-24]	; 0xffffffe8
80001e08:	ebfffd5b 	bl	0x8000137c
80001e0c:	e51b3018 	ldr	r3, [fp, #-24]	; 0xffffffe8
80001e10:	e2833008 	add	r3, r3, #8
80001e14:	e1a02003 	mov	r2, r3
80001e18:	e51b3018 	ldr	r3, [fp, #-24]	; 0xffffffe8
80001e1c:	e2833008 	add	r3, r3, #8
80001e20:	e5933000 	ldr	r3, [r3]
80001e24:	e3c33010 	bic	r3, r3, #16
80001e28:	e5823000 	str	r3, [r2]
80001e2c:	e51b3018 	ldr	r3, [fp, #-24]	; 0xffffffe8
80001e30:	e2833008 	add	r3, r3, #8
80001e34:	e1a01003 	mov	r1, r3
80001e38:	e51b3018 	ldr	r3, [fp, #-24]	; 0xffffffe8
80001e3c:	e2833008 	add	r3, r3, #8
80001e40:	e5932000 	ldr	r2, [r3]
80001e44:	e51b3008 	ldr	r3, [fp, #-8]
80001e48:	e1823003 	orr	r3, r2, r3
80001e4c:	e5813000 	str	r3, [r1]
80001e50:	e51b3018 	ldr	r3, [fp, #-24]	; 0xffffffe8
80001e54:	e283300c 	add	r3, r3, #12
80001e58:	e1a02003 	mov	r2, r3
80001e5c:	e51b3010 	ldr	r3, [fp, #-16]
80001e60:	e5823000 	str	r3, [r2]
80001e64:	e51b300c 	ldr	r3, [fp, #-12]
80001e68:	e1a00003 	mov	r0, r3
80001e6c:	e24bd004 	sub	sp, fp, #4
80001e70:	e8bd8800 	pop	{fp, pc}
80001e74:	e92d4800 	push	{fp, lr}
80001e78:	e28db004 	add	fp, sp, #4
80001e7c:	e24dd018 	sub	sp, sp, #24
80001e80:	e50b0018 	str	r0, [fp, #-24]	; 0xffffffe8
80001e84:	e3a03000 	mov	r3, #0
80001e88:	e50b3008 	str	r3, [fp, #-8]
80001e8c:	e3a03000 	mov	r3, #0
80001e90:	e50b300c 	str	r3, [fp, #-12]
80001e94:	e3a03000 	mov	r3, #0
80001e98:	e50b3010 	str	r3, [fp, #-16]
80001e9c:	e3a010bf 	mov	r1, #191	; 0xbf
80001ea0:	e51b0018 	ldr	r0, [fp, #-24]	; 0xffffffe8
80001ea4:	ebfffd34 	bl	0x8000137c
80001ea8:	e50b0010 	str	r0, [fp, #-16]
80001eac:	e51b3018 	ldr	r3, [fp, #-24]	; 0xffffffe8
80001eb0:	e2833008 	add	r3, r3, #8
80001eb4:	e5933000 	ldr	r3, [r3]
80001eb8:	e2033010 	and	r3, r3, #16
80001ebc:	e50b3008 	str	r3, [fp, #-8]
80001ec0:	e51b3018 	ldr	r3, [fp, #-24]	; 0xffffffe8
80001ec4:	e2833008 	add	r3, r3, #8
80001ec8:	e1a02003 	mov	r2, r3
80001ecc:	e51b3018 	ldr	r3, [fp, #-24]	; 0xffffffe8
80001ed0:	e2833008 	add	r3, r3, #8
80001ed4:	e5933000 	ldr	r3, [r3]
80001ed8:	e3833010 	orr	r3, r3, #16
80001edc:	e5823000 	str	r3, [r2]
80001ee0:	e3a01080 	mov	r1, #128	; 0x80
80001ee4:	e51b0018 	ldr	r0, [fp, #-24]	; 0xffffffe8
80001ee8:	ebfffd23 	bl	0x8000137c
80001eec:	e51b3018 	ldr	r3, [fp, #-24]	; 0xffffffe8
80001ef0:	e2833010 	add	r3, r3, #16
80001ef4:	e5933000 	ldr	r3, [r3]
80001ef8:	e2033040 	and	r3, r3, #64	; 0x40
80001efc:	e50b300c 	str	r3, [fp, #-12]
80001f00:	e51b3018 	ldr	r3, [fp, #-24]	; 0xffffffe8
80001f04:	e2833010 	add	r3, r3, #16
80001f08:	e1a02003 	mov	r2, r3
80001f0c:	e51b3018 	ldr	r3, [fp, #-24]	; 0xffffffe8
80001f10:	e2833010 	add	r3, r3, #16
80001f14:	e5933000 	ldr	r3, [r3]
80001f18:	e3833040 	orr	r3, r3, #64	; 0x40
80001f1c:	e5823000 	str	r3, [r2]
80001f20:	e3a010bf 	mov	r1, #191	; 0xbf
80001f24:	e51b0018 	ldr	r0, [fp, #-24]	; 0xffffffe8
80001f28:	ebfffd13 	bl	0x8000137c
80001f2c:	e51b3018 	ldr	r3, [fp, #-24]	; 0xffffffe8
80001f30:	e2833008 	add	r3, r3, #8
80001f34:	e1a02003 	mov	r2, r3
80001f38:	e51b3018 	ldr	r3, [fp, #-24]	; 0xffffffe8
80001f3c:	e2833008 	add	r3, r3, #8
80001f40:	e5933000 	ldr	r3, [r3]
80001f44:	e3c33010 	bic	r3, r3, #16
80001f48:	e5823000 	str	r3, [r2]
80001f4c:	e51b3018 	ldr	r3, [fp, #-24]	; 0xffffffe8
80001f50:	e2833008 	add	r3, r3, #8
80001f54:	e1a01003 	mov	r1, r3
80001f58:	e51b3018 	ldr	r3, [fp, #-24]	; 0xffffffe8
80001f5c:	e2833008 	add	r3, r3, #8
80001f60:	e5932000 	ldr	r2, [r3]
80001f64:	e51b3008 	ldr	r3, [fp, #-8]
80001f68:	e1823003 	orr	r3, r2, r3
80001f6c:	e5813000 	str	r3, [r1]
80001f70:	e51b3018 	ldr	r3, [fp, #-24]	; 0xffffffe8
80001f74:	e283300c 	add	r3, r3, #12
80001f78:	e1a02003 	mov	r2, r3
80001f7c:	e51b3010 	ldr	r3, [fp, #-16]
80001f80:	e5823000 	str	r3, [r2]
80001f84:	e51b300c 	ldr	r3, [fp, #-12]
80001f88:	e1a00003 	mov	r0, r3
80001f8c:	e24bd004 	sub	sp, fp, #4
80001f90:	e8bd8800 	pop	{fp, pc}
80001f94:	e92d4800 	push	{fp, lr}
80001f98:	e28db004 	add	fp, sp, #4
80001f9c:	e24dd018 	sub	sp, sp, #24
80001fa0:	e50b0018 	str	r0, [fp, #-24]	; 0xffffffe8
80001fa4:	e3a03000 	mov	r3, #0
80001fa8:	e50b3008 	str	r3, [fp, #-8]
80001fac:	e3a03000 	mov	r3, #0
80001fb0:	e50b300c 	str	r3, [fp, #-12]
80001fb4:	e3a03000 	mov	r3, #0
80001fb8:	e50b3010 	str	r3, [fp, #-16]
80001fbc:	e3a010bf 	mov	r1, #191	; 0xbf
80001fc0:	e51b0018 	ldr	r0, [fp, #-24]	; 0xffffffe8
80001fc4:	ebfffcec 	bl	0x8000137c
80001fc8:	e50b0010 	str	r0, [fp, #-16]
80001fcc:	e51b3018 	ldr	r3, [fp, #-24]	; 0xffffffe8
80001fd0:	e2833008 	add	r3, r3, #8
80001fd4:	e5933000 	ldr	r3, [r3]
80001fd8:	e2033010 	and	r3, r3, #16
80001fdc:	e50b3008 	str	r3, [fp, #-8]
80001fe0:	e51b3018 	ldr	r3, [fp, #-24]	; 0xffffffe8
80001fe4:	e2833008 	add	r3, r3, #8
80001fe8:	e1a02003 	mov	r2, r3
80001fec:	e51b3018 	ldr	r3, [fp, #-24]	; 0xffffffe8
80001ff0:	e2833008 	add	r3, r3, #8
80001ff4:	e5933000 	ldr	r3, [r3]
80001ff8:	e3833010 	orr	r3, r3, #16
80001ffc:	e5823000 	str	r3, [r2]
80002000:	e3a01080 	mov	r1, #128	; 0x80
80002004:	e51b0018 	ldr	r0, [fp, #-24]	; 0xffffffe8
80002008:	ebfffcdb 	bl	0x8000137c
8000200c:	e51b3018 	ldr	r3, [fp, #-24]	; 0xffffffe8
80002010:	e2833010 	add	r3, r3, #16
80002014:	e5933000 	ldr	r3, [r3]
80002018:	e2033040 	and	r3, r3, #64	; 0x40
8000201c:	e50b300c 	str	r3, [fp, #-12]
80002020:	e51b3018 	ldr	r3, [fp, #-24]	; 0xffffffe8
80002024:	e2833010 	add	r3, r3, #16
80002028:	e1a02003 	mov	r2, r3
8000202c:	e51b3018 	ldr	r3, [fp, #-24]	; 0xffffffe8
80002030:	e2833010 	add	r3, r3, #16
80002034:	e5933000 	ldr	r3, [r3]
80002038:	e3c33040 	bic	r3, r3, #64	; 0x40
8000203c:	e5823000 	str	r3, [r2]
80002040:	e3a010bf 	mov	r1, #191	; 0xbf
80002044:	e51b0018 	ldr	r0, [fp, #-24]	; 0xffffffe8
80002048:	ebfffccb 	bl	0x8000137c
8000204c:	e51b3018 	ldr	r3, [fp, #-24]	; 0xffffffe8
80002050:	e2833008 	add	r3, r3, #8
80002054:	e1a02003 	mov	r2, r3
80002058:	e51b3018 	ldr	r3, [fp, #-24]	; 0xffffffe8
8000205c:	e2833008 	add	r3, r3, #8
80002060:	e5933000 	ldr	r3, [r3]
80002064:	e3c33010 	bic	r3, r3, #16
80002068:	e5823000 	str	r3, [r2]
8000206c:	e51b3018 	ldr	r3, [fp, #-24]	; 0xffffffe8
80002070:	e2833008 	add	r3, r3, #8
80002074:	e1a01003 	mov	r1, r3
80002078:	e51b3018 	ldr	r3, [fp, #-24]	; 0xffffffe8
8000207c:	e2833008 	add	r3, r3, #8
80002080:	e5932000 	ldr	r2, [r3]
80002084:	e51b3008 	ldr	r3, [fp, #-8]
80002088:	e1823003 	orr	r3, r2, r3
8000208c:	e5813000 	str	r3, [r1]
80002090:	e51b3018 	ldr	r3, [fp, #-24]	; 0xffffffe8
80002094:	e283300c 	add	r3, r3, #12
80002098:	e1a02003 	mov	r2, r3
8000209c:	e51b3010 	ldr	r3, [fp, #-16]
800020a0:	e5823000 	str	r3, [r2]
800020a4:	e51b300c 	ldr	r3, [fp, #-12]
800020a8:	e1a00003 	mov	r0, r3
800020ac:	e24bd004 	sub	sp, fp, #4
800020b0:	e8bd8800 	pop	{fp, pc}
800020b4:	e92d4800 	push	{fp, lr}
800020b8:	e28db004 	add	fp, sp, #4
800020bc:	e24dd010 	sub	sp, sp, #16
800020c0:	e50b0010 	str	r0, [fp, #-16]
800020c4:	e50b1014 	str	r1, [fp, #-20]	; 0xffffffec
800020c8:	e3a03000 	mov	r3, #0
800020cc:	e50b3008 	str	r3, [fp, #-8]
800020d0:	e3a03000 	mov	r3, #0
800020d4:	e50b300c 	str	r3, [fp, #-12]
800020d8:	e3a010bf 	mov	r1, #191	; 0xbf
800020dc:	e51b0010 	ldr	r0, [fp, #-16]
800020e0:	ebfffca5 	bl	0x8000137c
800020e4:	e50b000c 	str	r0, [fp, #-12]
800020e8:	e51b3010 	ldr	r3, [fp, #-16]
800020ec:	e2833008 	add	r3, r3, #8
800020f0:	e5933000 	ldr	r3, [r3]
800020f4:	e2033010 	and	r3, r3, #16
800020f8:	e50b3008 	str	r3, [fp, #-8]
800020fc:	e51b3010 	ldr	r3, [fp, #-16]
80002100:	e2833008 	add	r3, r3, #8
80002104:	e1a02003 	mov	r2, r3
80002108:	e51b3010 	ldr	r3, [fp, #-16]
8000210c:	e2833008 	add	r3, r3, #8
80002110:	e5933000 	ldr	r3, [r3]
80002114:	e3833010 	orr	r3, r3, #16
80002118:	e5823000 	str	r3, [r2]
8000211c:	e3a01080 	mov	r1, #128	; 0x80
80002120:	e51b0010 	ldr	r0, [fp, #-16]
80002124:	ebfffc94 	bl	0x8000137c
80002128:	e51b3010 	ldr	r3, [fp, #-16]
8000212c:	e2833010 	add	r3, r3, #16
80002130:	e1a02003 	mov	r2, r3
80002134:	e51b3010 	ldr	r3, [fp, #-16]
80002138:	e2833010 	add	r3, r3, #16
8000213c:	e5933000 	ldr	r3, [r3]
80002140:	e3c33040 	bic	r3, r3, #64	; 0x40
80002144:	e5823000 	str	r3, [r2]
80002148:	e51b3010 	ldr	r3, [fp, #-16]
8000214c:	e2833010 	add	r3, r3, #16
80002150:	e1a01003 	mov	r1, r3
80002154:	e51b3010 	ldr	r3, [fp, #-16]
80002158:	e2833010 	add	r3, r3, #16
8000215c:	e5932000 	ldr	r2, [r3]
80002160:	e51b3014 	ldr	r3, [fp, #-20]	; 0xffffffec
80002164:	e2033040 	and	r3, r3, #64	; 0x40
80002168:	e1823003 	orr	r3, r2, r3
8000216c:	e5813000 	str	r3, [r1]
80002170:	e3a010bf 	mov	r1, #191	; 0xbf
80002174:	e51b0010 	ldr	r0, [fp, #-16]
80002178:	ebfffc7f 	bl	0x8000137c
8000217c:	e51b3010 	ldr	r3, [fp, #-16]
80002180:	e2833008 	add	r3, r3, #8
80002184:	e1a02003 	mov	r2, r3
80002188:	e51b3010 	ldr	r3, [fp, #-16]
8000218c:	e2833008 	add	r3, r3, #8
80002190:	e5933000 	ldr	r3, [r3]
80002194:	e3c33010 	bic	r3, r3, #16
80002198:	e5823000 	str	r3, [r2]
8000219c:	e51b3010 	ldr	r3, [fp, #-16]
800021a0:	e2833008 	add	r3, r3, #8
800021a4:	e1a01003 	mov	r1, r3
800021a8:	e51b3010 	ldr	r3, [fp, #-16]
800021ac:	e2833008 	add	r3, r3, #8
800021b0:	e5932000 	ldr	r2, [r3]
800021b4:	e51b3008 	ldr	r3, [fp, #-8]
800021b8:	e1823003 	orr	r3, r2, r3
800021bc:	e5813000 	str	r3, [r1]
800021c0:	e51b3010 	ldr	r3, [fp, #-16]
800021c4:	e283300c 	add	r3, r3, #12
800021c8:	e1a02003 	mov	r2, r3
800021cc:	e51b300c 	ldr	r3, [fp, #-12]
800021d0:	e5823000 	str	r3, [r2]
800021d4:	e320f000 	nop	{0}
800021d8:	e24bd004 	sub	sp, fp, #4
800021dc:	e8bd8800 	pop	{fp, pc}
800021e0:	e92d4800 	push	{fp, lr}
800021e4:	e28db004 	add	fp, sp, #4
800021e8:	e24dd010 	sub	sp, sp, #16
800021ec:	e50b0010 	str	r0, [fp, #-16]
800021f0:	e50b1014 	str	r1, [fp, #-20]	; 0xffffffec
800021f4:	e3a03000 	mov	r3, #0
800021f8:	e50b3008 	str	r3, [fp, #-8]
800021fc:	e3a03000 	mov	r3, #0
80002200:	e50b300c 	str	r3, [fp, #-12]
80002204:	e3a010bf 	mov	r1, #191	; 0xbf
80002208:	e51b0010 	ldr	r0, [fp, #-16]
8000220c:	ebfffc5a 	bl	0x8000137c
80002210:	e50b000c 	str	r0, [fp, #-12]
80002214:	e51b3010 	ldr	r3, [fp, #-16]
80002218:	e2833008 	add	r3, r3, #8
8000221c:	e5933000 	ldr	r3, [r3]
80002220:	e2033010 	and	r3, r3, #16
80002224:	e50b3008 	str	r3, [fp, #-8]
80002228:	e51b3010 	ldr	r3, [fp, #-16]
8000222c:	e2833008 	add	r3, r3, #8
80002230:	e1a02003 	mov	r2, r3
80002234:	e51b3010 	ldr	r3, [fp, #-16]
80002238:	e2833008 	add	r3, r3, #8
8000223c:	e5933000 	ldr	r3, [r3]
80002240:	e3833010 	orr	r3, r3, #16
80002244:	e5823000 	str	r3, [r2]
80002248:	e3a0107f 	mov	r1, #127	; 0x7f
8000224c:	e51b0010 	ldr	r0, [fp, #-16]
80002250:	ebfffc49 	bl	0x8000137c
80002254:	e51b3010 	ldr	r3, [fp, #-16]
80002258:	e2833004 	add	r3, r3, #4
8000225c:	e1a01003 	mov	r1, r3
80002260:	e51b3010 	ldr	r3, [fp, #-16]
80002264:	e2833004 	add	r3, r3, #4
80002268:	e5932000 	ldr	r2, [r3]
8000226c:	e51b3014 	ldr	r3, [fp, #-20]	; 0xffffffec
80002270:	e20330f0 	and	r3, r3, #240	; 0xf0
80002274:	e1823003 	orr	r3, r2, r3
80002278:	e5813000 	str	r3, [r1]
8000227c:	e3a010bf 	mov	r1, #191	; 0xbf
80002280:	e51b0010 	ldr	r0, [fp, #-16]
80002284:	ebfffc3c 	bl	0x8000137c
80002288:	e51b3010 	ldr	r3, [fp, #-16]
8000228c:	e2833008 	add	r3, r3, #8
80002290:	e1a02003 	mov	r2, r3
80002294:	e51b3010 	ldr	r3, [fp, #-16]
80002298:	e2833008 	add	r3, r3, #8
8000229c:	e5933000 	ldr	r3, [r3]
800022a0:	e3c33010 	bic	r3, r3, #16
800022a4:	e5823000 	str	r3, [r2]
800022a8:	e51b3010 	ldr	r3, [fp, #-16]
800022ac:	e2833008 	add	r3, r3, #8
800022b0:	e1a01003 	mov	r1, r3
800022b4:	e51b3010 	ldr	r3, [fp, #-16]
800022b8:	e2833008 	add	r3, r3, #8
800022bc:	e5932000 	ldr	r2, [r3]
800022c0:	e51b3008 	ldr	r3, [fp, #-8]
800022c4:	e1823003 	orr	r3, r2, r3
800022c8:	e5813000 	str	r3, [r1]
800022cc:	e51b3010 	ldr	r3, [fp, #-16]
800022d0:	e283300c 	add	r3, r3, #12
800022d4:	e1a02003 	mov	r2, r3
800022d8:	e51b300c 	ldr	r3, [fp, #-12]
800022dc:	e5823000 	str	r3, [r2]
800022e0:	e51b3010 	ldr	r3, [fp, #-16]
800022e4:	e2833004 	add	r3, r3, #4
800022e8:	e1a01003 	mov	r1, r3
800022ec:	e51b3010 	ldr	r3, [fp, #-16]
800022f0:	e2833004 	add	r3, r3, #4
800022f4:	e5932000 	ldr	r2, [r3]
800022f8:	e51b3014 	ldr	r3, [fp, #-20]	; 0xffffffec
800022fc:	e203300f 	and	r3, r3, #15
80002300:	e1823003 	orr	r3, r2, r3
80002304:	e5813000 	str	r3, [r1]
80002308:	e320f000 	nop	{0}
8000230c:	e24bd004 	sub	sp, fp, #4
80002310:	e8bd8800 	pop	{fp, pc}
80002314:	e92d4800 	push	{fp, lr}
80002318:	e28db004 	add	fp, sp, #4
8000231c:	e24dd010 	sub	sp, sp, #16
80002320:	e50b0010 	str	r0, [fp, #-16]
80002324:	e50b1014 	str	r1, [fp, #-20]	; 0xffffffec
80002328:	e3a03000 	mov	r3, #0
8000232c:	e50b3008 	str	r3, [fp, #-8]
80002330:	e3a03000 	mov	r3, #0
80002334:	e50b300c 	str	r3, [fp, #-12]
80002338:	e3a010bf 	mov	r1, #191	; 0xbf
8000233c:	e51b0010 	ldr	r0, [fp, #-16]
80002340:	ebfffc0d 	bl	0x8000137c
80002344:	e50b000c 	str	r0, [fp, #-12]
80002348:	e51b3010 	ldr	r3, [fp, #-16]
8000234c:	e2833008 	add	r3, r3, #8
80002350:	e5933000 	ldr	r3, [r3]
80002354:	e2033010 	and	r3, r3, #16
80002358:	e50b3008 	str	r3, [fp, #-8]
8000235c:	e51b3010 	ldr	r3, [fp, #-16]
80002360:	e2833008 	add	r3, r3, #8
80002364:	e1a02003 	mov	r2, r3
80002368:	e51b3010 	ldr	r3, [fp, #-16]
8000236c:	e2833008 	add	r3, r3, #8
80002370:	e5933000 	ldr	r3, [r3]
80002374:	e3833010 	orr	r3, r3, #16
80002378:	e5823000 	str	r3, [r2]
8000237c:	e3a0107f 	mov	r1, #127	; 0x7f
80002380:	e51b0010 	ldr	r0, [fp, #-16]
80002384:	ebfffbfc 	bl	0x8000137c
80002388:	e51b3010 	ldr	r3, [fp, #-16]
8000238c:	e2833004 	add	r3, r3, #4
80002390:	e1a01003 	mov	r1, r3
80002394:	e51b3010 	ldr	r3, [fp, #-16]
80002398:	e2833004 	add	r3, r3, #4
8000239c:	e5932000 	ldr	r2, [r3]
800023a0:	e51b3014 	ldr	r3, [fp, #-20]	; 0xffffffec
800023a4:	e6ef3073 	uxtb	r3, r3
800023a8:	e1e03003 	mvn	r3, r3
800023ac:	e0033002 	and	r3, r3, r2
800023b0:	e5813000 	str	r3, [r1]
800023b4:	e3a010bf 	mov	r1, #191	; 0xbf
800023b8:	e51b0010 	ldr	r0, [fp, #-16]
800023bc:	ebfffbee 	bl	0x8000137c
800023c0:	e51b3010 	ldr	r3, [fp, #-16]
800023c4:	e2833008 	add	r3, r3, #8
800023c8:	e1a02003 	mov	r2, r3
800023cc:	e51b3010 	ldr	r3, [fp, #-16]
800023d0:	e2833008 	add	r3, r3, #8
800023d4:	e5933000 	ldr	r3, [r3]
800023d8:	e3c33010 	bic	r3, r3, #16
800023dc:	e5823000 	str	r3, [r2]
800023e0:	e51b3010 	ldr	r3, [fp, #-16]
800023e4:	e2833008 	add	r3, r3, #8
800023e8:	e1a01003 	mov	r1, r3
800023ec:	e51b3010 	ldr	r3, [fp, #-16]
800023f0:	e2833008 	add	r3, r3, #8
800023f4:	e5932000 	ldr	r2, [r3]
800023f8:	e51b3008 	ldr	r3, [fp, #-8]
800023fc:	e1823003 	orr	r3, r2, r3
80002400:	e5813000 	str	r3, [r1]
80002404:	e51b3010 	ldr	r3, [fp, #-16]
80002408:	e283300c 	add	r3, r3, #12
8000240c:	e1a02003 	mov	r2, r3
80002410:	e51b300c 	ldr	r3, [fp, #-12]
80002414:	e5823000 	str	r3, [r2]
80002418:	e320f000 	nop	{0}
8000241c:	e24bd004 	sub	sp, fp, #4
80002420:	e8bd8800 	pop	{fp, pc}
80002424:	e92d4800 	push	{fp, lr}
80002428:	e28db004 	add	fp, sp, #4
8000242c:	e24dd010 	sub	sp, sp, #16
80002430:	e50b0010 	str	r0, [fp, #-16]
80002434:	e3a03000 	mov	r3, #0
80002438:	e50b300c 	str	r3, [fp, #-12]
8000243c:	e3a03000 	mov	r3, #0
80002440:	e50b3008 	str	r3, [fp, #-8]
80002444:	e3a0107f 	mov	r1, #127	; 0x7f
80002448:	e51b0010 	ldr	r0, [fp, #-16]
8000244c:	ebfffbca 	bl	0x8000137c
80002450:	e50b000c 	str	r0, [fp, #-12]
80002454:	e51b3010 	ldr	r3, [fp, #-16]
80002458:	e2833014 	add	r3, r3, #20
8000245c:	e5933000 	ldr	r3, [r3]
80002460:	e2033060 	and	r3, r3, #96	; 0x60
80002464:	e3530000 	cmp	r3, #0
80002468:	0a000001 	beq	0x80002474
8000246c:	e3a03001 	mov	r3, #1
80002470:	e50b3008 	str	r3, [fp, #-8]
80002474:	e51b3010 	ldr	r3, [fp, #-16]
80002478:	e283300c 	add	r3, r3, #12
8000247c:	e1a02003 	mov	r2, r3
80002480:	e51b300c 	ldr	r3, [fp, #-12]
80002484:	e5823000 	str	r3, [r2]
80002488:	e51b3008 	ldr	r3, [fp, #-8]
8000248c:	e1a00003 	mov	r0, r3
80002490:	e24bd004 	sub	sp, fp, #4
80002494:	e8bd8800 	pop	{fp, pc}
80002498:	e92d4800 	push	{fp, lr}
8000249c:	e28db004 	add	fp, sp, #4
800024a0:	e24dd010 	sub	sp, sp, #16
800024a4:	e50b0010 	str	r0, [fp, #-16]
800024a8:	e3a03000 	mov	r3, #0
800024ac:	e50b300c 	str	r3, [fp, #-12]
800024b0:	e3a03000 	mov	r3, #0
800024b4:	e50b3008 	str	r3, [fp, #-8]
800024b8:	e3a0107f 	mov	r1, #127	; 0x7f
800024bc:	e51b0010 	ldr	r0, [fp, #-16]
800024c0:	ebfffbad 	bl	0x8000137c
800024c4:	e50b000c 	str	r0, [fp, #-12]
800024c8:	e51b3010 	ldr	r3, [fp, #-16]
800024cc:	e2833014 	add	r3, r3, #20
800024d0:	e5933000 	ldr	r3, [r3]
800024d4:	e2033001 	and	r3, r3, #1
800024d8:	e3530000 	cmp	r3, #0
800024dc:	0a000001 	beq	0x800024e8
800024e0:	e3a03001 	mov	r3, #1
800024e4:	e50b3008 	str	r3, [fp, #-8]
800024e8:	e51b3010 	ldr	r3, [fp, #-16]
800024ec:	e283300c 	add	r3, r3, #12
800024f0:	e1a02003 	mov	r2, r3
800024f4:	e51b300c 	ldr	r3, [fp, #-12]
800024f8:	e5823000 	str	r3, [r2]
800024fc:	e51b3008 	ldr	r3, [fp, #-8]
80002500:	e1a00003 	mov	r0, r3
80002504:	e24bd004 	sub	sp, fp, #4
80002508:	e8bd8800 	pop	{fp, pc}
8000250c:	e92d4800 	push	{fp, lr}
80002510:	e28db004 	add	fp, sp, #4
80002514:	e24dd010 	sub	sp, sp, #16
80002518:	e50b0010 	str	r0, [fp, #-16]
8000251c:	e1a03001 	mov	r3, r1
80002520:	e54b3011 	strb	r3, [fp, #-17]	; 0xffffffef
80002524:	e3a03000 	mov	r3, #0
80002528:	e50b300c 	str	r3, [fp, #-12]
8000252c:	e3a03000 	mov	r3, #0
80002530:	e50b3008 	str	r3, [fp, #-8]
80002534:	e3a0107f 	mov	r1, #127	; 0x7f
80002538:	e51b0010 	ldr	r0, [fp, #-16]
8000253c:	ebfffb8e 	bl	0x8000137c
80002540:	e50b000c 	str	r0, [fp, #-12]
80002544:	e51b3010 	ldr	r3, [fp, #-16]
80002548:	e2833014 	add	r3, r3, #20
8000254c:	e5933000 	ldr	r3, [r3]
80002550:	e2033060 	and	r3, r3, #96	; 0x60
80002554:	e3530000 	cmp	r3, #0
80002558:	0a000004 	beq	0x80002570
8000255c:	e51b3010 	ldr	r3, [fp, #-16]
80002560:	e55b2011 	ldrb	r2, [fp, #-17]	; 0xffffffef
80002564:	e5832000 	str	r2, [r3]
80002568:	e3a03001 	mov	r3, #1
8000256c:	e50b3008 	str	r3, [fp, #-8]
80002570:	e51b3010 	ldr	r3, [fp, #-16]
80002574:	e283300c 	add	r3, r3, #12
80002578:	e1a02003 	mov	r2, r3
8000257c:	e51b300c 	ldr	r3, [fp, #-12]
80002580:	e5823000 	str	r3, [r2]
80002584:	e51b3008 	ldr	r3, [fp, #-8]
80002588:	e1a00003 	mov	r0, r3
8000258c:	e24bd004 	sub	sp, fp, #4
80002590:	e8bd8800 	pop	{fp, pc}
80002594:	e92d4800 	push	{fp, lr}
80002598:	e28db004 	add	fp, sp, #4
8000259c:	e24dd010 	sub	sp, sp, #16
800025a0:	e50b0010 	str	r0, [fp, #-16]
800025a4:	e3a03000 	mov	r3, #0
800025a8:	e50b300c 	str	r3, [fp, #-12]
800025ac:	e3e03000 	mvn	r3, #0
800025b0:	e54b3005 	strb	r3, [fp, #-5]
800025b4:	e3a0107f 	mov	r1, #127	; 0x7f
800025b8:	e51b0010 	ldr	r0, [fp, #-16]
800025bc:	ebfffb6e 	bl	0x8000137c
800025c0:	e50b000c 	str	r0, [fp, #-12]
800025c4:	e51b3010 	ldr	r3, [fp, #-16]
800025c8:	e2833014 	add	r3, r3, #20
800025cc:	e5933000 	ldr	r3, [r3]
800025d0:	e2033001 	and	r3, r3, #1
800025d4:	e3530000 	cmp	r3, #0
800025d8:	0a000002 	beq	0x800025e8
800025dc:	e51b3010 	ldr	r3, [fp, #-16]
800025e0:	e5933000 	ldr	r3, [r3]
800025e4:	e54b3005 	strb	r3, [fp, #-5]
800025e8:	e51b3010 	ldr	r3, [fp, #-16]
800025ec:	e283300c 	add	r3, r3, #12
800025f0:	e1a02003 	mov	r2, r3
800025f4:	e51b300c 	ldr	r3, [fp, #-12]
800025f8:	e5823000 	str	r3, [r2]
800025fc:	e15b30d5 	ldrsb	r3, [fp, #-5]
80002600:	e1a00003 	mov	r0, r3
80002604:	e24bd004 	sub	sp, fp, #4
80002608:	e8bd8800 	pop	{fp, pc}
8000260c:	e92d4800 	push	{fp, lr}
80002610:	e28db004 	add	fp, sp, #4
80002614:	e24dd010 	sub	sp, sp, #16
80002618:	e50b0010 	str	r0, [fp, #-16]
8000261c:	e3a03000 	mov	r3, #0
80002620:	e50b3008 	str	r3, [fp, #-8]
80002624:	e3a03000 	mov	r3, #0
80002628:	e54b3009 	strb	r3, [fp, #-9]
8000262c:	e3a0107f 	mov	r1, #127	; 0x7f
80002630:	e51b0010 	ldr	r0, [fp, #-16]
80002634:	ebfffb50 	bl	0x8000137c
80002638:	e50b0008 	str	r0, [fp, #-8]
8000263c:	e320f000 	nop	{0}
80002640:	e51b3010 	ldr	r3, [fp, #-16]
80002644:	e2833014 	add	r3, r3, #20
80002648:	e5933000 	ldr	r3, [r3]
8000264c:	e2033001 	and	r3, r3, #1
80002650:	e3530000 	cmp	r3, #0
80002654:	0afffff9 	beq	0x80002640
80002658:	e51b3010 	ldr	r3, [fp, #-16]
8000265c:	e5933000 	ldr	r3, [r3]
80002660:	e54b3009 	strb	r3, [fp, #-9]
80002664:	e51b3010 	ldr	r3, [fp, #-16]
80002668:	e283300c 	add	r3, r3, #12
8000266c:	e1a02003 	mov	r2, r3
80002670:	e51b3008 	ldr	r3, [fp, #-8]
80002674:	e5823000 	str	r3, [r2]
80002678:	e15b30d9 	ldrsb	r3, [fp, #-9]
8000267c:	e1a00003 	mov	r0, r3
80002680:	e24bd004 	sub	sp, fp, #4
80002684:	e8bd8800 	pop	{fp, pc}
80002688:	e92d4800 	push	{fp, lr}
8000268c:	e28db004 	add	fp, sp, #4
80002690:	e24dd010 	sub	sp, sp, #16
80002694:	e50b0010 	str	r0, [fp, #-16]
80002698:	e50b1014 	str	r1, [fp, #-20]	; 0xffffffec
8000269c:	e3a03000 	mov	r3, #0
800026a0:	e50b300c 	str	r3, [fp, #-12]
800026a4:	e3e03000 	mvn	r3, #0
800026a8:	e50b3008 	str	r3, [fp, #-8]
800026ac:	e3a0107f 	mov	r1, #127	; 0x7f
800026b0:	e51b0010 	ldr	r0, [fp, #-16]
800026b4:	ebfffb30 	bl	0x8000137c
800026b8:	e50b000c 	str	r0, [fp, #-12]
800026bc:	ea000002 	b	0x800026cc
800026c0:	e51b3014 	ldr	r3, [fp, #-20]	; 0xffffffec
800026c4:	e2433001 	sub	r3, r3, #1
800026c8:	e50b3014 	str	r3, [fp, #-20]	; 0xffffffec
800026cc:	e51b3010 	ldr	r3, [fp, #-16]
800026d0:	e2833014 	add	r3, r3, #20
800026d4:	e5933000 	ldr	r3, [r3]
800026d8:	e2033001 	and	r3, r3, #1
800026dc:	e3530000 	cmp	r3, #0
800026e0:	1a000002 	bne	0x800026f0
800026e4:	e51b3014 	ldr	r3, [fp, #-20]	; 0xffffffec
800026e8:	e3530000 	cmp	r3, #0
800026ec:	1afffff3 	bne	0x800026c0
800026f0:	e51b3014 	ldr	r3, [fp, #-20]	; 0xffffffec
800026f4:	e3530000 	cmp	r3, #0
800026f8:	0a000003 	beq	0x8000270c
800026fc:	e51b3010 	ldr	r3, [fp, #-16]
80002700:	e5933000 	ldr	r3, [r3]
80002704:	e6ef3073 	uxtb	r3, r3
80002708:	e50b3008 	str	r3, [fp, #-8]
8000270c:	e51b3010 	ldr	r3, [fp, #-16]
80002710:	e283300c 	add	r3, r3, #12
80002714:	e1a02003 	mov	r2, r3
80002718:	e51b300c 	ldr	r3, [fp, #-12]
8000271c:	e5823000 	str	r3, [r2]
80002720:	e51b3008 	ldr	r3, [fp, #-8]
80002724:	e1a00003 	mov	r0, r3
80002728:	e24bd004 	sub	sp, fp, #4
8000272c:	e8bd8800 	pop	{fp, pc}
80002730:	e92d4800 	push	{fp, lr}
80002734:	e28db004 	add	fp, sp, #4
80002738:	e24dd010 	sub	sp, sp, #16
8000273c:	e50b0010 	str	r0, [fp, #-16]
80002740:	e1a03001 	mov	r3, r1
80002744:	e54b3011 	strb	r3, [fp, #-17]	; 0xffffffef
80002748:	e3a03000 	mov	r3, #0
8000274c:	e50b3008 	str	r3, [fp, #-8]
80002750:	e3a0107f 	mov	r1, #127	; 0x7f
80002754:	e51b0010 	ldr	r0, [fp, #-16]
80002758:	ebfffb07 	bl	0x8000137c
8000275c:	e50b0008 	str	r0, [fp, #-8]
80002760:	e320f000 	nop	{0}
80002764:	e51b3010 	ldr	r3, [fp, #-16]
80002768:	e2833014 	add	r3, r3, #20
8000276c:	e5933000 	ldr	r3, [r3]
80002770:	e2033060 	and	r3, r3, #96	; 0x60
80002774:	e3530060 	cmp	r3, #96	; 0x60
80002778:	1afffff9 	bne	0x80002764
8000277c:	e51b3010 	ldr	r3, [fp, #-16]
80002780:	e55b2011 	ldrb	r2, [fp, #-17]	; 0xffffffef
80002784:	e5832000 	str	r2, [r3]
80002788:	e51b3010 	ldr	r3, [fp, #-16]
8000278c:	e283300c 	add	r3, r3, #12
80002790:	e1a02003 	mov	r2, r3
80002794:	e51b3008 	ldr	r3, [fp, #-8]
80002798:	e5823000 	str	r3, [r2]
8000279c:	e320f000 	nop	{0}
800027a0:	e24bd004 	sub	sp, fp, #4
800027a4:	e8bd8800 	pop	{fp, pc}
800027a8:	e52db004 	push	{fp}		; (str fp, [sp, #-4]!)
800027ac:	e28db000 	add	fp, sp, #0
800027b0:	e24dd00c 	sub	sp, sp, #12
800027b4:	e50b0008 	str	r0, [fp, #-8]
800027b8:	e1a03001 	mov	r3, r1
800027bc:	e54b3009 	strb	r3, [fp, #-9]
800027c0:	e51b3008 	ldr	r3, [fp, #-8]
800027c4:	e55b2009 	ldrb	r2, [fp, #-9]
800027c8:	e5832000 	str	r2, [r3]
800027cc:	e320f000 	nop	{0}
800027d0:	e28bd000 	add	sp, fp, #0
800027d4:	e49db004 	pop	{fp}		; (ldr fp, [sp], #4)
800027d8:	e12fff1e 	bx	lr
800027dc:	e52db004 	push	{fp}		; (str fp, [sp, #-4]!)
800027e0:	e28db000 	add	fp, sp, #0
800027e4:	e24dd00c 	sub	sp, sp, #12
800027e8:	e50b0008 	str	r0, [fp, #-8]
800027ec:	e51b3008 	ldr	r3, [fp, #-8]
800027f0:	e5933000 	ldr	r3, [r3]
800027f4:	e6af3073 	sxtb	r3, r3
800027f8:	e1a00003 	mov	r0, r3
800027fc:	e28bd000 	add	sp, fp, #0
80002800:	e49db004 	pop	{fp}		; (ldr fp, [sp], #4)
80002804:	e12fff1e 	bx	lr
80002808:	e52db004 	push	{fp}		; (str fp, [sp, #-4]!)
8000280c:	e28db000 	add	fp, sp, #0
80002810:	e24dd01c 	sub	sp, sp, #28
80002814:	e50b0010 	str	r0, [fp, #-16]
80002818:	e50b1014 	str	r1, [fp, #-20]	; 0xffffffec
8000281c:	e50b2018 	str	r2, [fp, #-24]	; 0xffffffe8
80002820:	e3a03000 	mov	r3, #0
80002824:	e50b3008 	str	r3, [fp, #-8]
80002828:	e3a03000 	mov	r3, #0
8000282c:	e50b3008 	str	r3, [fp, #-8]
80002830:	ea000008 	b	0x80002858
80002834:	e51b2010 	ldr	r2, [fp, #-16]
80002838:	e51b3014 	ldr	r3, [fp, #-20]	; 0xffffffec
8000283c:	e2831001 	add	r1, r3, #1
80002840:	e50b1014 	str	r1, [fp, #-20]	; 0xffffffec
80002844:	e5d33000 	ldrb	r3, [r3]
80002848:	e5823000 	str	r3, [r2]
8000284c:	e51b3008 	ldr	r3, [fp, #-8]
80002850:	e2833001 	add	r3, r3, #1
80002854:	e50b3008 	str	r3, [fp, #-8]
80002858:	e51b2008 	ldr	r2, [fp, #-8]
8000285c:	e51b3018 	ldr	r3, [fp, #-24]	; 0xffffffe8
80002860:	e1520003 	cmp	r2, r3
80002864:	3afffff2 	bcc	0x80002834
80002868:	e51b3008 	ldr	r3, [fp, #-8]
8000286c:	e1a00003 	mov	r0, r3
80002870:	e28bd000 	add	sp, fp, #0
80002874:	e49db004 	pop	{fp}		; (ldr fp, [sp], #4)
80002878:	e12fff1e 	bx	lr
8000287c:	e92d4800 	push	{fp, lr}
80002880:	e28db004 	add	fp, sp, #4
80002884:	e24dd010 	sub	sp, sp, #16
80002888:	e50b0010 	str	r0, [fp, #-16]
8000288c:	e3a03000 	mov	r3, #0
80002890:	e50b3008 	str	r3, [fp, #-8]
80002894:	e3a03000 	mov	r3, #0
80002898:	e50b300c 	str	r3, [fp, #-12]
8000289c:	e3a0107f 	mov	r1, #127	; 0x7f
800028a0:	e51b0010 	ldr	r0, [fp, #-16]
800028a4:	ebfffab4 	bl	0x8000137c
800028a8:	e50b0008 	str	r0, [fp, #-8]
800028ac:	e51b3010 	ldr	r3, [fp, #-16]
800028b0:	e2833014 	add	r3, r3, #20
800028b4:	e5933000 	ldr	r3, [r3]
800028b8:	e203309e 	and	r3, r3, #158	; 0x9e
800028bc:	e50b300c 	str	r3, [fp, #-12]
800028c0:	e51b3010 	ldr	r3, [fp, #-16]
800028c4:	e283300c 	add	r3, r3, #12
800028c8:	e1a02003 	mov	r2, r3
800028cc:	e51b3008 	ldr	r3, [fp, #-8]
800028d0:	e5823000 	str	r3, [r2]
800028d4:	e51b300c 	ldr	r3, [fp, #-12]
800028d8:	e1a00003 	mov	r0, r3
800028dc:	e24bd004 	sub	sp, fp, #4
800028e0:	e8bd8800 	pop	{fp, pc}
800028e4:	e92d4800 	push	{fp, lr}
800028e8:	e28db004 	add	fp, sp, #4
800028ec:	e24dd010 	sub	sp, sp, #16
800028f0:	e50b0010 	str	r0, [fp, #-16]
800028f4:	e3a03000 	mov	r3, #0
800028f8:	e50b3008 	str	r3, [fp, #-8]
800028fc:	e3a03000 	mov	r3, #0
80002900:	e50b300c 	str	r3, [fp, #-12]
80002904:	e3a0107f 	mov	r1, #127	; 0x7f
80002908:	e51b0010 	ldr	r0, [fp, #-16]
8000290c:	ebfffa9a 	bl	0x8000137c
80002910:	e50b0008 	str	r0, [fp, #-8]
80002914:	e51b3010 	ldr	r3, [fp, #-16]
80002918:	e2833008 	add	r3, r3, #8
8000291c:	e5933000 	ldr	r3, [r3]
80002920:	e203303e 	and	r3, r3, #62	; 0x3e
80002924:	e50b300c 	str	r3, [fp, #-12]
80002928:	e51b3010 	ldr	r3, [fp, #-16]
8000292c:	e283300c 	add	r3, r3, #12
80002930:	e1a02003 	mov	r2, r3
80002934:	e51b3008 	ldr	r3, [fp, #-8]
80002938:	e5823000 	str	r3, [r2]
8000293c:	e51b300c 	ldr	r3, [fp, #-12]
80002940:	e1a00003 	mov	r0, r3
80002944:	e24bd004 	sub	sp, fp, #4
80002948:	e8bd8800 	pop	{fp, pc}
8000294c:	e92d4800 	push	{fp, lr}
80002950:	e28db004 	add	fp, sp, #4
80002954:	e24dd010 	sub	sp, sp, #16
80002958:	e50b0010 	str	r0, [fp, #-16]
8000295c:	e3a03001 	mov	r3, #1
80002960:	e50b3008 	str	r3, [fp, #-8]
80002964:	e3a03000 	mov	r3, #0
80002968:	e50b300c 	str	r3, [fp, #-12]
8000296c:	e3a0107f 	mov	r1, #127	; 0x7f
80002970:	e51b0010 	ldr	r0, [fp, #-16]
80002974:	ebfffa80 	bl	0x8000137c
80002978:	e50b000c 	str	r0, [fp, #-12]
8000297c:	e51b3010 	ldr	r3, [fp, #-16]
80002980:	e2833008 	add	r3, r3, #8
80002984:	e5933000 	ldr	r3, [r3]
80002988:	e2033001 	and	r3, r3, #1
8000298c:	e3530000 	cmp	r3, #0
80002990:	1a000001 	bne	0x8000299c
80002994:	e3a03000 	mov	r3, #0
80002998:	e50b3008 	str	r3, [fp, #-8]
8000299c:	e51b3010 	ldr	r3, [fp, #-16]
800029a0:	e283300c 	add	r3, r3, #12
800029a4:	e1a02003 	mov	r2, r3
800029a8:	e51b300c 	ldr	r3, [fp, #-12]
800029ac:	e5823000 	str	r3, [r2]
800029b0:	e51b3008 	ldr	r3, [fp, #-8]
800029b4:	e1a00003 	mov	r0, r3
800029b8:	e24bd004 	sub	sp, fp, #4
800029bc:	e8bd8800 	pop	{fp, pc}
800029c0:	e92d4800 	push	{fp, lr}
800029c4:	e28db004 	add	fp, sp, #4
800029c8:	e24dd010 	sub	sp, sp, #16
800029cc:	e50b0010 	str	r0, [fp, #-16]
800029d0:	e3a03000 	mov	r3, #0
800029d4:	e50b300c 	str	r3, [fp, #-12]
800029d8:	e3a03000 	mov	r3, #0
800029dc:	e50b3008 	str	r3, [fp, #-8]
800029e0:	e3a0107f 	mov	r1, #127	; 0x7f
800029e4:	e51b0010 	ldr	r0, [fp, #-16]
800029e8:	ebfffa63 	bl	0x8000137c
800029ec:	e50b000c 	str	r0, [fp, #-12]
800029f0:	e51b3010 	ldr	r3, [fp, #-16]
800029f4:	e2833008 	add	r3, r3, #8
800029f8:	e5933000 	ldr	r3, [r3]
800029fc:	e20330c0 	and	r3, r3, #192	; 0xc0
80002a00:	e3530000 	cmp	r3, #0
80002a04:	0a000001 	beq	0x80002a10
80002a08:	e3a03001 	mov	r3, #1
80002a0c:	e50b3008 	str	r3, [fp, #-8]
80002a10:	e51b3010 	ldr	r3, [fp, #-16]
80002a14:	e283300c 	add	r3, r3, #12
80002a18:	e1a02003 	mov	r2, r3
80002a1c:	e51b300c 	ldr	r3, [fp, #-12]
80002a20:	e5823000 	str	r3, [r2]
80002a24:	e51b3008 	ldr	r3, [fp, #-8]
80002a28:	e1a00003 	mov	r0, r3
80002a2c:	e24bd004 	sub	sp, fp, #4
80002a30:	e8bd8800 	pop	{fp, pc}
80002a34:	e92d4800 	push	{fp, lr}
80002a38:	e28db004 	add	fp, sp, #4
80002a3c:	e24dd018 	sub	sp, sp, #24
80002a40:	e50b0010 	str	r0, [fp, #-16]
80002a44:	e50b1014 	str	r1, [fp, #-20]	; 0xffffffec
80002a48:	e50b2018 	str	r2, [fp, #-24]	; 0xffffffe8
80002a4c:	e3a03000 	mov	r3, #0
80002a50:	e50b3008 	str	r3, [fp, #-8]
80002a54:	e3a010bf 	mov	r1, #191	; 0xbf
80002a58:	e51b0010 	ldr	r0, [fp, #-16]
80002a5c:	ebfffa46 	bl	0x8000137c
80002a60:	e50b0008 	str	r0, [fp, #-8]
80002a64:	e51b3010 	ldr	r3, [fp, #-16]
80002a68:	e2833008 	add	r3, r3, #8
80002a6c:	e1a02003 	mov	r2, r3
80002a70:	e51b3010 	ldr	r3, [fp, #-16]
80002a74:	e2833008 	add	r3, r3, #8
80002a78:	e5933000 	ldr	r3, [r3]
80002a7c:	e3c330c0 	bic	r3, r3, #192	; 0xc0
80002a80:	e5823000 	str	r3, [r2]
80002a84:	e51b3010 	ldr	r3, [fp, #-16]
80002a88:	e2833008 	add	r3, r3, #8
80002a8c:	e1a01003 	mov	r1, r3
80002a90:	e51b3010 	ldr	r3, [fp, #-16]
80002a94:	e2833008 	add	r3, r3, #8
80002a98:	e5932000 	ldr	r2, [r3]
80002a9c:	e51b3014 	ldr	r3, [fp, #-20]	; 0xffffffec
80002aa0:	e2033080 	and	r3, r3, #128	; 0x80
80002aa4:	e1823003 	orr	r3, r2, r3
80002aa8:	e5813000 	str	r3, [r1]
80002aac:	e51b3010 	ldr	r3, [fp, #-16]
80002ab0:	e2833008 	add	r3, r3, #8
80002ab4:	e1a01003 	mov	r1, r3
80002ab8:	e51b3010 	ldr	r3, [fp, #-16]
80002abc:	e2833008 	add	r3, r3, #8
80002ac0:	e5932000 	ldr	r2, [r3]
80002ac4:	e51b3018 	ldr	r3, [fp, #-24]	; 0xffffffe8
80002ac8:	e2033040 	and	r3, r3, #64	; 0x40
80002acc:	e1823003 	orr	r3, r2, r3
80002ad0:	e5813000 	str	r3, [r1]
80002ad4:	e51b3010 	ldr	r3, [fp, #-16]
80002ad8:	e283300c 	add	r3, r3, #12
80002adc:	e1a02003 	mov	r2, r3
80002ae0:	e51b3008 	ldr	r3, [fp, #-8]
80002ae4:	e5823000 	str	r3, [r2]
80002ae8:	e320f000 	nop	{0}
80002aec:	e24bd004 	sub	sp, fp, #4
80002af0:	e8bd8800 	pop	{fp, pc}
80002af4:	e92d4800 	push	{fp, lr}
80002af8:	e28db004 	add	fp, sp, #4
80002afc:	e24dd010 	sub	sp, sp, #16
80002b00:	e50b0010 	str	r0, [fp, #-16]
80002b04:	e50b1014 	str	r1, [fp, #-20]	; 0xffffffec
80002b08:	e3a03000 	mov	r3, #0
80002b0c:	e50b3008 	str	r3, [fp, #-8]
80002b10:	e3a010bf 	mov	r1, #191	; 0xbf
80002b14:	e51b0010 	ldr	r0, [fp, #-16]
80002b18:	ebfffa17 	bl	0x8000137c
80002b1c:	e50b0008 	str	r0, [fp, #-8]
80002b20:	e51b3010 	ldr	r3, [fp, #-16]
80002b24:	e2833008 	add	r3, r3, #8
80002b28:	e1a02003 	mov	r2, r3
80002b2c:	e51b3010 	ldr	r3, [fp, #-16]
80002b30:	e2833008 	add	r3, r3, #8
80002b34:	e5933000 	ldr	r3, [r3]
80002b38:	e3c33020 	bic	r3, r3, #32
80002b3c:	e5823000 	str	r3, [r2]
80002b40:	e51b3010 	ldr	r3, [fp, #-16]
80002b44:	e2833008 	add	r3, r3, #8
80002b48:	e1a01003 	mov	r1, r3
80002b4c:	e51b3010 	ldr	r3, [fp, #-16]
80002b50:	e2833008 	add	r3, r3, #8
80002b54:	e5932000 	ldr	r2, [r3]
80002b58:	e51b3014 	ldr	r3, [fp, #-20]	; 0xffffffec
80002b5c:	e2033020 	and	r3, r3, #32
80002b60:	e1823003 	orr	r3, r2, r3
80002b64:	e5813000 	str	r3, [r1]
80002b68:	e51b3010 	ldr	r3, [fp, #-16]
80002b6c:	e283300c 	add	r3, r3, #12
80002b70:	e1a02003 	mov	r2, r3
80002b74:	e51b3008 	ldr	r3, [fp, #-8]
80002b78:	e5823000 	str	r3, [r2]
80002b7c:	e320f000 	nop	{0}
80002b80:	e24bd004 	sub	sp, fp, #4
80002b84:	e8bd8800 	pop	{fp, pc}
80002b88:	e92d4800 	push	{fp, lr}
80002b8c:	e28db004 	add	fp, sp, #4
80002b90:	e24dd010 	sub	sp, sp, #16
80002b94:	e50b0010 	str	r0, [fp, #-16]
80002b98:	e50b1014 	str	r1, [fp, #-20]	; 0xffffffec
80002b9c:	e3a03000 	mov	r3, #0
80002ba0:	e50b3008 	str	r3, [fp, #-8]
80002ba4:	e3a010bf 	mov	r1, #191	; 0xbf
80002ba8:	e51b0010 	ldr	r0, [fp, #-16]
80002bac:	ebfff9f2 	bl	0x8000137c
80002bb0:	e50b0008 	str	r0, [fp, #-8]
80002bb4:	e51b3010 	ldr	r3, [fp, #-16]
80002bb8:	e2833008 	add	r3, r3, #8
80002bbc:	e1a02003 	mov	r2, r3
80002bc0:	e51b3010 	ldr	r3, [fp, #-16]
80002bc4:	e2833008 	add	r3, r3, #8
80002bc8:	e5933000 	ldr	r3, [r3]
80002bcc:	e3c3300f 	bic	r3, r3, #15
80002bd0:	e5823000 	str	r3, [r2]
80002bd4:	e51b3010 	ldr	r3, [fp, #-16]
80002bd8:	e2833008 	add	r3, r3, #8
80002bdc:	e1a01003 	mov	r1, r3
80002be0:	e51b3010 	ldr	r3, [fp, #-16]
80002be4:	e2833008 	add	r3, r3, #8
80002be8:	e5932000 	ldr	r2, [r3]
80002bec:	e51b3014 	ldr	r3, [fp, #-20]	; 0xffffffec
80002bf0:	e203300f 	and	r3, r3, #15
80002bf4:	e1823003 	orr	r3, r2, r3
80002bf8:	e5813000 	str	r3, [r1]
80002bfc:	e51b3010 	ldr	r3, [fp, #-16]
80002c00:	e283300c 	add	r3, r3, #12
80002c04:	e1a02003 	mov	r2, r3
80002c08:	e51b3008 	ldr	r3, [fp, #-8]
80002c0c:	e5823000 	str	r3, [r2]
80002c10:	e320f000 	nop	{0}
80002c14:	e24bd004 	sub	sp, fp, #4
80002c18:	e8bd8800 	pop	{fp, pc}
80002c1c:	e52db004 	push	{fp}		; (str fp, [sp, #-4]!)
80002c20:	e28db000 	add	fp, sp, #0
80002c24:	e24dd00c 	sub	sp, sp, #12
80002c28:	e50b0008 	str	r0, [fp, #-8]
80002c2c:	e50b100c 	str	r1, [fp, #-12]
80002c30:	e51b3008 	ldr	r3, [fp, #-8]
80002c34:	e2833024 	add	r3, r3, #36	; 0x24
80002c38:	e1a02003 	mov	r2, r3
80002c3c:	e51b3008 	ldr	r3, [fp, #-8]
80002c40:	e2833024 	add	r3, r3, #36	; 0x24
80002c44:	e5933000 	ldr	r3, [r3]
80002c48:	e3c33008 	bic	r3, r3, #8
80002c4c:	e5823000 	str	r3, [r2]
80002c50:	e51b3008 	ldr	r3, [fp, #-8]
80002c54:	e2833024 	add	r3, r3, #36	; 0x24
80002c58:	e1a01003 	mov	r1, r3
80002c5c:	e51b3008 	ldr	r3, [fp, #-8]
80002c60:	e2833024 	add	r3, r3, #36	; 0x24
80002c64:	e5932000 	ldr	r2, [r3]
80002c68:	e51b300c 	ldr	r3, [fp, #-12]
80002c6c:	e2033008 	and	r3, r3, #8
80002c70:	e1823003 	orr	r3, r2, r3
80002c74:	e5813000 	str	r3, [r1]
80002c78:	e320f000 	nop	{0}
80002c7c:	e28bd000 	add	sp, fp, #0
80002c80:	e49db004 	pop	{fp}		; (ldr fp, [sp], #4)
80002c84:	e12fff1e 	bx	lr
80002c88:	e52db004 	push	{fp}		; (str fp, [sp, #-4]!)
80002c8c:	e28db000 	add	fp, sp, #0
80002c90:	e24dd00c 	sub	sp, sp, #12
80002c94:	e50b0008 	str	r0, [fp, #-8]
80002c98:	e51b3008 	ldr	r3, [fp, #-8]
80002c9c:	e2833054 	add	r3, r3, #84	; 0x54
80002ca0:	e1a02003 	mov	r2, r3
80002ca4:	e51b3008 	ldr	r3, [fp, #-8]
80002ca8:	e2833054 	add	r3, r3, #84	; 0x54
80002cac:	e5933000 	ldr	r3, [r3]
80002cb0:	e3833002 	orr	r3, r3, #2
80002cb4:	e5823000 	str	r3, [r2]
80002cb8:	e320f000 	nop	{0}
80002cbc:	e51b3008 	ldr	r3, [fp, #-8]
80002cc0:	e2833058 	add	r3, r3, #88	; 0x58
80002cc4:	e5933000 	ldr	r3, [r3]
80002cc8:	e2033001 	and	r3, r3, #1
80002ccc:	e3530000 	cmp	r3, #0
80002cd0:	0afffff9 	beq	0x80002cbc
80002cd4:	e320f000 	nop	{0}
80002cd8:	e28bd000 	add	sp, fp, #0
80002cdc:	e49db004 	pop	{fp}		; (ldr fp, [sp], #4)
80002ce0:	e12fff1e 	bx	lr
80002ce4:	e52db004 	push	{fp}		; (str fp, [sp, #-4]!)
80002ce8:	e28db000 	add	fp, sp, #0
80002cec:	e24dd00c 	sub	sp, sp, #12
80002cf0:	e50b0008 	str	r0, [fp, #-8]
80002cf4:	e50b100c 	str	r1, [fp, #-12]
80002cf8:	e51b3008 	ldr	r3, [fp, #-8]
80002cfc:	e2833054 	add	r3, r3, #84	; 0x54
80002d00:	e1a02003 	mov	r2, r3
80002d04:	e51b3008 	ldr	r3, [fp, #-8]
80002d08:	e2833054 	add	r3, r3, #84	; 0x54
80002d0c:	e5933000 	ldr	r3, [r3]
80002d10:	e3c33018 	bic	r3, r3, #24
80002d14:	e5823000 	str	r3, [r2]
80002d18:	e51b3008 	ldr	r3, [fp, #-8]
80002d1c:	e2833054 	add	r3, r3, #84	; 0x54
80002d20:	e1a01003 	mov	r1, r3
80002d24:	e51b3008 	ldr	r3, [fp, #-8]
80002d28:	e2833054 	add	r3, r3, #84	; 0x54
80002d2c:	e5932000 	ldr	r2, [r3]
80002d30:	e51b300c 	ldr	r3, [fp, #-12]
80002d34:	e2033018 	and	r3, r3, #24
80002d38:	e1823003 	orr	r3, r2, r3
80002d3c:	e5813000 	str	r3, [r1]
80002d40:	e320f000 	nop	{0}
80002d44:	e28bd000 	add	sp, fp, #0
80002d48:	e49db004 	pop	{fp}		; (ldr fp, [sp], #4)
80002d4c:	e12fff1e 	bx	lr
80002d50:	e52db004 	push	{fp}		; (str fp, [sp, #-4]!)
80002d54:	e28db000 	add	fp, sp, #0
80002d58:	e24dd00c 	sub	sp, sp, #12
80002d5c:	e50b0008 	str	r0, [fp, #-8]
80002d60:	e50b100c 	str	r1, [fp, #-12]
80002d64:	e51b3008 	ldr	r3, [fp, #-8]
80002d68:	e2833054 	add	r3, r3, #84	; 0x54
80002d6c:	e1a02003 	mov	r2, r3
80002d70:	e51b3008 	ldr	r3, [fp, #-8]
80002d74:	e2833054 	add	r3, r3, #84	; 0x54
80002d78:	e5933000 	ldr	r3, [r3]
80002d7c:	e3c33004 	bic	r3, r3, #4
80002d80:	e5823000 	str	r3, [r2]
80002d84:	e51b3008 	ldr	r3, [fp, #-8]
80002d88:	e2833054 	add	r3, r3, #84	; 0x54
80002d8c:	e1a01003 	mov	r1, r3
80002d90:	e51b3008 	ldr	r3, [fp, #-8]
80002d94:	e2833054 	add	r3, r3, #84	; 0x54
80002d98:	e5932000 	ldr	r2, [r3]
80002d9c:	e51b300c 	ldr	r3, [fp, #-12]
80002da0:	e2033004 	and	r3, r3, #4
80002da4:	e1823003 	orr	r3, r2, r3
80002da8:	e5813000 	str	r3, [r1]
80002dac:	e320f000 	nop	{0}
80002db0:	e28bd000 	add	sp, fp, #0
80002db4:	e49db004 	pop	{fp}		; (ldr fp, [sp], #4)
80002db8:	e12fff1e 	bx	lr
80002dbc:	e52db004 	push	{fp}		; (str fp, [sp, #-4]!)
80002dc0:	e28db000 	add	fp, sp, #0
80002dc4:	e24dd00c 	sub	sp, sp, #12
80002dc8:	e50b0008 	str	r0, [fp, #-8]
80002dcc:	e50b100c 	str	r1, [fp, #-12]
80002dd0:	e51b3008 	ldr	r3, [fp, #-8]
80002dd4:	e2833054 	add	r3, r3, #84	; 0x54
80002dd8:	e1a02003 	mov	r2, r3
80002ddc:	e51b3008 	ldr	r3, [fp, #-8]
80002de0:	e2833054 	add	r3, r3, #84	; 0x54
80002de4:	e5933000 	ldr	r3, [r3]
80002de8:	e3c33001 	bic	r3, r3, #1
80002dec:	e5823000 	str	r3, [r2]
80002df0:	e51b3008 	ldr	r3, [fp, #-8]
80002df4:	e2833054 	add	r3, r3, #84	; 0x54
80002df8:	e1a01003 	mov	r1, r3
80002dfc:	e51b3008 	ldr	r3, [fp, #-8]
80002e00:	e2833054 	add	r3, r3, #84	; 0x54
80002e04:	e5932000 	ldr	r2, [r3]
80002e08:	e51b300c 	ldr	r3, [fp, #-12]
80002e0c:	e2033001 	and	r3, r3, #1
80002e10:	e1823003 	orr	r3, r2, r3
80002e14:	e5813000 	str	r3, [r1]
80002e18:	e320f000 	nop	{0}
80002e1c:	e28bd000 	add	sp, fp, #0
80002e20:	e49db004 	pop	{fp}		; (ldr fp, [sp], #4)
80002e24:	e12fff1e 	bx	lr
80002e28:	e52db004 	push	{fp}		; (str fp, [sp, #-4]!)
80002e2c:	e28db000 	add	fp, sp, #0
80002e30:	e24dd01c 	sub	sp, sp, #28
80002e34:	e50b0010 	str	r0, [fp, #-16]
80002e38:	e50b1014 	str	r1, [fp, #-20]	; 0xffffffec
80002e3c:	e50b2018 	str	r2, [fp, #-24]	; 0xffffffe8
80002e40:	e3a03000 	mov	r3, #0
80002e44:	e50b3008 	str	r3, [fp, #-8]
80002e48:	e51b3014 	ldr	r3, [fp, #-20]	; 0xffffffec
80002e4c:	e203300f 	and	r3, r3, #15
80002e50:	e50b3008 	str	r3, [fp, #-8]
80002e54:	e51b3018 	ldr	r3, [fp, #-24]	; 0xffffffe8
80002e58:	e1a03203 	lsl	r3, r3, #4
80002e5c:	e6ef3073 	uxtb	r3, r3
80002e60:	e51b2008 	ldr	r2, [fp, #-8]
80002e64:	e1823003 	orr	r3, r2, r3
80002e68:	e50b3008 	str	r3, [fp, #-8]
80002e6c:	e51b3010 	ldr	r3, [fp, #-16]
80002e70:	e2833018 	add	r3, r3, #24
80002e74:	e1a02003 	mov	r2, r3
80002e78:	e51b3008 	ldr	r3, [fp, #-8]
80002e7c:	e5823000 	str	r3, [r2]
80002e80:	e320f000 	nop	{0}
80002e84:	e28bd000 	add	sp, fp, #0
80002e88:	e49db004 	pop	{fp}		; (ldr fp, [sp], #4)
80002e8c:	e12fff1e 	bx	lr
80002e90:	e52db004 	push	{fp}		; (str fp, [sp, #-4]!)
80002e94:	e28db000 	add	fp, sp, #0
80002e98:	e24dd00c 	sub	sp, sp, #12
80002e9c:	e50b0008 	str	r0, [fp, #-8]
80002ea0:	e1a03001 	mov	r3, r1
80002ea4:	e54b3009 	strb	r3, [fp, #-9]
80002ea8:	e1a03002 	mov	r3, r2
80002eac:	e54b300a 	strb	r3, [fp, #-10]
80002eb0:	e51b3008 	ldr	r3, [fp, #-8]
80002eb4:	e2833010 	add	r3, r3, #16
80002eb8:	e1a02003 	mov	r2, r3
80002ebc:	e55b3009 	ldrb	r3, [fp, #-9]
80002ec0:	e5823000 	str	r3, [r2]
80002ec4:	e51b3008 	ldr	r3, [fp, #-8]
80002ec8:	e2833018 	add	r3, r3, #24
80002ecc:	e1a02003 	mov	r2, r3
80002ed0:	e55b300a 	ldrb	r3, [fp, #-10]
80002ed4:	e5823000 	str	r3, [r2]
80002ed8:	e320f000 	nop	{0}
80002edc:	e28bd000 	add	sp, fp, #0
80002ee0:	e49db004 	pop	{fp}		; (ldr fp, [sp], #4)
80002ee4:	e12fff1e 	bx	lr
80002ee8:	e52db004 	push	{fp}		; (str fp, [sp, #-4]!)
80002eec:	e28db000 	add	fp, sp, #0
80002ef0:	e24dd00c 	sub	sp, sp, #12
80002ef4:	e50b0008 	str	r0, [fp, #-8]
80002ef8:	e1a03001 	mov	r3, r1
80002efc:	e54b3009 	strb	r3, [fp, #-9]
80002f00:	e1a03002 	mov	r3, r2
80002f04:	e54b300a 	strb	r3, [fp, #-10]
80002f08:	e51b3008 	ldr	r3, [fp, #-8]
80002f0c:	e2833014 	add	r3, r3, #20
80002f10:	e1a02003 	mov	r2, r3
80002f14:	e55b3009 	ldrb	r3, [fp, #-9]
80002f18:	e5823000 	str	r3, [r2]
80002f1c:	e51b3008 	ldr	r3, [fp, #-8]
80002f20:	e283301c 	add	r3, r3, #28
80002f24:	e1a02003 	mov	r2, r3
80002f28:	e55b300a 	ldrb	r3, [fp, #-10]
80002f2c:	e5823000 	str	r3, [r2]
80002f30:	e320f000 	nop	{0}
80002f34:	e28bd000 	add	sp, fp, #0
80002f38:	e49db004 	pop	{fp}		; (ldr fp, [sp], #4)
80002f3c:	e12fff1e 	bx	lr
80002f40:	e92d4800 	push	{fp, lr}
80002f44:	e28db004 	add	fp, sp, #4
80002f48:	e24dd010 	sub	sp, sp, #16
80002f4c:	e50b0010 	str	r0, [fp, #-16]
80002f50:	e50b1014 	str	r1, [fp, #-20]	; 0xffffffec
80002f54:	e3a03000 	mov	r3, #0
80002f58:	e50b3008 	str	r3, [fp, #-8]
80002f5c:	e3a03000 	mov	r3, #0
80002f60:	e50b300c 	str	r3, [fp, #-12]
80002f64:	e3a010bf 	mov	r1, #191	; 0xbf
80002f68:	e51b0010 	ldr	r0, [fp, #-16]
80002f6c:	ebfff902 	bl	0x8000137c
80002f70:	e50b0008 	str	r0, [fp, #-8]
80002f74:	e51b3010 	ldr	r3, [fp, #-16]
80002f78:	e2833008 	add	r3, r3, #8
80002f7c:	e5933000 	ldr	r3, [r3]
80002f80:	e2033010 	and	r3, r3, #16
80002f84:	e50b300c 	str	r3, [fp, #-12]
80002f88:	e51b3010 	ldr	r3, [fp, #-16]
80002f8c:	e2833008 	add	r3, r3, #8
80002f90:	e1a02003 	mov	r2, r3
80002f94:	e51b3010 	ldr	r3, [fp, #-16]
80002f98:	e2833008 	add	r3, r3, #8
80002f9c:	e5933000 	ldr	r3, [r3]
80002fa0:	e3833010 	orr	r3, r3, #16
80002fa4:	e5823000 	str	r3, [r2]
80002fa8:	e51b3010 	ldr	r3, [fp, #-16]
80002fac:	e2833010 	add	r3, r3, #16
80002fb0:	e1a02003 	mov	r2, r3
80002fb4:	e51b3010 	ldr	r3, [fp, #-16]
80002fb8:	e2833010 	add	r3, r3, #16
80002fbc:	e5933000 	ldr	r3, [r3]
80002fc0:	e3c33020 	bic	r3, r3, #32
80002fc4:	e5823000 	str	r3, [r2]
80002fc8:	e51b3010 	ldr	r3, [fp, #-16]
80002fcc:	e2833010 	add	r3, r3, #16
80002fd0:	e1a01003 	mov	r1, r3
80002fd4:	e51b3010 	ldr	r3, [fp, #-16]
80002fd8:	e2833010 	add	r3, r3, #16
80002fdc:	e5932000 	ldr	r2, [r3]
80002fe0:	e51b3014 	ldr	r3, [fp, #-20]	; 0xffffffec
80002fe4:	e2033020 	and	r3, r3, #32
80002fe8:	e1823003 	orr	r3, r2, r3
80002fec:	e5813000 	str	r3, [r1]
80002ff0:	e51b3010 	ldr	r3, [fp, #-16]
80002ff4:	e2833008 	add	r3, r3, #8
80002ff8:	e1a02003 	mov	r2, r3
80002ffc:	e51b3010 	ldr	r3, [fp, #-16]
80003000:	e2833008 	add	r3, r3, #8
80003004:	e5933000 	ldr	r3, [r3]
80003008:	e3c33010 	bic	r3, r3, #16
8000300c:	e5823000 	str	r3, [r2]
80003010:	e51b3010 	ldr	r3, [fp, #-16]
80003014:	e2833008 	add	r3, r3, #8
80003018:	e1a01003 	mov	r1, r3
8000301c:	e51b3010 	ldr	r3, [fp, #-16]
80003020:	e2833008 	add	r3, r3, #8
80003024:	e5932000 	ldr	r2, [r3]
80003028:	e51b300c 	ldr	r3, [fp, #-12]
8000302c:	e1823003 	orr	r3, r2, r3
80003030:	e5813000 	str	r3, [r1]
80003034:	e51b3010 	ldr	r3, [fp, #-16]
80003038:	e283300c 	add	r3, r3, #12
8000303c:	e1a02003 	mov	r2, r3
80003040:	e51b3008 	ldr	r3, [fp, #-8]
80003044:	e5823000 	str	r3, [r2]
80003048:	e320f000 	nop	{0}
8000304c:	e24bd004 	sub	sp, fp, #4
80003050:	e8bd8800 	pop	{fp, pc}
80003054:	e52db004 	push	{fp}		; (str fp, [sp, #-4]!)
80003058:	e28db000 	add	fp, sp, #0
8000305c:	e24dd00c 	sub	sp, sp, #12
80003060:	e50b0008 	str	r0, [fp, #-8]
80003064:	e50b100c 	str	r1, [fp, #-12]
80003068:	e51b3008 	ldr	r3, [fp, #-8]
8000306c:	e2833010 	add	r3, r3, #16
80003070:	e1a02003 	mov	r2, r3
80003074:	e51b3008 	ldr	r3, [fp, #-8]
80003078:	e2833010 	add	r3, r3, #16
8000307c:	e5933000 	ldr	r3, [r3]
80003080:	e3c33010 	bic	r3, r3, #16
80003084:	e5823000 	str	r3, [r2]
80003088:	e51b3008 	ldr	r3, [fp, #-8]
8000308c:	e2833010 	add	r3, r3, #16
80003090:	e1a01003 	mov	r1, r3
80003094:	e51b3008 	ldr	r3, [fp, #-8]
80003098:	e2833010 	add	r3, r3, #16
8000309c:	e5932000 	ldr	r2, [r3]
800030a0:	e51b300c 	ldr	r3, [fp, #-12]
800030a4:	e2033010 	and	r3, r3, #16
800030a8:	e1823003 	orr	r3, r2, r3
800030ac:	e5813000 	str	r3, [r1]
800030b0:	e320f000 	nop	{0}
800030b4:	e28bd000 	add	sp, fp, #0
800030b8:	e49db004 	pop	{fp}		; (ldr fp, [sp], #4)
800030bc:	e12fff1e 	bx	lr
800030c0:	e52db004 	push	{fp}		; (str fp, [sp, #-4]!)
800030c4:	e28db000 	add	fp, sp, #0
800030c8:	e24dd00c 	sub	sp, sp, #12
800030cc:	e50b0008 	str	r0, [fp, #-8]
800030d0:	e50b100c 	str	r1, [fp, #-12]
800030d4:	e51b3008 	ldr	r3, [fp, #-8]
800030d8:	e2833010 	add	r3, r3, #16
800030dc:	e1a01003 	mov	r1, r3
800030e0:	e51b3008 	ldr	r3, [fp, #-8]
800030e4:	e2833010 	add	r3, r3, #16
800030e8:	e5932000 	ldr	r2, [r3]
800030ec:	e51b300c 	ldr	r3, [fp, #-12]
800030f0:	e203300f 	and	r3, r3, #15
800030f4:	e1823003 	orr	r3, r2, r3
800030f8:	e5813000 	str	r3, [r1]
800030fc:	e320f000 	nop	{0}
80003100:	e28bd000 	add	sp, fp, #0
80003104:	e49db004 	pop	{fp}		; (ldr fp, [sp], #4)
80003108:	e12fff1e 	bx	lr
8000310c:	e52db004 	push	{fp}		; (str fp, [sp, #-4]!)
80003110:	e28db000 	add	fp, sp, #0
80003114:	e24dd00c 	sub	sp, sp, #12
80003118:	e50b0008 	str	r0, [fp, #-8]
8000311c:	e50b100c 	str	r1, [fp, #-12]
80003120:	e51b3008 	ldr	r3, [fp, #-8]
80003124:	e2833010 	add	r3, r3, #16
80003128:	e1a01003 	mov	r1, r3
8000312c:	e51b3008 	ldr	r3, [fp, #-8]
80003130:	e2833010 	add	r3, r3, #16
80003134:	e5932000 	ldr	r2, [r3]
80003138:	e51b300c 	ldr	r3, [fp, #-12]
8000313c:	e203300f 	and	r3, r3, #15
80003140:	e1e03003 	mvn	r3, r3
80003144:	e0033002 	and	r3, r3, r2
80003148:	e5813000 	str	r3, [r1]
8000314c:	e320f000 	nop	{0}
80003150:	e28bd000 	add	sp, fp, #0
80003154:	e49db004 	pop	{fp}		; (ldr fp, [sp], #4)
80003158:	e12fff1e 	bx	lr
8000315c:	e52db004 	push	{fp}		; (str fp, [sp, #-4]!)
80003160:	e28db000 	add	fp, sp, #0
80003164:	e24dd00c 	sub	sp, sp, #12
80003168:	e50b0008 	str	r0, [fp, #-8]
8000316c:	e51b3008 	ldr	r3, [fp, #-8]
80003170:	e2833018 	add	r3, r3, #24
80003174:	e5933000 	ldr	r3, [r3]
80003178:	e20330f0 	and	r3, r3, #240	; 0xf0
8000317c:	e1a00003 	mov	r0, r3
80003180:	e28bd000 	add	sp, fp, #0
80003184:	e49db004 	pop	{fp}		; (ldr fp, [sp], #4)
80003188:	e12fff1e 	bx	lr
8000318c:	e52db004 	push	{fp}		; (str fp, [sp, #-4]!)
80003190:	e28db000 	add	fp, sp, #0
80003194:	e24dd00c 	sub	sp, sp, #12
80003198:	e50b0008 	str	r0, [fp, #-8]
8000319c:	e51b3008 	ldr	r3, [fp, #-8]
800031a0:	e2833018 	add	r3, r3, #24
800031a4:	e5933000 	ldr	r3, [r3]
800031a8:	e203300f 	and	r3, r3, #15
800031ac:	e1a00003 	mov	r0, r3
800031b0:	e28bd000 	add	sp, fp, #0
800031b4:	e49db004 	pop	{fp}		; (ldr fp, [sp], #4)
800031b8:	e12fff1e 	bx	lr
800031bc:	e52db004 	push	{fp}		; (str fp, [sp, #-4]!)
800031c0:	e28db000 	add	fp, sp, #0
800031c4:	e24dd00c 	sub	sp, sp, #12
800031c8:	e50b0008 	str	r0, [fp, #-8]
800031cc:	e51b3008 	ldr	r3, [fp, #-8]
800031d0:	e283302c 	add	r3, r3, #44	; 0x2c
800031d4:	e5933000 	ldr	r3, [r3]
800031d8:	e320f000 	nop	{0}
800031dc:	e28bd000 	add	sp, fp, #0
800031e0:	e49db004 	pop	{fp}		; (ldr fp, [sp], #4)
800031e4:	e12fff1e 	bx	lr
800031e8:	e52db004 	push	{fp}		; (str fp, [sp, #-4]!)
800031ec:	e28db000 	add	fp, sp, #0
800031f0:	e24dd00c 	sub	sp, sp, #12
800031f4:	e50b0008 	str	r0, [fp, #-8]
800031f8:	e50b100c 	str	r1, [fp, #-12]
800031fc:	e51b3008 	ldr	r3, [fp, #-8]
80003200:	e283305c 	add	r3, r3, #92	; 0x5c
80003204:	e1a01003 	mov	r1, r3
80003208:	e51b3008 	ldr	r3, [fp, #-8]
8000320c:	e283305c 	add	r3, r3, #92	; 0x5c
80003210:	e5932000 	ldr	r2, [r3]
80003214:	e51b300c 	ldr	r3, [fp, #-12]
80003218:	e6ef3073 	uxtb	r3, r3
8000321c:	e1823003 	orr	r3, r2, r3
80003220:	e5813000 	str	r3, [r1]
80003224:	e320f000 	nop	{0}
80003228:	e28bd000 	add	sp, fp, #0
8000322c:	e49db004 	pop	{fp}		; (ldr fp, [sp], #4)
80003230:	e12fff1e 	bx	lr
80003234:	e52db004 	push	{fp}		; (str fp, [sp, #-4]!)
80003238:	e28db000 	add	fp, sp, #0
8000323c:	e24dd00c 	sub	sp, sp, #12
80003240:	e50b0008 	str	r0, [fp, #-8]
80003244:	e50b100c 	str	r1, [fp, #-12]
80003248:	e51b3008 	ldr	r3, [fp, #-8]
8000324c:	e283305c 	add	r3, r3, #92	; 0x5c
80003250:	e1a01003 	mov	r1, r3
80003254:	e51b3008 	ldr	r3, [fp, #-8]
80003258:	e283305c 	add	r3, r3, #92	; 0x5c
8000325c:	e5932000 	ldr	r2, [r3]
80003260:	e51b300c 	ldr	r3, [fp, #-12]
80003264:	e6ef3073 	uxtb	r3, r3
80003268:	e1e03003 	mvn	r3, r3
8000326c:	e0033002 	and	r3, r3, r2
80003270:	e5813000 	str	r3, [r1]
80003274:	e320f000 	nop	{0}
80003278:	e28bd000 	add	sp, fp, #0
8000327c:	e49db004 	pop	{fp}		; (ldr fp, [sp], #4)
80003280:	e12fff1e 	bx	lr
80003284:	e52db004 	push	{fp}		; (str fp, [sp, #-4]!)
80003288:	e28db000 	add	fp, sp, #0
8000328c:	e24dd014 	sub	sp, sp, #20
80003290:	e50b0008 	str	r0, [fp, #-8]
80003294:	e50b100c 	str	r1, [fp, #-12]
80003298:	e50b2010 	str	r2, [fp, #-16]
8000329c:	e51b3008 	ldr	r3, [fp, #-8]
800032a0:	e2833040 	add	r3, r3, #64	; 0x40
800032a4:	e1a02003 	mov	r2, r3
800032a8:	e51b3008 	ldr	r3, [fp, #-8]
800032ac:	e2833040 	add	r3, r3, #64	; 0x40
800032b0:	e5933000 	ldr	r3, [r3]
800032b4:	e3c330c0 	bic	r3, r3, #192	; 0xc0
800032b8:	e5823000 	str	r3, [r2]
800032bc:	e51b3008 	ldr	r3, [fp, #-8]
800032c0:	e2833040 	add	r3, r3, #64	; 0x40
800032c4:	e1a01003 	mov	r1, r3
800032c8:	e51b3008 	ldr	r3, [fp, #-8]
800032cc:	e2833040 	add	r3, r3, #64	; 0x40
800032d0:	e5932000 	ldr	r2, [r3]
800032d4:	e51b300c 	ldr	r3, [fp, #-12]
800032d8:	e2033080 	and	r3, r3, #128	; 0x80
800032dc:	e1823003 	orr	r3, r2, r3
800032e0:	e5813000 	str	r3, [r1]
800032e4:	e51b3008 	ldr	r3, [fp, #-8]
800032e8:	e2833040 	add	r3, r3, #64	; 0x40
800032ec:	e1a01003 	mov	r1, r3
800032f0:	e51b3008 	ldr	r3, [fp, #-8]
800032f4:	e2833040 	add	r3, r3, #64	; 0x40
800032f8:	e5932000 	ldr	r2, [r3]
800032fc:	e51b3010 	ldr	r3, [fp, #-16]
80003300:	e2033040 	and	r3, r3, #64	; 0x40
80003304:	e1823003 	orr	r3, r2, r3
80003308:	e5813000 	str	r3, [r1]
8000330c:	e320f000 	nop	{0}
80003310:	e28bd000 	add	sp, fp, #0
80003314:	e49db004 	pop	{fp}		; (ldr fp, [sp], #4)
80003318:	e12fff1e 	bx	lr
8000331c:	e52db004 	push	{fp}		; (str fp, [sp, #-4]!)
80003320:	e28db000 	add	fp, sp, #0
80003324:	e24dd00c 	sub	sp, sp, #12
80003328:	e50b0008 	str	r0, [fp, #-8]
8000332c:	e50b100c 	str	r1, [fp, #-12]
80003330:	e51b3008 	ldr	r3, [fp, #-8]
80003334:	e2833040 	add	r3, r3, #64	; 0x40
80003338:	e1a02003 	mov	r2, r3
8000333c:	e51b3008 	ldr	r3, [fp, #-8]
80003340:	e2833040 	add	r3, r3, #64	; 0x40
80003344:	e5933000 	ldr	r3, [r3]
80003348:	e3c33020 	bic	r3, r3, #32
8000334c:	e5823000 	str	r3, [r2]
80003350:	e51b3008 	ldr	r3, [fp, #-8]
80003354:	e2833040 	add	r3, r3, #64	; 0x40
80003358:	e1a01003 	mov	r1, r3
8000335c:	e51b3008 	ldr	r3, [fp, #-8]
80003360:	e2833040 	add	r3, r3, #64	; 0x40
80003364:	e5932000 	ldr	r2, [r3]
80003368:	e51b300c 	ldr	r3, [fp, #-12]
8000336c:	e2033020 	and	r3, r3, #32
80003370:	e1823003 	orr	r3, r2, r3
80003374:	e5813000 	str	r3, [r1]
80003378:	e320f000 	nop	{0}
8000337c:	e28bd000 	add	sp, fp, #0
80003380:	e49db004 	pop	{fp}		; (ldr fp, [sp], #4)
80003384:	e12fff1e 	bx	lr
80003388:	e52db004 	push	{fp}		; (str fp, [sp, #-4]!)
8000338c:	e28db000 	add	fp, sp, #0
80003390:	e24dd00c 	sub	sp, sp, #12
80003394:	e50b0008 	str	r0, [fp, #-8]
80003398:	e50b100c 	str	r1, [fp, #-12]
8000339c:	e51b3008 	ldr	r3, [fp, #-8]
800033a0:	e2833040 	add	r3, r3, #64	; 0x40
800033a4:	e1a02003 	mov	r2, r3
800033a8:	e51b3008 	ldr	r3, [fp, #-8]
800033ac:	e2833040 	add	r3, r3, #64	; 0x40
800033b0:	e5933000 	ldr	r3, [r3]
800033b4:	e3c33008 	bic	r3, r3, #8
800033b8:	e5823000 	str	r3, [r2]
800033bc:	e51b3008 	ldr	r3, [fp, #-8]
800033c0:	e2833040 	add	r3, r3, #64	; 0x40
800033c4:	e1a01003 	mov	r1, r3
800033c8:	e51b3008 	ldr	r3, [fp, #-8]
800033cc:	e2833040 	add	r3, r3, #64	; 0x40
800033d0:	e5932000 	ldr	r2, [r3]
800033d4:	e51b300c 	ldr	r3, [fp, #-12]
800033d8:	e2033008 	and	r3, r3, #8
800033dc:	e1823003 	orr	r3, r2, r3
800033e0:	e5813000 	str	r3, [r1]
800033e4:	e320f000 	nop	{0}
800033e8:	e28bd000 	add	sp, fp, #0
800033ec:	e49db004 	pop	{fp}		; (ldr fp, [sp], #4)
800033f0:	e12fff1e 	bx	lr
800033f4:	e52db004 	push	{fp}		; (str fp, [sp, #-4]!)
800033f8:	e28db000 	add	fp, sp, #0
800033fc:	e24dd00c 	sub	sp, sp, #12
80003400:	e50b0008 	str	r0, [fp, #-8]
80003404:	e50b100c 	str	r1, [fp, #-12]
80003408:	e51b3008 	ldr	r3, [fp, #-8]
8000340c:	e2833040 	add	r3, r3, #64	; 0x40
80003410:	e1a02003 	mov	r2, r3
80003414:	e51b3008 	ldr	r3, [fp, #-8]
80003418:	e2833040 	add	r3, r3, #64	; 0x40
8000341c:	e5933000 	ldr	r3, [r3]
80003420:	e3c33010 	bic	r3, r3, #16
80003424:	e5823000 	str	r3, [r2]
80003428:	e51b3008 	ldr	r3, [fp, #-8]
8000342c:	e2833040 	add	r3, r3, #64	; 0x40
80003430:	e1a01003 	mov	r1, r3
80003434:	e51b3008 	ldr	r3, [fp, #-8]
80003438:	e2833040 	add	r3, r3, #64	; 0x40
8000343c:	e5932000 	ldr	r2, [r3]
80003440:	e51b300c 	ldr	r3, [fp, #-12]
80003444:	e2033010 	and	r3, r3, #16
80003448:	e1823003 	orr	r3, r2, r3
8000344c:	e5813000 	str	r3, [r1]
80003450:	e320f000 	nop	{0}
80003454:	e28bd000 	add	sp, fp, #0
80003458:	e49db004 	pop	{fp}		; (ldr fp, [sp], #4)
8000345c:	e12fff1e 	bx	lr
80003460:	e52db004 	push	{fp}		; (str fp, [sp, #-4]!)
80003464:	e28db000 	add	fp, sp, #0
80003468:	e24dd00c 	sub	sp, sp, #12
8000346c:	e50b0008 	str	r0, [fp, #-8]
80003470:	e51b3008 	ldr	r3, [fp, #-8]
80003474:	e2833044 	add	r3, r3, #68	; 0x44
80003478:	e5933000 	ldr	r3, [r3]
8000347c:	e2033002 	and	r3, r3, #2
80003480:	e1a00003 	mov	r0, r3
80003484:	e28bd000 	add	sp, fp, #0
80003488:	e49db004 	pop	{fp}		; (ldr fp, [sp], #4)
8000348c:	e12fff1e 	bx	lr
80003490:	e52db004 	push	{fp}		; (str fp, [sp, #-4]!)
80003494:	e28db000 	add	fp, sp, #0
80003498:	e24dd00c 	sub	sp, sp, #12
8000349c:	e50b0008 	str	r0, [fp, #-8]
800034a0:	e50b100c 	str	r1, [fp, #-12]
800034a4:	e51b3008 	ldr	r3, [fp, #-8]
800034a8:	e2833044 	add	r3, r3, #68	; 0x44
800034ac:	e1a02003 	mov	r2, r3
800034b0:	e51b3008 	ldr	r3, [fp, #-8]
800034b4:	e2833044 	add	r3, r3, #68	; 0x44
800034b8:	e5933000 	ldr	r3, [r3]
800034bc:	e3c33004 	bic	r3, r3, #4
800034c0:	e5823000 	str	r3, [r2]
800034c4:	e51b3008 	ldr	r3, [fp, #-8]
800034c8:	e2833044 	add	r3, r3, #68	; 0x44
800034cc:	e1a01003 	mov	r1, r3
800034d0:	e51b3008 	ldr	r3, [fp, #-8]
800034d4:	e2833044 	add	r3, r3, #68	; 0x44
800034d8:	e5932000 	ldr	r2, [r3]
800034dc:	e51b300c 	ldr	r3, [fp, #-12]
800034e0:	e2033004 	and	r3, r3, #4
800034e4:	e1823003 	orr	r3, r2, r3
800034e8:	e5813000 	str	r3, [r1]
800034ec:	e320f000 	nop	{0}
800034f0:	e28bd000 	add	sp, fp, #0
800034f4:	e49db004 	pop	{fp}		; (ldr fp, [sp], #4)
800034f8:	e12fff1e 	bx	lr
800034fc:	e52db004 	push	{fp}		; (str fp, [sp, #-4]!)
80003500:	e28db000 	add	fp, sp, #0
80003504:	e24dd00c 	sub	sp, sp, #12
80003508:	e50b0008 	str	r0, [fp, #-8]
8000350c:	e51b3008 	ldr	r3, [fp, #-8]
80003510:	e2833044 	add	r3, r3, #68	; 0x44
80003514:	e5933000 	ldr	r3, [r3]
80003518:	e2033001 	and	r3, r3, #1
8000351c:	e1a00003 	mov	r0, r3
80003520:	e28bd000 	add	sp, fp, #0
80003524:	e49db004 	pop	{fp}		; (ldr fp, [sp], #4)
80003528:	e12fff1e 	bx	lr
8000352c:	e52db004 	push	{fp}		; (str fp, [sp, #-4]!)
80003530:	e28db000 	add	fp, sp, #0
80003534:	e24dd00c 	sub	sp, sp, #12
80003538:	e50b0008 	str	r0, [fp, #-8]
8000353c:	e51b3008 	ldr	r3, [fp, #-8]
80003540:	e2833068 	add	r3, r3, #104	; 0x68
80003544:	e5933000 	ldr	r3, [r3]
80003548:	e1a00003 	mov	r0, r3
8000354c:	e28bd000 	add	sp, fp, #0
80003550:	e49db004 	pop	{fp}		; (ldr fp, [sp], #4)
80003554:	e12fff1e 	bx	lr
80003558:	e52db004 	push	{fp}		; (str fp, [sp, #-4]!)
8000355c:	e28db000 	add	fp, sp, #0
80003560:	e24dd00c 	sub	sp, sp, #12
80003564:	e50b0008 	str	r0, [fp, #-8]
80003568:	e51b3008 	ldr	r3, [fp, #-8]
8000356c:	e2833064 	add	r3, r3, #100	; 0x64
80003570:	e5933000 	ldr	r3, [r3]
80003574:	e1a00003 	mov	r0, r3
80003578:	e28bd000 	add	sp, fp, #0
8000357c:	e49db004 	pop	{fp}		; (ldr fp, [sp], #4)
80003580:	e12fff1e 	bx	lr
80003584:	e92d4800 	push	{fp, lr}
80003588:	e28db004 	add	fp, sp, #4
8000358c:	e24dd010 	sub	sp, sp, #16
80003590:	e50b0010 	str	r0, [fp, #-16]
80003594:	e3a03000 	mov	r3, #0
80003598:	e50b3008 	str	r3, [fp, #-8]
8000359c:	e3a03000 	mov	r3, #0
800035a0:	e50b300c 	str	r3, [fp, #-12]
800035a4:	e3a01080 	mov	r1, #128	; 0x80
800035a8:	e51b0010 	ldr	r0, [fp, #-16]
800035ac:	ebfff772 	bl	0x8000137c
800035b0:	e50b0008 	str	r0, [fp, #-8]
800035b4:	e51b3010 	ldr	r3, [fp, #-16]
800035b8:	e2833038 	add	r3, r3, #56	; 0x38
800035bc:	e5933000 	ldr	r3, [r3]
800035c0:	e20330c0 	and	r3, r3, #192	; 0xc0
800035c4:	e50b300c 	str	r3, [fp, #-12]
800035c8:	e51b3010 	ldr	r3, [fp, #-16]
800035cc:	e283300c 	add	r3, r3, #12
800035d0:	e1a02003 	mov	r2, r3
800035d4:	e51b3008 	ldr	r3, [fp, #-8]
800035d8:	e5823000 	str	r3, [r2]
800035dc:	e51b300c 	ldr	r3, [fp, #-12]
800035e0:	e1a00003 	mov	r0, r3
800035e4:	e24bd004 	sub	sp, fp, #4
800035e8:	e8bd8800 	pop	{fp, pc}
800035ec:	e92d4800 	push	{fp, lr}
800035f0:	e28db004 	add	fp, sp, #4
800035f4:	e24dd010 	sub	sp, sp, #16
800035f8:	e50b0010 	str	r0, [fp, #-16]
800035fc:	e3a03000 	mov	r3, #0
80003600:	e50b3008 	str	r3, [fp, #-8]
80003604:	e3a03000 	mov	r3, #0
80003608:	e50b300c 	str	r3, [fp, #-12]
8000360c:	e3a01080 	mov	r1, #128	; 0x80
80003610:	e51b0010 	ldr	r0, [fp, #-16]
80003614:	ebfff758 	bl	0x8000137c
80003618:	e50b0008 	str	r0, [fp, #-8]
8000361c:	e51b3010 	ldr	r3, [fp, #-16]
80003620:	e2833038 	add	r3, r3, #56	; 0x38
80003624:	e5933000 	ldr	r3, [r3]
80003628:	e2033020 	and	r3, r3, #32
8000362c:	e50b300c 	str	r3, [fp, #-12]
80003630:	e51b3010 	ldr	r3, [fp, #-16]
80003634:	e283300c 	add	r3, r3, #12
80003638:	e1a02003 	mov	r2, r3
8000363c:	e51b3008 	ldr	r3, [fp, #-8]
80003640:	e5823000 	str	r3, [r2]
80003644:	e51b300c 	ldr	r3, [fp, #-12]
80003648:	e1a00003 	mov	r0, r3
8000364c:	e24bd004 	sub	sp, fp, #4
80003650:	e8bd8800 	pop	{fp, pc}
80003654:	e92d4800 	push	{fp, lr}
80003658:	e28db004 	add	fp, sp, #4
8000365c:	e24dd010 	sub	sp, sp, #16
80003660:	e50b0010 	str	r0, [fp, #-16]
80003664:	e3a03000 	mov	r3, #0
80003668:	e50b3008 	str	r3, [fp, #-8]
8000366c:	e3a03000 	mov	r3, #0
80003670:	e50b300c 	str	r3, [fp, #-12]
80003674:	e3a01080 	mov	r1, #128	; 0x80
80003678:	e51b0010 	ldr	r0, [fp, #-16]
8000367c:	ebfff73e 	bl	0x8000137c
80003680:	e50b0008 	str	r0, [fp, #-8]
80003684:	e51b3010 	ldr	r3, [fp, #-16]
80003688:	e2833038 	add	r3, r3, #56	; 0x38
8000368c:	e5933000 	ldr	r3, [r3]
80003690:	e203301f 	and	r3, r3, #31
80003694:	e50b300c 	str	r3, [fp, #-12]
80003698:	e51b3010 	ldr	r3, [fp, #-16]
8000369c:	e283300c 	add	r3, r3, #12
800036a0:	e1a02003 	mov	r2, r3
800036a4:	e51b3008 	ldr	r3, [fp, #-8]
800036a8:	e5823000 	str	r3, [r2]
800036ac:	e51b300c 	ldr	r3, [fp, #-12]
800036b0:	e1a00003 	mov	r0, r3
800036b4:	e24bd004 	sub	sp, fp, #4
800036b8:	e8bd8800 	pop	{fp, pc}
800036bc:	e52db004 	push	{fp}		; (str fp, [sp, #-4]!)
800036c0:	e28db000 	add	fp, sp, #0
800036c4:	e24dd00c 	sub	sp, sp, #12
800036c8:	e50b0008 	str	r0, [fp, #-8]
800036cc:	e50b100c 	str	r1, [fp, #-12]
800036d0:	e51b3008 	ldr	r3, [fp, #-8]
800036d4:	e283301c 	add	r3, r3, #28
800036d8:	e1a02003 	mov	r2, r3
800036dc:	e51b3008 	ldr	r3, [fp, #-8]
800036e0:	e283301c 	add	r3, r3, #28
800036e4:	e5933000 	ldr	r3, [r3]
800036e8:	e3c330ff 	bic	r3, r3, #255	; 0xff
800036ec:	e5823000 	str	r3, [r2]
800036f0:	e51b3008 	ldr	r3, [fp, #-8]
800036f4:	e283301c 	add	r3, r3, #28
800036f8:	e1a01003 	mov	r1, r3
800036fc:	e51b3008 	ldr	r3, [fp, #-8]
80003700:	e283301c 	add	r3, r3, #28
80003704:	e5932000 	ldr	r2, [r3]
80003708:	e51b300c 	ldr	r3, [fp, #-12]
8000370c:	e6ef3073 	uxtb	r3, r3
80003710:	e1823003 	orr	r3, r2, r3
80003714:	e5813000 	str	r3, [r1]
80003718:	e320f000 	nop	{0}
8000371c:	e28bd000 	add	sp, fp, #0
80003720:	e49db004 	pop	{fp}		; (ldr fp, [sp], #4)
80003724:	e12fff1e 	bx	lr
80003728:	e52db004 	push	{fp}		; (str fp, [sp, #-4]!)
8000372c:	e28db000 	add	fp, sp, #0
80003730:	e24dd00c 	sub	sp, sp, #12
80003734:	e50b0008 	str	r0, [fp, #-8]
80003738:	e51b3008 	ldr	r3, [fp, #-8]
8000373c:	e283301c 	add	r3, r3, #28
80003740:	e5933000 	ldr	r3, [r3]
80003744:	e6ef3073 	uxtb	r3, r3
80003748:	e1a00003 	mov	r0, r3
8000374c:	e28bd000 	add	sp, fp, #0
80003750:	e49db004 	pop	{fp}		; (ldr fp, [sp], #4)
80003754:	e12fff1e 	bx	lr
80003758:	e52db004 	push	{fp}		; (str fp, [sp, #-4]!)
8000375c:	e28db000 	add	fp, sp, #0
80003760:	e24dd00c 	sub	sp, sp, #12
80003764:	e50b0008 	str	r0, [fp, #-8]
80003768:	e51b3008 	ldr	r3, [fp, #-8]
8000376c:	e2833050 	add	r3, r3, #80	; 0x50
80003770:	e5933000 	ldr	r3, [r3]
80003774:	e6ef3073 	uxtb	r3, r3
80003778:	e1a00003 	mov	r0, r3
8000377c:	e28bd000 	add	sp, fp, #0
80003780:	e49db004 	pop	{fp}		; (ldr fp, [sp], #4)
80003784:	e12fff1e 	bx	lr
80003788:	e52db004 	push	{fp}		; (str fp, [sp, #-4]!)
8000378c:	e28db000 	add	fp, sp, #0
80003790:	e24dd00c 	sub	sp, sp, #12
80003794:	e50b0008 	str	r0, [fp, #-8]
80003798:	e50b100c 	str	r1, [fp, #-12]
8000379c:	e51b3008 	ldr	r3, [fp, #-8]
800037a0:	e2833080 	add	r3, r3, #128	; 0x80
800037a4:	e1a02003 	mov	r2, r3
800037a8:	e51b3008 	ldr	r3, [fp, #-8]
800037ac:	e2833080 	add	r3, r3, #128	; 0x80
800037b0:	e5933000 	ldr	r3, [r3]
800037b4:	e3c33004 	bic	r3, r3, #4
800037b8:	e5823000 	str	r3, [r2]
800037bc:	e51b3008 	ldr	r3, [fp, #-8]
800037c0:	e2833080 	add	r3, r3, #128	; 0x80
800037c4:	e1a01003 	mov	r1, r3
800037c8:	e51b3008 	ldr	r3, [fp, #-8]
800037cc:	e2833080 	add	r3, r3, #128	; 0x80
800037d0:	e5932000 	ldr	r2, [r3]
800037d4:	e51b300c 	ldr	r3, [fp, #-12]
800037d8:	e2033004 	and	r3, r3, #4
800037dc:	e1823003 	orr	r3, r2, r3
800037e0:	e5813000 	str	r3, [r1]
800037e4:	e320f000 	nop	{0}
800037e8:	e28bd000 	add	sp, fp, #0
800037ec:	e49db004 	pop	{fp}		; (ldr fp, [sp], #4)
800037f0:	e12fff1e 	bx	lr
800037f4:	e52db004 	push	{fp}		; (str fp, [sp, #-4]!)
800037f8:	e28db000 	add	fp, sp, #0
800037fc:	e24dd00c 	sub	sp, sp, #12
80003800:	e50b0008 	str	r0, [fp, #-8]
80003804:	e50b100c 	str	r1, [fp, #-12]
80003808:	e51b3008 	ldr	r3, [fp, #-8]
8000380c:	e2833084 	add	r3, r3, #132	; 0x84
80003810:	e1a02003 	mov	r2, r3
80003814:	e51b3008 	ldr	r3, [fp, #-8]
80003818:	e2833084 	add	r3, r3, #132	; 0x84
8000381c:	e5933000 	ldr	r3, [r3]
80003820:	e3c3303f 	bic	r3, r3, #63	; 0x3f
80003824:	e5823000 	str	r3, [r2]
80003828:	e51b3008 	ldr	r3, [fp, #-8]
8000382c:	e2833084 	add	r3, r3, #132	; 0x84
80003830:	e1a01003 	mov	r1, r3
80003834:	e51b3008 	ldr	r3, [fp, #-8]
80003838:	e2833084 	add	r3, r3, #132	; 0x84
8000383c:	e5932000 	ldr	r2, [r3]
80003840:	e51b300c 	ldr	r3, [fp, #-12]
80003844:	e203303f 	and	r3, r3, #63	; 0x3f
80003848:	e1823003 	orr	r3, r2, r3
8000384c:	e5813000 	str	r3, [r1]
80003850:	e320f000 	nop	{0}
80003854:	e28bd000 	add	sp, fp, #0
80003858:	e49db004 	pop	{fp}		; (ldr fp, [sp], #4)
8000385c:	e12fff1e 	bx	lr
80003860:	e92d4800 	push	{fp, lr}
80003864:	e28db004 	add	fp, sp, #4
80003868:	e24dd010 	sub	sp, sp, #16
8000386c:	e50b0008 	str	r0, [fp, #-8]
80003870:	e50b100c 	str	r1, [fp, #-12]
80003874:	e50b2010 	str	r2, [fp, #-16]
80003878:	e3a00a09 	mov	r0, #36864	; 0x9000
8000387c:	e34404e0 	movt	r0, #17632	; 0x44e0
80003880:	ebfffd00 	bl	0x80002c88
80003884:	e51b100c 	ldr	r1, [fp, #-12]
80003888:	e51b0010 	ldr	r0, [fp, #-16]
8000388c:	eb000018 	bl	0x800038f4
80003890:	e51b0008 	ldr	r0, [fp, #-8]
80003894:	eb00002e 	bl	0x80003954
80003898:	e3a010bf 	mov	r1, #191	; 0xbf
8000389c:	e3a00a09 	mov	r0, #36864	; 0x9000
800038a0:	e34404e0 	movt	r0, #17632	; 0x44e0
800038a4:	ebfff6b4 	bl	0x8000137c
800038a8:	e3a02000 	mov	r2, #0
800038ac:	e3a01003 	mov	r1, #3
800038b0:	e3a00a09 	mov	r0, #36864	; 0x9000
800038b4:	e34404e0 	movt	r0, #17632	; 0x44e0
800038b8:	ebfff700 	bl	0x800014c0
800038bc:	e3a00a09 	mov	r0, #36864	; 0x9000
800038c0:	e34404e0 	movt	r0, #17632	; 0x44e0
800038c4:	ebfff69c 	bl	0x8000133c
800038c8:	e3a01000 	mov	r1, #0
800038cc:	e3a00a09 	mov	r0, #36864	; 0x9000
800038d0:	e34404e0 	movt	r0, #17632	; 0x44e0
800038d4:	ebfff6de 	bl	0x80001454
800038d8:	e3a01000 	mov	r1, #0
800038dc:	e3a00a09 	mov	r0, #36864	; 0x9000
800038e0:	e34404e0 	movt	r0, #17632	; 0x44e0
800038e4:	ebfff5ac 	bl	0x80000f9c
800038e8:	e320f000 	nop	{0}
800038ec:	e24bd004 	sub	sp, fp, #4
800038f0:	e8bd8800 	pop	{fp, pc}
800038f4:	e92d4800 	push	{fp, lr}
800038f8:	e28db004 	add	fp, sp, #4
800038fc:	e24dd010 	sub	sp, sp, #16
80003900:	e50b0010 	str	r0, [fp, #-16]
80003904:	e50b1014 	str	r1, [fp, #-20]	; 0xffffffec
80003908:	e3a03000 	mov	r3, #0
8000390c:	e50b3008 	str	r3, [fp, #-8]
80003910:	e51b3010 	ldr	r3, [fp, #-16]
80003914:	e1a03703 	lsl	r3, r3, #14
80003918:	e20329ff 	and	r2, r3, #4177920	; 0x3fc000
8000391c:	e51b3014 	ldr	r3, [fp, #-20]	; 0xffffffec
80003920:	e1a03303 	lsl	r3, r3, #6
80003924:	e2033dff 	and	r3, r3, #16320	; 0x3fc0
80003928:	e1823003 	orr	r3, r2, r3
8000392c:	e3833511 	orr	r3, r3, #71303168	; 0x4400000
80003930:	e3833038 	orr	r3, r3, #56	; 0x38
80003934:	e50b3008 	str	r3, [fp, #-8]
80003938:	e51b1008 	ldr	r1, [fp, #-8]
8000393c:	e3a00a09 	mov	r0, #36864	; 0x9000
80003940:	e34404e0 	movt	r0, #17632	; 0x44e0
80003944:	ebfff732 	bl	0x80001614
80003948:	e320f000 	nop	{0}
8000394c:	e24bd004 	sub	sp, fp, #4
80003950:	e8bd8800 	pop	{fp, pc}
80003954:	e92d4800 	push	{fp, lr}
80003958:	e28db004 	add	fp, sp, #4
8000395c:	e24dd010 	sub	sp, sp, #16
80003960:	e50b0010 	str	r0, [fp, #-16]
80003964:	e3a03000 	mov	r3, #0
80003968:	e50b3008 	str	r3, [fp, #-8]
8000396c:	e3a0302a 	mov	r3, #42	; 0x2a
80003970:	e3a02000 	mov	r2, #0
80003974:	e51b1010 	ldr	r1, [fp, #-16]
80003978:	e3a00b1b 	mov	r0, #27648	; 0x6c00
8000397c:	e34002dc 	movt	r0, #732	; 0x2dc
80003980:	ebfff5a8 	bl	0x80001028
80003984:	e50b0008 	str	r0, [fp, #-8]
80003988:	e51b1008 	ldr	r1, [fp, #-8]
8000398c:	e3a00a09 	mov	r0, #36864	; 0x9000
80003990:	e34404e0 	movt	r0, #17632	; 0x44e0
80003994:	ebfff5db 	bl	0x80001108
80003998:	e320f000 	nop	{0}
8000399c:	e24bd004 	sub	sp, fp, #4
800039a0:	e8bd8800 	pop	{fp, pc}
800039a4:	e92d4800 	push	{fp, lr}
800039a8:	e28db004 	add	fp, sp, #4
800039ac:	ebfff4a2 	bl	0x80000c3c
800039b0:	e3a00000 	mov	r0, #0
800039b4:	ebfff48d 	bl	0x80000bf0
800039b8:	e3a02001 	mov	r2, #1
800039bc:	e3a01001 	mov	r1, #1
800039c0:	e3a00cc2 	mov	r0, #49664	; 0xc200
800039c4:	e3400001 	movt	r0, #1
800039c8:	ebffffa4 	bl	0x80003860
800039cc:	e320f000 	nop	{0}
800039d0:	e8bd8800 	pop	{fp, pc}
800039d4:	e92d4800 	push	{fp, lr}
800039d8:	e28db004 	add	fp, sp, #4
800039dc:	e24dd008 	sub	sp, sp, #8
800039e0:	e1a03000 	mov	r3, r0
800039e4:	e54b3005 	strb	r3, [fp, #-5]
800039e8:	e55b3005 	ldrb	r3, [fp, #-5]
800039ec:	e1a01003 	mov	r1, r3
800039f0:	e3a00a09 	mov	r0, #36864	; 0x9000
800039f4:	e34404e0 	movt	r0, #17632	; 0x44e0
800039f8:	ebfffb4c 	bl	0x80002730
800039fc:	e320f000 	nop	{0}
80003a00:	e24bd004 	sub	sp, fp, #4
80003a04:	e8bd8800 	pop	{fp, pc}
80003a08:	e92d4800 	push	{fp, lr}
80003a0c:	e28db004 	add	fp, sp, #4
80003a10:	e3a00a09 	mov	r0, #36864	; 0x9000
80003a14:	e34404e0 	movt	r0, #17632	; 0x44e0
80003a18:	ebfffafb 	bl	0x8000260c
80003a1c:	e1a03000 	mov	r3, r0
80003a20:	e6ef3073 	uxtb	r3, r3
80003a24:	e1a00003 	mov	r0, r3
80003a28:	e8bd8800 	pop	{fp, pc}
80003a2c:	e92d4800 	push	{fp, lr}
80003a30:	e28db004 	add	fp, sp, #4
80003a34:	ebffffda 	bl	0x800039a4
80003a38:	e320f000 	nop	{0}
80003a3c:	e8bd8800 	pop	{fp, pc}
80003a40:	e92d4800 	push	{fp, lr}
80003a44:	e28db004 	add	fp, sp, #4
80003a48:	e24dd010 	sub	sp, sp, #16
80003a4c:	e50b0010 	str	r0, [fp, #-16]
80003a50:	e1a03001 	mov	r3, r1
80003a54:	e54b3011 	strb	r3, [fp, #-17]	; 0xffffffef
80003a58:	e3a03000 	mov	r3, #0
80003a5c:	e50b3008 	str	r3, [fp, #-8]
80003a60:	ea00001a 	b	0x80003ad0
80003a64:	e55b3011 	ldrb	r3, [fp, #-17]	; 0xffffffef
80003a68:	e1a00003 	mov	r0, r3
80003a6c:	eb00020b 	bl	0x800042a0
80003a70:	e55b3011 	ldrb	r3, [fp, #-17]	; 0xffffffef
80003a74:	e3530008 	cmp	r3, #8
80003a78:	1a000009 	bne	0x80003aa4
80003a7c:	e51b3008 	ldr	r3, [fp, #-8]
80003a80:	e3530000 	cmp	r3, #0
80003a84:	0a000006 	beq	0x80003aa4
80003a88:	e51b3010 	ldr	r3, [fp, #-16]
80003a8c:	e2433001 	sub	r3, r3, #1
80003a90:	e50b3010 	str	r3, [fp, #-16]
80003a94:	e51b3008 	ldr	r3, [fp, #-8]
80003a98:	e2433001 	sub	r3, r3, #1
80003a9c:	e50b3008 	str	r3, [fp, #-8]
80003aa0:	ea000007 	b	0x80003ac4
80003aa4:	e51b3010 	ldr	r3, [fp, #-16]
80003aa8:	e2832001 	add	r2, r3, #1
80003aac:	e50b2010 	str	r2, [fp, #-16]
80003ab0:	e55b2011 	ldrb	r2, [fp, #-17]	; 0xffffffef
80003ab4:	e5c32000 	strb	r2, [r3]
80003ab8:	e51b3008 	ldr	r3, [fp, #-8]
80003abc:	e2833001 	add	r3, r3, #1
80003ac0:	e50b3008 	str	r3, [fp, #-8]
80003ac4:	eb000200 	bl	0x800042cc
80003ac8:	e1a03000 	mov	r3, r0
80003acc:	e54b3011 	strb	r3, [fp, #-17]	; 0xffffffef
80003ad0:	e55b3011 	ldrb	r3, [fp, #-17]	; 0xffffffef
80003ad4:	e353000d 	cmp	r3, #13
80003ad8:	0a000002 	beq	0x80003ae8
80003adc:	e55b3011 	ldrb	r3, [fp, #-17]	; 0xffffffef
80003ae0:	e3530020 	cmp	r3, #32
80003ae4:	1affffde 	bne	0x80003a64
80003ae8:	e51b3010 	ldr	r3, [fp, #-16]
80003aec:	e55b2011 	ldrb	r2, [fp, #-17]	; 0xffffffef
80003af0:	e5c32000 	strb	r2, [r3]
80003af4:	e320f000 	nop	{0}
80003af8:	e24bd004 	sub	sp, fp, #4
80003afc:	e8bd8800 	pop	{fp, pc}
80003b00:	e92d4800 	push	{fp, lr}
80003b04:	e28db004 	add	fp, sp, #4
80003b08:	e24dd010 	sub	sp, sp, #16
80003b0c:	e50b0010 	str	r0, [fp, #-16]
80003b10:	e50b1014 	str	r1, [fp, #-20]	; 0xffffffec
80003b14:	e3a03000 	mov	r3, #0
80003b18:	e50b3008 	str	r3, [fp, #-8]
80003b1c:	e3a03000 	mov	r3, #0
80003b20:	e50b300c 	str	r3, [fp, #-12]
80003b24:	e51b3014 	ldr	r3, [fp, #-20]	; 0xffffffec
80003b28:	e3530000 	cmp	r3, #0
80003b2c:	aa00001c 	bge	0x80003ba4
80003b30:	e3a03001 	mov	r3, #1
80003b34:	e50b300c 	str	r3, [fp, #-12]
80003b38:	ea000019 	b	0x80003ba4
80003b3c:	e51b3010 	ldr	r3, [fp, #-16]
80003b40:	e5d33000 	ldrb	r3, [r3]
80003b44:	e353000a 	cmp	r3, #10
80003b48:	1a000004 	bne	0x80003b60
80003b4c:	e3a0000d 	mov	r0, #13
80003b50:	eb0001d2 	bl	0x800042a0
80003b54:	e3a0000a 	mov	r0, #10
80003b58:	eb0001d0 	bl	0x800042a0
80003b5c:	ea000003 	b	0x80003b70
80003b60:	e51b3010 	ldr	r3, [fp, #-16]
80003b64:	e5d33000 	ldrb	r3, [r3]
80003b68:	e1a00003 	mov	r0, r3
80003b6c:	eb0001cb 	bl	0x800042a0
80003b70:	e51b3010 	ldr	r3, [fp, #-16]
80003b74:	e2833001 	add	r3, r3, #1
80003b78:	e50b3010 	str	r3, [fp, #-16]
80003b7c:	e51b3008 	ldr	r3, [fp, #-8]
80003b80:	e2833001 	add	r3, r3, #1
80003b84:	e50b3008 	str	r3, [fp, #-8]
80003b88:	e51b300c 	ldr	r3, [fp, #-12]
80003b8c:	e3530000 	cmp	r3, #0
80003b90:	1a000003 	bne	0x80003ba4
80003b94:	e51b3014 	ldr	r3, [fp, #-20]	; 0xffffffec
80003b98:	e51b2008 	ldr	r2, [fp, #-8]
80003b9c:	e1520003 	cmp	r2, r3
80003ba0:	0a000004 	beq	0x80003bb8
80003ba4:	e51b3010 	ldr	r3, [fp, #-16]
80003ba8:	e5d33000 	ldrb	r3, [r3]
80003bac:	e3530000 	cmp	r3, #0
80003bb0:	1affffe1 	bne	0x80003b3c
80003bb4:	ea000000 	b	0x80003bbc
80003bb8:	e320f000 	nop	{0}
80003bbc:	e51b3008 	ldr	r3, [fp, #-8]
80003bc0:	e1a00003 	mov	r0, r3
80003bc4:	e24bd004 	sub	sp, fp, #4
80003bc8:	e8bd8800 	pop	{fp, pc}
80003bcc:	e92d4800 	push	{fp, lr}
80003bd0:	e28db004 	add	fp, sp, #4
80003bd4:	e24dd018 	sub	sp, sp, #24
80003bd8:	e50b0018 	str	r0, [fp, #-24]	; 0xffffffe8
80003bdc:	e50b101c 	str	r1, [fp, #-28]	; 0xffffffe4
80003be0:	e3a03000 	mov	r3, #0
80003be4:	e50b3008 	str	r3, [fp, #-8]
80003be8:	e51b3018 	ldr	r3, [fp, #-24]	; 0xffffffe8
80003bec:	e50b3010 	str	r3, [fp, #-16]
80003bf0:	e51b3018 	ldr	r3, [fp, #-24]	; 0xffffffe8
80003bf4:	e3530000 	cmp	r3, #0
80003bf8:	0a00001f 	beq	0x80003c7c
80003bfc:	e51b301c 	ldr	r3, [fp, #-28]	; 0xffffffe4
80003c00:	e3530000 	cmp	r3, #0
80003c04:	da00001c 	ble	0x80003c7c
80003c08:	eb0001af 	bl	0x800042cc
80003c0c:	e1a03000 	mov	r3, r0
80003c10:	e54b3009 	strb	r3, [fp, #-9]
80003c14:	ea00000d 	b	0x80003c50
80003c18:	e55b3009 	ldrb	r3, [fp, #-9]
80003c1c:	e1a00003 	mov	r0, r3
80003c20:	eb00019e 	bl	0x800042a0
80003c24:	e51b3010 	ldr	r3, [fp, #-16]
80003c28:	e2832001 	add	r2, r3, #1
80003c2c:	e50b2010 	str	r2, [fp, #-16]
80003c30:	e55b2009 	ldrb	r2, [fp, #-9]
80003c34:	e5c32000 	strb	r2, [r3]
80003c38:	eb0001a3 	bl	0x800042cc
80003c3c:	e1a03000 	mov	r3, r0
80003c40:	e54b3009 	strb	r3, [fp, #-9]
80003c44:	e51b3008 	ldr	r3, [fp, #-8]
80003c48:	e2833001 	add	r3, r3, #1
80003c4c:	e50b3008 	str	r3, [fp, #-8]
80003c50:	e55b3009 	ldrb	r3, [fp, #-9]
80003c54:	e353000d 	cmp	r3, #13
80003c58:	0a000004 	beq	0x80003c70
80003c5c:	e51b301c 	ldr	r3, [fp, #-28]	; 0xffffffe4
80003c60:	e2432001 	sub	r2, r3, #1
80003c64:	e51b3008 	ldr	r3, [fp, #-8]
80003c68:	e1520003 	cmp	r2, r3
80003c6c:	8affffe9 	bhi	0x80003c18
80003c70:	e51b3010 	ldr	r3, [fp, #-16]
80003c74:	e3a02000 	mov	r2, #0
80003c78:	e5c32000 	strb	r2, [r3]
80003c7c:	e51b3018 	ldr	r3, [fp, #-24]	; 0xffffffe8
80003c80:	e1a00003 	mov	r0, r3
80003c84:	e24bd004 	sub	sp, fp, #4
80003c88:	e8bd8800 	pop	{fp, pc}
80003c8c:	e92d4800 	push	{fp, lr}
80003c90:	e28db004 	add	fp, sp, #4
80003c94:	e24dd020 	sub	sp, sp, #32
80003c98:	e50b0020 	str	r0, [fp, #-32]	; 0xffffffe0
80003c9c:	e24b301c 	sub	r3, fp, #28
80003ca0:	e3a02000 	mov	r2, #0
80003ca4:	e5832000 	str	r2, [r3]
80003ca8:	e5832004 	str	r2, [r3, #4]
80003cac:	e1c320b8 	strh	r2, [r3, #8]
80003cb0:	e3a03000 	mov	r3, #0
80003cb4:	e50b3010 	str	r3, [fp, #-16]
80003cb8:	e3a03000 	mov	r3, #0
80003cbc:	e50b3008 	str	r3, [fp, #-8]
80003cc0:	e3a03000 	mov	r3, #0
80003cc4:	e50b300c 	str	r3, [fp, #-12]
80003cc8:	e51b3020 	ldr	r3, [fp, #-32]	; 0xffffffe0
80003ccc:	e3530000 	cmp	r3, #0
80003cd0:	aa000004 	bge	0x80003ce8
80003cd4:	e3a0002d 	mov	r0, #45	; 0x2d
80003cd8:	eb000170 	bl	0x800042a0
80003cdc:	e51b3020 	ldr	r3, [fp, #-32]	; 0xffffffe0
80003ce0:	e2633000 	rsb	r3, r3, #0
80003ce4:	e50b3020 	str	r3, [fp, #-32]	; 0xffffffe0
80003ce8:	e51b3020 	ldr	r3, [fp, #-32]	; 0xffffffe0
80003cec:	e50b3008 	str	r3, [fp, #-8]
80003cf0:	e51b2008 	ldr	r2, [fp, #-8]
80003cf4:	e30c3ccd 	movw	r3, #52429	; 0xcccd
80003cf8:	e34c3ccc 	movt	r3, #52428	; 0xcccc
80003cfc:	e0832392 	umull	r2, r3, r2, r3
80003d00:	e1a031a3 	lsr	r3, r3, #3
80003d04:	e50b3010 	str	r3, [fp, #-16]
80003d08:	e51b1008 	ldr	r1, [fp, #-8]
80003d0c:	e30c3ccd 	movw	r3, #52429	; 0xcccd
80003d10:	e34c3ccc 	movt	r3, #52428	; 0xcccc
80003d14:	e0832391 	umull	r2, r3, r1, r3
80003d18:	e1a031a3 	lsr	r3, r3, #3
80003d1c:	e3a0200a 	mov	r2, #10
80003d20:	e0030392 	mul	r3, r2, r3
80003d24:	e0413003 	sub	r3, r1, r3
80003d28:	e6ef1073 	uxtb	r1, r3
80003d2c:	e24b201c 	sub	r2, fp, #28
80003d30:	e51b300c 	ldr	r3, [fp, #-12]
80003d34:	e0823003 	add	r3, r2, r3
80003d38:	e1a02001 	mov	r2, r1
80003d3c:	e5c32000 	strb	r2, [r3]
80003d40:	e51b3010 	ldr	r3, [fp, #-16]
80003d44:	e3530000 	cmp	r3, #0
80003d48:	0a000008 	beq	0x80003d70
80003d4c:	e51b300c 	ldr	r3, [fp, #-12]
80003d50:	e2833001 	add	r3, r3, #1
80003d54:	e50b300c 	str	r3, [fp, #-12]
80003d58:	e51b3010 	ldr	r3, [fp, #-16]
80003d5c:	e50b3008 	str	r3, [fp, #-8]
80003d60:	e51b300c 	ldr	r3, [fp, #-12]
80003d64:	e3530009 	cmp	r3, #9
80003d68:	daffffe0 	ble	0x80003cf0
80003d6c:	ea000000 	b	0x80003d74
80003d70:	e320f000 	nop	{0}
80003d74:	e51b300c 	ldr	r3, [fp, #-12]
80003d78:	e353000a 	cmp	r3, #10
80003d7c:	1a000002 	bne	0x80003d8c
80003d80:	e51b300c 	ldr	r3, [fp, #-12]
80003d84:	e2433001 	sub	r3, r3, #1
80003d88:	e50b300c 	str	r3, [fp, #-12]
80003d8c:	e51b300c 	ldr	r3, [fp, #-12]
80003d90:	e2432001 	sub	r2, r3, #1
80003d94:	e50b200c 	str	r2, [fp, #-12]
80003d98:	e24b2004 	sub	r2, fp, #4
80003d9c:	e0823003 	add	r3, r2, r3
80003da0:	e5533018 	ldrb	r3, [r3, #-24]	; 0xffffffe8
80003da4:	e2833030 	add	r3, r3, #48	; 0x30
80003da8:	e6ef3073 	uxtb	r3, r3
80003dac:	e1a00003 	mov	r0, r3
80003db0:	eb00013a 	bl	0x800042a0
80003db4:	e51b300c 	ldr	r3, [fp, #-12]
80003db8:	e3530000 	cmp	r3, #0
80003dbc:	aafffff2 	bge	0x80003d8c
80003dc0:	e320f000 	nop	{0}
80003dc4:	e24bd004 	sub	sp, fp, #4
80003dc8:	e8bd8800 	pop	{fp, pc}
80003dcc:	e92d4800 	push	{fp, lr}
80003dd0:	e28db004 	add	fp, sp, #4
80003dd4:	e24dd020 	sub	sp, sp, #32
80003dd8:	e50b0020 	str	r0, [fp, #-32]	; 0xffffffe0
80003ddc:	e24b3018 	sub	r3, fp, #24
80003de0:	e3a02000 	mov	r2, #0
80003de4:	e5832000 	str	r2, [r3]
80003de8:	e5832004 	str	r2, [r3, #4]
80003dec:	e3a03000 	mov	r3, #0
80003df0:	e50b3010 	str	r3, [fp, #-16]
80003df4:	e3a03000 	mov	r3, #0
80003df8:	e50b3008 	str	r3, [fp, #-8]
80003dfc:	e3a03000 	mov	r3, #0
80003e00:	e50b300c 	str	r3, [fp, #-12]
80003e04:	e51b3020 	ldr	r3, [fp, #-32]	; 0xffffffe0
80003e08:	e50b3008 	str	r3, [fp, #-8]
80003e0c:	e51b3008 	ldr	r3, [fp, #-8]
80003e10:	e1a03223 	lsr	r3, r3, #4
80003e14:	e50b3010 	str	r3, [fp, #-16]
80003e18:	e51b3008 	ldr	r3, [fp, #-8]
80003e1c:	e6ef3073 	uxtb	r3, r3
80003e20:	e203300f 	and	r3, r3, #15
80003e24:	e6ef1073 	uxtb	r1, r3
80003e28:	e24b2018 	sub	r2, fp, #24
80003e2c:	e51b300c 	ldr	r3, [fp, #-12]
80003e30:	e0823003 	add	r3, r2, r3
80003e34:	e1a02001 	mov	r2, r1
80003e38:	e5c32000 	strb	r2, [r3]
80003e3c:	e51b3010 	ldr	r3, [fp, #-16]
80003e40:	e3530000 	cmp	r3, #0
80003e44:	0a000008 	beq	0x80003e6c
80003e48:	e51b300c 	ldr	r3, [fp, #-12]
80003e4c:	e2833001 	add	r3, r3, #1
80003e50:	e50b300c 	str	r3, [fp, #-12]
80003e54:	e51b3010 	ldr	r3, [fp, #-16]
80003e58:	e50b3008 	str	r3, [fp, #-8]
80003e5c:	e51b300c 	ldr	r3, [fp, #-12]
80003e60:	e3530007 	cmp	r3, #7
80003e64:	daffffe8 	ble	0x80003e0c
80003e68:	ea000000 	b	0x80003e70
80003e6c:	e320f000 	nop	{0}
80003e70:	e51b300c 	ldr	r3, [fp, #-12]
80003e74:	e3530008 	cmp	r3, #8
80003e78:	1a000002 	bne	0x80003e88
80003e7c:	e51b300c 	ldr	r3, [fp, #-12]
80003e80:	e2433001 	sub	r3, r3, #1
80003e84:	e50b300c 	str	r3, [fp, #-12]
80003e88:	e3a00030 	mov	r0, #48	; 0x30
80003e8c:	eb000103 	bl	0x800042a0
80003e90:	e3a00078 	mov	r0, #120	; 0x78
80003e94:	eb000101 	bl	0x800042a0
80003e98:	ea00001b 	b	0x80003f0c
80003e9c:	e24b2018 	sub	r2, fp, #24
80003ea0:	e51b300c 	ldr	r3, [fp, #-12]
80003ea4:	e0823003 	add	r3, r2, r3
80003ea8:	e5d33000 	ldrb	r3, [r3]
80003eac:	e2633010 	rsb	r3, r3, #16
80003eb0:	e3530006 	cmp	r3, #6
80003eb4:	ca00000a 	bgt	0x80003ee4
80003eb8:	e51b300c 	ldr	r3, [fp, #-12]
80003ebc:	e2432001 	sub	r2, r3, #1
80003ec0:	e50b200c 	str	r2, [fp, #-12]
80003ec4:	e24b2004 	sub	r2, fp, #4
80003ec8:	e0823003 	add	r3, r2, r3
80003ecc:	e5533014 	ldrb	r3, [r3, #-20]	; 0xffffffec
80003ed0:	e2833037 	add	r3, r3, #55	; 0x37
80003ed4:	e6ef3073 	uxtb	r3, r3
80003ed8:	e1a00003 	mov	r0, r3
80003edc:	eb0000ef 	bl	0x800042a0
80003ee0:	ea000009 	b	0x80003f0c
80003ee4:	e51b300c 	ldr	r3, [fp, #-12]
80003ee8:	e2432001 	sub	r2, r3, #1
80003eec:	e50b200c 	str	r2, [fp, #-12]
80003ef0:	e24b2004 	sub	r2, fp, #4
80003ef4:	e0823003 	add	r3, r2, r3
80003ef8:	e5533014 	ldrb	r3, [r3, #-20]	; 0xffffffec
80003efc:	e2833030 	add	r3, r3, #48	; 0x30
80003f00:	e6ef3073 	uxtb	r3, r3
80003f04:	e1a00003 	mov	r0, r3
80003f08:	eb0000e4 	bl	0x800042a0
80003f0c:	e51b300c 	ldr	r3, [fp, #-12]
80003f10:	e3530000 	cmp	r3, #0
80003f14:	aaffffe0 	bge	0x80003e9c
80003f18:	e320f000 	nop	{0}
80003f1c:	e24bd004 	sub	sp, fp, #4
80003f20:	e8bd8800 	pop	{fp, pc}
80003f24:	e92d4800 	push	{fp, lr}
80003f28:	e28db004 	add	fp, sp, #4
80003f2c:	e24dd010 	sub	sp, sp, #16
80003f30:	e3a03001 	mov	r3, #1
80003f34:	e50b3008 	str	r3, [fp, #-8]
80003f38:	e3a03000 	mov	r3, #0
80003f3c:	e50b300c 	str	r3, [fp, #-12]
80003f40:	eb0000e1 	bl	0x800042cc
80003f44:	e1a03000 	mov	r3, r0
80003f48:	e54b300d 	strb	r3, [fp, #-13]
80003f4c:	e55b300d 	ldrb	r3, [fp, #-13]
80003f50:	e353002d 	cmp	r3, #45	; 0x2d
80003f54:	1a000004 	bne	0x80003f6c
80003f58:	e3a0002d 	mov	r0, #45	; 0x2d
80003f5c:	eb0000cf 	bl	0x800042a0
80003f60:	e3e03000 	mvn	r3, #0
80003f64:	e50b3008 	str	r3, [fp, #-8]
80003f68:	ea000009 	b	0x80003f94
80003f6c:	e55b300d 	ldrb	r3, [fp, #-13]
80003f70:	e1a00003 	mov	r0, r3
80003f74:	eb0000c9 	bl	0x800042a0
80003f78:	e51b300c 	ldr	r3, [fp, #-12]
80003f7c:	e3a0200a 	mov	r2, #10
80003f80:	e0020392 	mul	r2, r2, r3
80003f84:	e55b300d 	ldrb	r3, [fp, #-13]
80003f88:	e2433030 	sub	r3, r3, #48	; 0x30
80003f8c:	e0823003 	add	r3, r2, r3
80003f90:	e50b300c 	str	r3, [fp, #-12]
80003f94:	eb0000cc 	bl	0x800042cc
80003f98:	e1a03000 	mov	r3, r0
80003f9c:	e54b300d 	strb	r3, [fp, #-13]
80003fa0:	e55b300d 	ldrb	r3, [fp, #-13]
80003fa4:	e1a00003 	mov	r0, r3
80003fa8:	eb0000bc 	bl	0x800042a0
80003fac:	e55b300d 	ldrb	r3, [fp, #-13]
80003fb0:	e353000d 	cmp	r3, #13
80003fb4:	0a000007 	beq	0x80003fd8
80003fb8:	e51b300c 	ldr	r3, [fp, #-12]
80003fbc:	e3a0200a 	mov	r2, #10
80003fc0:	e0020392 	mul	r2, r2, r3
80003fc4:	e55b300d 	ldrb	r3, [fp, #-13]
80003fc8:	e2433030 	sub	r3, r3, #48	; 0x30
80003fcc:	e0823003 	add	r3, r2, r3
80003fd0:	e50b300c 	str	r3, [fp, #-12]
80003fd4:	eaffffee 	b	0x80003f94
80003fd8:	e320f000 	nop	{0}
80003fdc:	e51b300c 	ldr	r3, [fp, #-12]
80003fe0:	e51b2008 	ldr	r2, [fp, #-8]
80003fe4:	e0030392 	mul	r3, r2, r3
80003fe8:	e50b300c 	str	r3, [fp, #-12]
80003fec:	e51b300c 	ldr	r3, [fp, #-12]
80003ff0:	e1a00003 	mov	r0, r3
80003ff4:	e24bd004 	sub	sp, fp, #4
80003ff8:	e8bd8800 	pop	{fp, pc}
80003ffc:	e92d4800 	push	{fp, lr}
80004000:	e28db004 	add	fp, sp, #4
80004004:	e24dd010 	sub	sp, sp, #16
80004008:	e3a03000 	mov	r3, #0
8000400c:	e50b3008 	str	r3, [fp, #-8]
80004010:	e3a03000 	mov	r3, #0
80004014:	e50b3010 	str	r3, [fp, #-16]
80004018:	e3a03000 	mov	r3, #0
8000401c:	e50b300c 	str	r3, [fp, #-12]
80004020:	ea00004d 	b	0x8000415c
80004024:	eb0000a8 	bl	0x800042cc
80004028:	e1a03000 	mov	r3, r0
8000402c:	e54b3011 	strb	r3, [fp, #-17]	; 0xffffffef
80004030:	e55b3011 	ldrb	r3, [fp, #-17]	; 0xffffffef
80004034:	e353000d 	cmp	r3, #13
80004038:	0a00004b 	beq	0x8000416c
8000403c:	e55b3011 	ldrb	r3, [fp, #-17]	; 0xffffffef
80004040:	e3530040 	cmp	r3, #64	; 0x40
80004044:	9a00000f 	bls	0x80004088
80004048:	e55b3011 	ldrb	r3, [fp, #-17]	; 0xffffffef
8000404c:	e3530046 	cmp	r3, #70	; 0x46
80004050:	8a00000c 	bhi	0x80004088
80004054:	e55b3011 	ldrb	r3, [fp, #-17]	; 0xffffffef
80004058:	e1a00003 	mov	r0, r3
8000405c:	eb00008f 	bl	0x800042a0
80004060:	e51b3008 	ldr	r3, [fp, #-8]
80004064:	e1a02203 	lsl	r2, r3, #4
80004068:	e55b3011 	ldrb	r3, [fp, #-17]	; 0xffffffef
8000406c:	e0823003 	add	r3, r2, r3
80004070:	e2433037 	sub	r3, r3, #55	; 0x37
80004074:	e50b3008 	str	r3, [fp, #-8]
80004078:	e51b3010 	ldr	r3, [fp, #-16]
8000407c:	e2833001 	add	r3, r3, #1
80004080:	e50b3010 	str	r3, [fp, #-16]
80004084:	ea000031 	b	0x80004150
80004088:	e55b3011 	ldrb	r3, [fp, #-17]	; 0xffffffef
8000408c:	e3530060 	cmp	r3, #96	; 0x60
80004090:	9a00000f 	bls	0x800040d4
80004094:	e55b3011 	ldrb	r3, [fp, #-17]	; 0xffffffef
80004098:	e3530066 	cmp	r3, #102	; 0x66
8000409c:	8a00000c 	bhi	0x800040d4
800040a0:	e55b3011 	ldrb	r3, [fp, #-17]	; 0xffffffef
800040a4:	e1a00003 	mov	r0, r3
800040a8:	eb00007c 	bl	0x800042a0
800040ac:	e51b3008 	ldr	r3, [fp, #-8]
800040b0:	e1a02203 	lsl	r2, r3, #4
800040b4:	e55b3011 	ldrb	r3, [fp, #-17]	; 0xffffffef
800040b8:	e0823003 	add	r3, r2, r3
800040bc:	e2433057 	sub	r3, r3, #87	; 0x57
800040c0:	e50b3008 	str	r3, [fp, #-8]
800040c4:	e51b3010 	ldr	r3, [fp, #-16]
800040c8:	e2833001 	add	r3, r3, #1
800040cc:	e50b3010 	str	r3, [fp, #-16]
800040d0:	ea00001e 	b	0x80004150
800040d4:	e55b3011 	ldrb	r3, [fp, #-17]	; 0xffffffef
800040d8:	e353002f 	cmp	r3, #47	; 0x2f
800040dc:	9a00000f 	bls	0x80004120
800040e0:	e55b3011 	ldrb	r3, [fp, #-17]	; 0xffffffef
800040e4:	e3530039 	cmp	r3, #57	; 0x39
800040e8:	8a00000c 	bhi	0x80004120
800040ec:	e55b3011 	ldrb	r3, [fp, #-17]	; 0xffffffef
800040f0:	e1a00003 	mov	r0, r3
800040f4:	eb000069 	bl	0x800042a0
800040f8:	e51b3008 	ldr	r3, [fp, #-8]
800040fc:	e1a02203 	lsl	r2, r3, #4
80004100:	e55b3011 	ldrb	r3, [fp, #-17]	; 0xffffffef
80004104:	e0823003 	add	r3, r2, r3
80004108:	e2433030 	sub	r3, r3, #48	; 0x30
8000410c:	e50b3008 	str	r3, [fp, #-8]
80004110:	e51b3010 	ldr	r3, [fp, #-16]
80004114:	e2833001 	add	r3, r3, #1
80004118:	e50b3010 	str	r3, [fp, #-16]
8000411c:	ea00000b 	b	0x80004150
80004120:	e55b3011 	ldrb	r3, [fp, #-17]	; 0xffffffef
80004124:	e3530078 	cmp	r3, #120	; 0x78
80004128:	0a000002 	beq	0x80004138
8000412c:	e55b3011 	ldrb	r3, [fp, #-17]	; 0xffffffef
80004130:	e3530058 	cmp	r3, #88	; 0x58
80004134:	1a000005 	bne	0x80004150
80004138:	e55b3011 	ldrb	r3, [fp, #-17]	; 0xffffffef
8000413c:	e1a00003 	mov	r0, r3
80004140:	eb000056 	bl	0x800042a0
80004144:	e3a03000 	mov	r3, #0
80004148:	e50b3008 	str	r3, [fp, #-8]
8000414c:	ea000007 	b	0x80004170
80004150:	e51b300c 	ldr	r3, [fp, #-12]
80004154:	e2833001 	add	r3, r3, #1
80004158:	e50b300c 	str	r3, [fp, #-12]
8000415c:	e51b300c 	ldr	r3, [fp, #-12]
80004160:	e3530001 	cmp	r3, #1
80004164:	9affffae 	bls	0x80004024
80004168:	ea000000 	b	0x80004170
8000416c:	e320f000 	nop	{0}
80004170:	e51b3008 	ldr	r3, [fp, #-8]
80004174:	e3530000 	cmp	r3, #0
80004178:	1a000001 	bne	0x80004184
8000417c:	e3a03000 	mov	r3, #0
80004180:	e50b3010 	str	r3, [fp, #-16]
80004184:	eb000050 	bl	0x800042cc
80004188:	e1a03000 	mov	r3, r0
8000418c:	e54b3011 	strb	r3, [fp, #-17]	; 0xffffffef
80004190:	e55b3011 	ldrb	r3, [fp, #-17]	; 0xffffffef
80004194:	e353000d 	cmp	r3, #13
80004198:	0a00003b 	beq	0x8000428c
8000419c:	e55b3011 	ldrb	r3, [fp, #-17]	; 0xffffffef
800041a0:	e3530040 	cmp	r3, #64	; 0x40
800041a4:	9a00000f 	bls	0x800041e8
800041a8:	e55b3011 	ldrb	r3, [fp, #-17]	; 0xffffffef
800041ac:	e3530046 	cmp	r3, #70	; 0x46
800041b0:	8a00000c 	bhi	0x800041e8
800041b4:	e55b3011 	ldrb	r3, [fp, #-17]	; 0xffffffef
800041b8:	e1a00003 	mov	r0, r3
800041bc:	eb000037 	bl	0x800042a0
800041c0:	e51b3008 	ldr	r3, [fp, #-8]
800041c4:	e1a02203 	lsl	r2, r3, #4
800041c8:	e55b3011 	ldrb	r3, [fp, #-17]	; 0xffffffef
800041cc:	e0823003 	add	r3, r2, r3
800041d0:	e2433037 	sub	r3, r3, #55	; 0x37
800041d4:	e50b3008 	str	r3, [fp, #-8]
800041d8:	e51b3010 	ldr	r3, [fp, #-16]
800041dc:	e2833001 	add	r3, r3, #1
800041e0:	e50b3010 	str	r3, [fp, #-16]
800041e4:	ea000024 	b	0x8000427c
800041e8:	e55b3011 	ldrb	r3, [fp, #-17]	; 0xffffffef
800041ec:	e3530060 	cmp	r3, #96	; 0x60
800041f0:	9a00000f 	bls	0x80004234
800041f4:	e55b3011 	ldrb	r3, [fp, #-17]	; 0xffffffef
800041f8:	e3530066 	cmp	r3, #102	; 0x66
800041fc:	8a00000c 	bhi	0x80004234
80004200:	e55b3011 	ldrb	r3, [fp, #-17]	; 0xffffffef
80004204:	e1a00003 	mov	r0, r3
80004208:	eb000024 	bl	0x800042a0
8000420c:	e51b3008 	ldr	r3, [fp, #-8]
80004210:	e1a02203 	lsl	r2, r3, #4
80004214:	e55b3011 	ldrb	r3, [fp, #-17]	; 0xffffffef
80004218:	e0823003 	add	r3, r2, r3
8000421c:	e2433057 	sub	r3, r3, #87	; 0x57
80004220:	e50b3008 	str	r3, [fp, #-8]
80004224:	e51b3010 	ldr	r3, [fp, #-16]
80004228:	e2833001 	add	r3, r3, #1
8000422c:	e50b3010 	str	r3, [fp, #-16]
80004230:	ea000011 	b	0x8000427c
80004234:	e55b3011 	ldrb	r3, [fp, #-17]	; 0xffffffef
80004238:	e353002f 	cmp	r3, #47	; 0x2f
8000423c:	9a00000e 	bls	0x8000427c
80004240:	e55b3011 	ldrb	r3, [fp, #-17]	; 0xffffffef
80004244:	e3530039 	cmp	r3, #57	; 0x39
80004248:	8a00000b 	bhi	0x8000427c
8000424c:	e55b3011 	ldrb	r3, [fp, #-17]	; 0xffffffef
80004250:	e1a00003 	mov	r0, r3
80004254:	eb000011 	bl	0x800042a0
80004258:	e51b3008 	ldr	r3, [fp, #-8]
8000425c:	e1a02203 	lsl	r2, r3, #4
80004260:	e55b3011 	ldrb	r3, [fp, #-17]	; 0xffffffef
80004264:	e0823003 	add	r3, r2, r3
80004268:	e2433030 	sub	r3, r3, #48	; 0x30
8000426c:	e50b3008 	str	r3, [fp, #-8]
80004270:	e51b3010 	ldr	r3, [fp, #-16]
80004274:	e2833001 	add	r3, r3, #1
80004278:	e50b3010 	str	r3, [fp, #-16]
8000427c:	e51b3010 	ldr	r3, [fp, #-16]
80004280:	e3530007 	cmp	r3, #7
80004284:	9affffbe 	bls	0x80004184
80004288:	ea000000 	b	0x80004290
8000428c:	e320f000 	nop	{0}
80004290:	e51b3008 	ldr	r3, [fp, #-8]
80004294:	e1a00003 	mov	r0, r3
80004298:	e24bd004 	sub	sp, fp, #4
8000429c:	e8bd8800 	pop	{fp, pc}
800042a0:	e92d4800 	push	{fp, lr}
800042a4:	e28db004 	add	fp, sp, #4
800042a8:	e24dd008 	sub	sp, sp, #8
800042ac:	e1a03000 	mov	r3, r0
800042b0:	e54b3005 	strb	r3, [fp, #-5]
800042b4:	e55b3005 	ldrb	r3, [fp, #-5]
800042b8:	e1a00003 	mov	r0, r3
800042bc:	ebfffdc4 	bl	0x800039d4
800042c0:	e320f000 	nop	{0}
800042c4:	e24bd004 	sub	sp, fp, #4
800042c8:	e8bd8800 	pop	{fp, pc}
800042cc:	e92d4800 	push	{fp, lr}
800042d0:	e28db004 	add	fp, sp, #4
800042d4:	ebfffdcb 	bl	0x80003a08
800042d8:	e1a03000 	mov	r3, r0
800042dc:	e1a00003 	mov	r0, r3
800042e0:	e8bd8800 	pop	{fp, pc}
800042e4:	e92d4800 	push	{fp, lr}
800042e8:	e28db004 	add	fp, sp, #4
800042ec:	e24dd010 	sub	sp, sp, #16
800042f0:	e50b0010 	str	r0, [fp, #-16]
800042f4:	e50b1014 	str	r1, [fp, #-20]	; 0xffffffec
800042f8:	e3a03000 	mov	r3, #0
800042fc:	e50b3008 	str	r3, [fp, #-8]
80004300:	ea000010 	b	0x80004348
80004304:	e51b2010 	ldr	r2, [fp, #-16]
80004308:	e51b3008 	ldr	r3, [fp, #-8]
8000430c:	e0823003 	add	r3, r2, r3
80004310:	e5d33000 	ldrb	r3, [r3]
80004314:	e353000a 	cmp	r3, #10
80004318:	1a000001 	bne	0x80004324
8000431c:	e3a0000d 	mov	r0, #13
80004320:	ebffffde 	bl	0x800042a0
80004324:	e51b2010 	ldr	r2, [fp, #-16]
80004328:	e51b3008 	ldr	r3, [fp, #-8]
8000432c:	e0823003 	add	r3, r2, r3
80004330:	e5d33000 	ldrb	r3, [r3]
80004334:	e1a00003 	mov	r0, r3
80004338:	ebffffd8 	bl	0x800042a0
8000433c:	e51b3008 	ldr	r3, [fp, #-8]
80004340:	e2833001 	add	r3, r3, #1
80004344:	e50b3008 	str	r3, [fp, #-8]
80004348:	e51b2008 	ldr	r2, [fp, #-8]
8000434c:	e51b3014 	ldr	r3, [fp, #-20]	; 0xffffffec
80004350:	e1520003 	cmp	r2, r3
80004354:	3affffea 	bcc	0x80004304
80004358:	e51b3008 	ldr	r3, [fp, #-8]
8000435c:	e1a00003 	mov	r0, r3
80004360:	e24bd004 	sub	sp, fp, #4
80004364:	e8bd8800 	pop	{fp, pc}
80004368:	e92d000f 	push	{r0, r1, r2, r3}
8000436c:	e92d4830 	push	{r4, r5, fp, lr}
80004370:	e28db00c 	add	fp, sp, #12
80004374:	e24dd038 	sub	sp, sp, #56	; 0x38
80004378:	e28b3008 	add	r3, fp, #8
8000437c:	e50b303c 	str	r3, [fp, #-60]	; 0xffffffc4
80004380:	ea000170 	b	0x80004948
80004384:	e3a03000 	mov	r3, #0
80004388:	e50b3010 	str	r3, [fp, #-16]
8000438c:	ea000002 	b	0x8000439c
80004390:	e51b3010 	ldr	r3, [fp, #-16]
80004394:	e2833001 	add	r3, r3, #1
80004398:	e50b3010 	str	r3, [fp, #-16]
8000439c:	e59b2004 	ldr	r2, [fp, #4]
800043a0:	e51b3010 	ldr	r3, [fp, #-16]
800043a4:	e0823003 	add	r3, r2, r3
800043a8:	e5d33000 	ldrb	r3, [r3]
800043ac:	e3530025 	cmp	r3, #37	; 0x25
800043b0:	0a000005 	beq	0x800043cc
800043b4:	e59b2004 	ldr	r2, [fp, #4]
800043b8:	e51b3010 	ldr	r3, [fp, #-16]
800043bc:	e0823003 	add	r3, r2, r3
800043c0:	e5d33000 	ldrb	r3, [r3]
800043c4:	e3530000 	cmp	r3, #0
800043c8:	1afffff0 	bne	0x80004390
800043cc:	e51b1010 	ldr	r1, [fp, #-16]
800043d0:	e59b0004 	ldr	r0, [fp, #4]
800043d4:	ebffffc2 	bl	0x800042e4
800043d8:	e59b2004 	ldr	r2, [fp, #4]
800043dc:	e51b3010 	ldr	r3, [fp, #-16]
800043e0:	e0823003 	add	r3, r2, r3
800043e4:	e58b3004 	str	r3, [fp, #4]
800043e8:	e59b3004 	ldr	r3, [fp, #4]
800043ec:	e5d33000 	ldrb	r3, [r3]
800043f0:	e3530025 	cmp	r3, #37	; 0x25
800043f4:	1a000153 	bne	0x80004948
800043f8:	e59b3004 	ldr	r3, [fp, #4]
800043fc:	e2833001 	add	r3, r3, #1
80004400:	e58b3004 	str	r3, [fp, #4]
80004404:	e3a03000 	mov	r3, #0
80004408:	e50b3018 	str	r3, [fp, #-24]	; 0xffffffe8
8000440c:	e3a03020 	mov	r3, #32
80004410:	e54b3021 	strb	r3, [fp, #-33]	; 0xffffffdf
80004414:	e59b3004 	ldr	r3, [fp, #4]
80004418:	e2832001 	add	r2, r3, #1
8000441c:	e58b2004 	str	r2, [fp, #4]
80004420:	e5d33000 	ldrb	r3, [r3]
80004424:	e2433025 	sub	r3, r3, #37	; 0x25
80004428:	e3530053 	cmp	r3, #83	; 0x53
8000442c:	979ff103 	ldrls	pc, [pc, r3, lsl #2]
80004430:	ea00013f 	b	0x80004934
80004434:	8000491c 	andhi	r4, r0, ip, lsl r9
80004438:	80004934 	andhi	r4, r0, r4, lsr r9
8000443c:	80004934 	andhi	r4, r0, r4, lsr r9
80004440:	80004934 	andhi	r4, r0, r4, lsr r9
80004444:	80004934 	andhi	r4, r0, r4, lsr r9
80004448:	80004934 	andhi	r4, r0, r4, lsr r9
8000444c:	80004934 	andhi	r4, r0, r4, lsr r9
80004450:	80004934 	andhi	r4, r0, r4, lsr r9
80004454:	80004934 	andhi	r4, r0, r4, lsr r9
80004458:	80004934 	andhi	r4, r0, r4, lsr r9
8000445c:	80004934 	andhi	r4, r0, r4, lsr r9
80004460:	80004584 	andhi	r4, r0, r4, lsl #11
80004464:	80004584 	andhi	r4, r0, r4, lsl #11
80004468:	80004584 	andhi	r4, r0, r4, lsl #11
8000446c:	80004584 	andhi	r4, r0, r4, lsl #11
80004470:	80004584 	andhi	r4, r0, r4, lsl #11
80004474:	80004584 	andhi	r4, r0, r4, lsl #11
80004478:	80004584 	andhi	r4, r0, r4, lsl #11
8000447c:	80004584 	andhi	r4, r0, r4, lsl #11
80004480:	80004584 	andhi	r4, r0, r4, lsl #11
80004484:	80004584 	andhi	r4, r0, r4, lsl #11
80004488:	80004934 	andhi	r4, r0, r4, lsr r9
8000448c:	80004934 	andhi	r4, r0, r4, lsr r9
80004490:	80004934 	andhi	r4, r0, r4, lsr r9
80004494:	80004934 	andhi	r4, r0, r4, lsr r9
80004498:	80004934 	andhi	r4, r0, r4, lsr r9
8000449c:	80004934 	andhi	r4, r0, r4, lsr r9
800044a0:	80004934 	andhi	r4, r0, r4, lsr r9
800044a4:	80004934 	andhi	r4, r0, r4, lsr r9
800044a8:	80004934 	andhi	r4, r0, r4, lsr r9
800044ac:	80004934 	andhi	r4, r0, r4, lsr r9
800044b0:	80004934 	andhi	r4, r0, r4, lsr r9
800044b4:	80004934 	andhi	r4, r0, r4, lsr r9
800044b8:	80004934 	andhi	r4, r0, r4, lsr r9
800044bc:	80004934 	andhi	r4, r0, r4, lsr r9
800044c0:	80004934 	andhi	r4, r0, r4, lsr r9
800044c4:	80004934 	andhi	r4, r0, r4, lsr r9
800044c8:	80004934 	andhi	r4, r0, r4, lsr r9
800044cc:	80004934 	andhi	r4, r0, r4, lsr r9
800044d0:	80004934 	andhi	r4, r0, r4, lsr r9
800044d4:	80004934 	andhi	r4, r0, r4, lsr r9
800044d8:	80004934 	andhi	r4, r0, r4, lsr r9
800044dc:	80004934 	andhi	r4, r0, r4, lsr r9
800044e0:	80004934 	andhi	r4, r0, r4, lsr r9
800044e4:	80004934 	andhi	r4, r0, r4, lsr r9
800044e8:	80004934 	andhi	r4, r0, r4, lsr r9
800044ec:	80004934 	andhi	r4, r0, r4, lsr r9
800044f0:	80004934 	andhi	r4, r0, r4, lsr r9
800044f4:	80004934 	andhi	r4, r0, r4, lsr r9
800044f8:	80004934 	andhi	r4, r0, r4, lsr r9
800044fc:	80004934 	andhi	r4, r0, r4, lsr r9
80004500:	80004728 	andhi	r4, r0, r8, lsr #14
80004504:	80004934 	andhi	r4, r0, r4, lsr r9
80004508:	80004934 	andhi	r4, r0, r4, lsr r9
8000450c:	80004934 	andhi	r4, r0, r4, lsr r9
80004510:	80004934 	andhi	r4, r0, r4, lsr r9
80004514:	80004934 	andhi	r4, r0, r4, lsr r9
80004518:	80004934 	andhi	r4, r0, r4, lsr r9
8000451c:	80004934 	andhi	r4, r0, r4, lsr r9
80004520:	80004934 	andhi	r4, r0, r4, lsr r9
80004524:	80004934 	andhi	r4, r0, r4, lsr r9
80004528:	80004934 	andhi	r4, r0, r4, lsr r9
8000452c:	800045e0 	andhi	r4, r0, r0, ror #11
80004530:	80004608 	andhi	r4, r0, r8, lsl #12
80004534:	80004934 	andhi	r4, r0, r4, lsr r9
80004538:	80004934 	andhi	r4, r0, r4, lsr r9
8000453c:	80004934 	andhi	r4, r0, r4, lsr r9
80004540:	80004934 	andhi	r4, r0, r4, lsr r9
80004544:	80004934 	andhi	r4, r0, r4, lsr r9
80004548:	80004934 	andhi	r4, r0, r4, lsr r9
8000454c:	80004934 	andhi	r4, r0, r4, lsr r9
80004550:	80004934 	andhi	r4, r0, r4, lsr r9
80004554:	80004934 	andhi	r4, r0, r4, lsr r9
80004558:	80004934 	andhi	r4, r0, r4, lsr r9
8000455c:	80004934 	andhi	r4, r0, r4, lsr r9
80004560:	80004728 	andhi	r4, r0, r8, lsr #14
80004564:	80004934 	andhi	r4, r0, r4, lsr r9
80004568:	80004934 	andhi	r4, r0, r4, lsr r9
8000456c:	8000465c 	andhi	r4, r0, ip, asr r6
80004570:	80004934 	andhi	r4, r0, r4, lsr r9
80004574:	800046f8 	strdhi	r4, [r0], -r8
80004578:	80004934 	andhi	r4, r0, r4, lsr r9
8000457c:	80004934 	andhi	r4, r0, r4, lsr r9
80004580:	80004728 	andhi	r4, r0, r8, lsr #14
80004584:	e59b3004 	ldr	r3, [fp, #4]
80004588:	e2433001 	sub	r3, r3, #1
8000458c:	e5d33000 	ldrb	r3, [r3]
80004590:	e3530030 	cmp	r3, #48	; 0x30
80004594:	1a000004 	bne	0x800045ac
80004598:	e51b3018 	ldr	r3, [fp, #-24]	; 0xffffffe8
8000459c:	e3530000 	cmp	r3, #0
800045a0:	1a000001 	bne	0x800045ac
800045a4:	e3a03030 	mov	r3, #48	; 0x30
800045a8:	e54b3021 	strb	r3, [fp, #-33]	; 0xffffffdf
800045ac:	e51b3018 	ldr	r3, [fp, #-24]	; 0xffffffe8
800045b0:	e3a0200a 	mov	r2, #10
800045b4:	e0030392 	mul	r3, r2, r3
800045b8:	e50b3018 	str	r3, [fp, #-24]	; 0xffffffe8
800045bc:	e59b3004 	ldr	r3, [fp, #4]
800045c0:	e2433001 	sub	r3, r3, #1
800045c4:	e5d33000 	ldrb	r3, [r3]
800045c8:	e1a02003 	mov	r2, r3
800045cc:	e51b3018 	ldr	r3, [fp, #-24]	; 0xffffffe8
800045d0:	e0823003 	add	r3, r2, r3
800045d4:	e2433030 	sub	r3, r3, #48	; 0x30
800045d8:	e50b3018 	str	r3, [fp, #-24]	; 0xffffffe8
800045dc:	eaffff8c 	b	0x80004414
800045e0:	e51b303c 	ldr	r3, [fp, #-60]	; 0xffffffc4
800045e4:	e2832004 	add	r2, r3, #4
800045e8:	e50b203c 	str	r2, [fp, #-60]	; 0xffffffc4
800045ec:	e5933000 	ldr	r3, [r3]
800045f0:	e50b3040 	str	r3, [fp, #-64]	; 0xffffffc0
800045f4:	e24b3040 	sub	r3, fp, #64	; 0x40
800045f8:	e3a01001 	mov	r1, #1
800045fc:	e1a00003 	mov	r0, r3
80004600:	ebffff37 	bl	0x800042e4
80004604:	ea0000cf 	b	0x80004948
80004608:	e51b303c 	ldr	r3, [fp, #-60]	; 0xffffffc4
8000460c:	e2832004 	add	r2, r3, #4
80004610:	e50b203c 	str	r2, [fp, #-60]	; 0xffffffc4
80004614:	e5933000 	ldr	r3, [r3]
80004618:	e50b3040 	str	r3, [fp, #-64]	; 0xffffffc0
8000461c:	e3a03000 	mov	r3, #0
80004620:	e50b3014 	str	r3, [fp, #-20]	; 0xffffffec
80004624:	e51b3040 	ldr	r3, [fp, #-64]	; 0xffffffc0
80004628:	e3530000 	cmp	r3, #0
8000462c:	aa000005 	bge	0x80004648
80004630:	e51b3040 	ldr	r3, [fp, #-64]	; 0xffffffc0
80004634:	e2633000 	rsb	r3, r3, #0
80004638:	e50b3040 	str	r3, [fp, #-64]	; 0xffffffc0
8000463c:	e3a03001 	mov	r3, #1
80004640:	e50b3020 	str	r3, [fp, #-32]	; 0xffffffe0
80004644:	ea000001 	b	0x80004650
80004648:	e3a03000 	mov	r3, #0
8000464c:	e50b3020 	str	r3, [fp, #-32]	; 0xffffffe0
80004650:	e3a0300a 	mov	r3, #10
80004654:	e50b301c 	str	r3, [fp, #-28]	; 0xffffffe4
80004658:	ea00003d 	b	0x80004754
8000465c:	e51b303c 	ldr	r3, [fp, #-60]	; 0xffffffc4
80004660:	e2832004 	add	r2, r3, #4
80004664:	e50b203c 	str	r2, [fp, #-60]	; 0xffffffc4
80004668:	e5933000 	ldr	r3, [r3]
8000466c:	e50b3028 	str	r3, [fp, #-40]	; 0xffffffd8
80004670:	e3a03000 	mov	r3, #0
80004674:	e50b3010 	str	r3, [fp, #-16]
80004678:	ea000002 	b	0x80004688
8000467c:	e51b3010 	ldr	r3, [fp, #-16]
80004680:	e2833001 	add	r3, r3, #1
80004684:	e50b3010 	str	r3, [fp, #-16]
80004688:	e51b2028 	ldr	r2, [fp, #-40]	; 0xffffffd8
8000468c:	e51b3010 	ldr	r3, [fp, #-16]
80004690:	e0823003 	add	r3, r2, r3
80004694:	e5d33000 	ldrb	r3, [r3]
80004698:	e3530000 	cmp	r3, #0
8000469c:	1afffff6 	bne	0x8000467c
800046a0:	e51b1010 	ldr	r1, [fp, #-16]
800046a4:	e51b0028 	ldr	r0, [fp, #-40]	; 0xffffffd8
800046a8:	ebffff0d 	bl	0x800042e4
800046ac:	e51b2018 	ldr	r2, [fp, #-24]	; 0xffffffe8
800046b0:	e51b3010 	ldr	r3, [fp, #-16]
800046b4:	e1520003 	cmp	r2, r3
800046b8:	9a0000a2 	bls	0x80004948
800046bc:	e51b2018 	ldr	r2, [fp, #-24]	; 0xffffffe8
800046c0:	e51b3010 	ldr	r3, [fp, #-16]
800046c4:	e0423003 	sub	r3, r2, r3
800046c8:	e50b3018 	str	r3, [fp, #-24]	; 0xffffffe8
800046cc:	ea000003 	b	0x800046e0
800046d0:	e3a01001 	mov	r1, #1
800046d4:	e3060048 	movw	r0, #24648	; 0x6048
800046d8:	e3480000 	movt	r0, #32768	; 0x8000
800046dc:	ebffff00 	bl	0x800042e4
800046e0:	e51b3018 	ldr	r3, [fp, #-24]	; 0xffffffe8
800046e4:	e2432001 	sub	r2, r3, #1
800046e8:	e50b2018 	str	r2, [fp, #-24]	; 0xffffffe8
800046ec:	e3530000 	cmp	r3, #0
800046f0:	1afffff6 	bne	0x800046d0
800046f4:	ea000093 	b	0x80004948
800046f8:	e51b303c 	ldr	r3, [fp, #-60]	; 0xffffffc4
800046fc:	e2832004 	add	r2, r3, #4
80004700:	e50b203c 	str	r2, [fp, #-60]	; 0xffffffc4
80004704:	e5933000 	ldr	r3, [r3]
80004708:	e50b3040 	str	r3, [fp, #-64]	; 0xffffffc0
8000470c:	e3a03000 	mov	r3, #0
80004710:	e50b3014 	str	r3, [fp, #-20]	; 0xffffffec
80004714:	e3a0300a 	mov	r3, #10
80004718:	e50b301c 	str	r3, [fp, #-28]	; 0xffffffe4
8000471c:	e3a03000 	mov	r3, #0
80004720:	e50b3020 	str	r3, [fp, #-32]	; 0xffffffe0
80004724:	ea00000a 	b	0x80004754
80004728:	e51b303c 	ldr	r3, [fp, #-60]	; 0xffffffc4
8000472c:	e2832004 	add	r2, r3, #4
80004730:	e50b203c 	str	r2, [fp, #-60]	; 0xffffffc4
80004734:	e5933000 	ldr	r3, [r3]
80004738:	e50b3040 	str	r3, [fp, #-64]	; 0xffffffc0
8000473c:	e3a03000 	mov	r3, #0
80004740:	e50b3014 	str	r3, [fp, #-20]	; 0xffffffec
80004744:	e3a03010 	mov	r3, #16
80004748:	e50b301c 	str	r3, [fp, #-28]	; 0xffffffe4
8000474c:	e3a03000 	mov	r3, #0
80004750:	e50b3020 	str	r3, [fp, #-32]	; 0xffffffe0
80004754:	e3a03001 	mov	r3, #1
80004758:	e50b3010 	str	r3, [fp, #-16]
8000475c:	ea000006 	b	0x8000477c
80004760:	e51b3010 	ldr	r3, [fp, #-16]
80004764:	e51b201c 	ldr	r2, [fp, #-28]	; 0xffffffe4
80004768:	e0030392 	mul	r3, r2, r3
8000476c:	e50b3010 	str	r3, [fp, #-16]
80004770:	e51b3018 	ldr	r3, [fp, #-24]	; 0xffffffe8
80004774:	e2433001 	sub	r3, r3, #1
80004778:	e50b3018 	str	r3, [fp, #-24]	; 0xffffffe8
8000477c:	e51b3010 	ldr	r3, [fp, #-16]
80004780:	e51b201c 	ldr	r2, [fp, #-28]	; 0xffffffe4
80004784:	e0030392 	mul	r3, r2, r3
80004788:	e51b2040 	ldr	r2, [fp, #-64]	; 0xffffffc0
8000478c:	e1530002 	cmp	r3, r2
80004790:	8a00000a 	bhi	0x800047c0
80004794:	e51b3010 	ldr	r3, [fp, #-16]
80004798:	e51b201c 	ldr	r2, [fp, #-28]	; 0xffffffe4
8000479c:	e0030392 	mul	r3, r2, r3
800047a0:	e51b101c 	ldr	r1, [fp, #-28]	; 0xffffffe4
800047a4:	e1a00003 	mov	r0, r3
800047a8:	eb000415 	bl	0x80005804
800047ac:	e1a03000 	mov	r3, r0
800047b0:	e1a02003 	mov	r2, r3
800047b4:	e51b3010 	ldr	r3, [fp, #-16]
800047b8:	e1520003 	cmp	r2, r3
800047bc:	0affffe7 	beq	0x80004760
800047c0:	e51b3020 	ldr	r3, [fp, #-32]	; 0xffffffe0
800047c4:	e3530000 	cmp	r3, #0
800047c8:	0a000002 	beq	0x800047d8
800047cc:	e51b3018 	ldr	r3, [fp, #-24]	; 0xffffffe8
800047d0:	e2433001 	sub	r3, r3, #1
800047d4:	e50b3018 	str	r3, [fp, #-24]	; 0xffffffe8
800047d8:	e51b3020 	ldr	r3, [fp, #-32]	; 0xffffffe0
800047dc:	e3530000 	cmp	r3, #0
800047e0:	0a00000b 	beq	0x80004814
800047e4:	e55b3021 	ldrb	r3, [fp, #-33]	; 0xffffffdf
800047e8:	e3530030 	cmp	r3, #48	; 0x30
800047ec:	1a000008 	bne	0x80004814
800047f0:	e51b3014 	ldr	r3, [fp, #-20]	; 0xffffffec
800047f4:	e2832001 	add	r2, r3, #1
800047f8:	e50b2014 	str	r2, [fp, #-20]	; 0xffffffec
800047fc:	e24b200c 	sub	r2, fp, #12
80004800:	e0823003 	add	r3, r2, r3
80004804:	e3a0202d 	mov	r2, #45	; 0x2d
80004808:	e543202c 	strb	r2, [r3, #-44]	; 0xffffffd4
8000480c:	e3a03000 	mov	r3, #0
80004810:	e50b3020 	str	r3, [fp, #-32]	; 0xffffffe0
80004814:	e51b3018 	ldr	r3, [fp, #-24]	; 0xffffffe8
80004818:	e3530001 	cmp	r3, #1
8000481c:	9a000013 	bls	0x80004870
80004820:	e51b3018 	ldr	r3, [fp, #-24]	; 0xffffffe8
80004824:	e353000f 	cmp	r3, #15
80004828:	8a000010 	bhi	0x80004870
8000482c:	e51b3018 	ldr	r3, [fp, #-24]	; 0xffffffe8
80004830:	e2433001 	sub	r3, r3, #1
80004834:	e50b3018 	str	r3, [fp, #-24]	; 0xffffffe8
80004838:	ea000009 	b	0x80004864
8000483c:	e51b3014 	ldr	r3, [fp, #-20]	; 0xffffffec
80004840:	e2832001 	add	r2, r3, #1
80004844:	e50b2014 	str	r2, [fp, #-20]	; 0xffffffec
80004848:	e24b200c 	sub	r2, fp, #12
8000484c:	e0823003 	add	r3, r2, r3
80004850:	e55b2021 	ldrb	r2, [fp, #-33]	; 0xffffffdf
80004854:	e543202c 	strb	r2, [r3, #-44]	; 0xffffffd4
80004858:	e51b3018 	ldr	r3, [fp, #-24]	; 0xffffffe8
8000485c:	e2433001 	sub	r3, r3, #1
80004860:	e50b3018 	str	r3, [fp, #-24]	; 0xffffffe8
80004864:	e51b3018 	ldr	r3, [fp, #-24]	; 0xffffffe8
80004868:	e3530000 	cmp	r3, #0
8000486c:	1afffff2 	bne	0x8000483c
80004870:	e51b3020 	ldr	r3, [fp, #-32]	; 0xffffffe0
80004874:	e3530000 	cmp	r3, #0
80004878:	0a00001f 	beq	0x800048fc
8000487c:	e51b3014 	ldr	r3, [fp, #-20]	; 0xffffffec
80004880:	e2832001 	add	r2, r3, #1
80004884:	e50b2014 	str	r2, [fp, #-20]	; 0xffffffec
80004888:	e24b200c 	sub	r2, fp, #12
8000488c:	e0823003 	add	r3, r2, r3
80004890:	e3a0202d 	mov	r2, #45	; 0x2d
80004894:	e543202c 	strb	r2, [r3, #-44]	; 0xffffffd4
80004898:	ea000017 	b	0x800048fc
8000489c:	e51b5014 	ldr	r5, [fp, #-20]	; 0xffffffec
800048a0:	e2853001 	add	r3, r5, #1
800048a4:	e50b3014 	str	r3, [fp, #-20]	; 0xffffffec
800048a8:	e3064030 	movw	r4, #24624	; 0x6030
800048ac:	e3484000 	movt	r4, #32768	; 0x8000
800048b0:	e51b3040 	ldr	r3, [fp, #-64]	; 0xffffffc0
800048b4:	e51b1010 	ldr	r1, [fp, #-16]
800048b8:	e1a00003 	mov	r0, r3
800048bc:	eb0003d0 	bl	0x80005804
800048c0:	e1a03000 	mov	r3, r0
800048c4:	e51b101c 	ldr	r1, [fp, #-28]	; 0xffffffe4
800048c8:	e1a00003 	mov	r0, r3
800048cc:	eb000409 	bl	0x800058f8
800048d0:	e1a03001 	mov	r3, r1
800048d4:	e0843003 	add	r3, r4, r3
800048d8:	e5d32000 	ldrb	r2, [r3]
800048dc:	e24b300c 	sub	r3, fp, #12
800048e0:	e0833005 	add	r3, r3, r5
800048e4:	e543202c 	strb	r2, [r3, #-44]	; 0xffffffd4
800048e8:	e51b101c 	ldr	r1, [fp, #-28]	; 0xffffffe4
800048ec:	e51b0010 	ldr	r0, [fp, #-16]
800048f0:	eb0003c3 	bl	0x80005804
800048f4:	e1a03000 	mov	r3, r0
800048f8:	e50b3010 	str	r3, [fp, #-16]
800048fc:	e51b3010 	ldr	r3, [fp, #-16]
80004900:	e3530000 	cmp	r3, #0
80004904:	1affffe4 	bne	0x8000489c
80004908:	e24b3038 	sub	r3, fp, #56	; 0x38
8000490c:	e51b1014 	ldr	r1, [fp, #-20]	; 0xffffffec
80004910:	e1a00003 	mov	r0, r3
80004914:	ebfffe72 	bl	0x800042e4
80004918:	ea00000a 	b	0x80004948
8000491c:	e59b3004 	ldr	r3, [fp, #4]
80004920:	e2433001 	sub	r3, r3, #1
80004924:	e3a01001 	mov	r1, #1
80004928:	e1a00003 	mov	r0, r3
8000492c:	ebfffe6c 	bl	0x800042e4
80004930:	ea000004 	b	0x80004948
80004934:	e3a01005 	mov	r1, #5
80004938:	e306004c 	movw	r0, #24652	; 0x604c
8000493c:	e3480000 	movt	r0, #32768	; 0x8000
80004940:	ebfffe67 	bl	0x800042e4
80004944:	e320f000 	nop	{0}
80004948:	e59b3004 	ldr	r3, [fp, #4]
8000494c:	e5d33000 	ldrb	r3, [r3]
80004950:	e3530000 	cmp	r3, #0
80004954:	1afffe8a 	bne	0x80004384
80004958:	e320f000 	nop	{0}
8000495c:	e24bd00c 	sub	sp, fp, #12
80004960:	e8bd4830 	pop	{r4, r5, fp, lr}
80004964:	e28dd010 	add	sp, sp, #16
80004968:	e12fff1e 	bx	lr
8000496c:	e92d4800 	push	{fp, lr}
80004970:	e28db004 	add	fp, sp, #4
80004974:	e24dd078 	sub	sp, sp, #120	; 0x78
80004978:	e50b0078 	str	r0, [fp, #-120]	; 0xffffff88
8000497c:	e50b107c 	str	r1, [fp, #-124]	; 0xffffff84
80004980:	e3a03050 	mov	r3, #80	; 0x50
80004984:	e50b300c 	str	r3, [fp, #-12]
80004988:	e3a03000 	mov	r3, #0
8000498c:	e50b3010 	str	r3, [fp, #-16]
80004990:	e3a03001 	mov	r3, #1
80004994:	e50b3014 	str	r3, [fp, #-20]	; 0xffffffec
80004998:	e3a03000 	mov	r3, #0
8000499c:	e50b3018 	str	r3, [fp, #-24]	; 0xffffffe8
800049a0:	ea000208 	b	0x800051c8
800049a4:	e51b3078 	ldr	r3, [fp, #-120]	; 0xffffff88
800049a8:	e2832001 	add	r2, r3, #1
800049ac:	e50b2078 	str	r2, [fp, #-120]	; 0xffffff88
800049b0:	e5d33000 	ldrb	r3, [r3]
800049b4:	e3530025 	cmp	r3, #37	; 0x25
800049b8:	1a000202 	bne	0x800051c8
800049bc:	e51b3018 	ldr	r3, [fp, #-24]	; 0xffffffe8
800049c0:	e3530000 	cmp	r3, #0
800049c4:	ba0001ff 	blt	0x800051c8
800049c8:	e51b3078 	ldr	r3, [fp, #-120]	; 0xffffff88
800049cc:	e2832001 	add	r2, r3, #1
800049d0:	e50b2078 	str	r2, [fp, #-120]	; 0xffffff88
800049d4:	e5d33000 	ldrb	r3, [r3]
800049d8:	e2433058 	sub	r3, r3, #88	; 0x58
800049dc:	e3530020 	cmp	r3, #32
800049e0:	979ff103 	ldrls	pc, [pc, r3, lsl #2]
800049e4:	ea0001f0 	b	0x800051ac
800049e8:	80004cfc 	strdhi	r4, [r0], -ip
800049ec:	800051ac 	andhi	r5, r0, ip, lsr #3
800049f0:	800051ac 	andhi	r5, r0, ip, lsr #3
800049f4:	800051ac 	andhi	r5, r0, ip, lsr #3
800049f8:	800051ac 	andhi	r5, r0, ip, lsr #3
800049fc:	800051ac 	andhi	r5, r0, ip, lsr #3
80004a00:	800051ac 	andhi	r5, r0, ip, lsr #3
80004a04:	800051ac 	andhi	r5, r0, ip, lsr #3
80004a08:	800051ac 	andhi	r5, r0, ip, lsr #3
80004a0c:	800051ac 	andhi	r5, r0, ip, lsr #3
80004a10:	800051ac 	andhi	r5, r0, ip, lsr #3
80004a14:	80004a6c 	andhi	r4, r0, ip, ror #20
80004a18:	80004b20 	andhi	r4, r0, r0, lsr #22
80004a1c:	800051ac 	andhi	r5, r0, ip, lsr #3
80004a20:	800051ac 	andhi	r5, r0, ip, lsr #3
80004a24:	800051ac 	andhi	r5, r0, ip, lsr #3
80004a28:	800051ac 	andhi	r5, r0, ip, lsr #3
80004a2c:	800051ac 	andhi	r5, r0, ip, lsr #3
80004a30:	800051ac 	andhi	r5, r0, ip, lsr #3
80004a34:	800051ac 	andhi	r5, r0, ip, lsr #3
80004a38:	800051ac 	andhi	r5, r0, ip, lsr #3
80004a3c:	800051ac 	andhi	r5, r0, ip, lsr #3
80004a40:	800051ac 	andhi	r5, r0, ip, lsr #3
80004a44:	800051ac 	andhi	r5, r0, ip, lsr #3
80004a48:	80004cfc 	strdhi	r4, [r0], -ip
80004a4c:	800051ac 	andhi	r5, r0, ip, lsr #3
80004a50:	800051ac 	andhi	r5, r0, ip, lsr #3
80004a54:	80004ed4 	ldrdhi	r4, [r0], -r4	; <UNPREDICTABLE>
80004a58:	800051ac 	andhi	r5, r0, ip, lsr #3
80004a5c:	80005024 	andhi	r5, r0, r4, lsr #32
80004a60:	800051ac 	andhi	r5, r0, ip, lsr #3
80004a64:	800051ac 	andhi	r5, r0, ip, lsr #3
80004a68:	80004cfc 	strdhi	r4, [r0], -ip
80004a6c:	e51b307c 	ldr	r3, [fp, #-124]	; 0xffffff84
80004a70:	e2832004 	add	r2, r3, #4
80004a74:	e50b207c 	str	r2, [fp, #-124]	; 0xffffff84
80004a78:	e5933000 	ldr	r3, [r3]
80004a7c:	e50b301c 	str	r3, [fp, #-28]	; 0xffffffe4
80004a80:	ebfffe11 	bl	0x800042cc
80004a84:	e1a03000 	mov	r3, r0
80004a88:	e54b3005 	strb	r3, [fp, #-5]
80004a8c:	e55b3005 	ldrb	r3, [fp, #-5]
80004a90:	e1a00003 	mov	r0, r3
80004a94:	ebfffe01 	bl	0x800042a0
80004a98:	e51b301c 	ldr	r3, [fp, #-28]	; 0xffffffe4
80004a9c:	e55b2005 	ldrb	r2, [fp, #-5]
80004aa0:	e5c32000 	strb	r2, [r3]
80004aa4:	e51b3018 	ldr	r3, [fp, #-24]	; 0xffffffe8
80004aa8:	e2833001 	add	r3, r3, #1
80004aac:	e50b3018 	str	r3, [fp, #-24]	; 0xffffffe8
80004ab0:	ea000002 	b	0x80004ac0
80004ab4:	ebfffe04 	bl	0x800042cc
80004ab8:	e1a03000 	mov	r3, r0
80004abc:	e54b3005 	strb	r3, [fp, #-5]
80004ac0:	e55b3005 	ldrb	r3, [fp, #-5]
80004ac4:	e353000a 	cmp	r3, #10
80004ac8:	0a000005 	beq	0x80004ae4
80004acc:	e55b3005 	ldrb	r3, [fp, #-5]
80004ad0:	e353000d 	cmp	r3, #13
80004ad4:	0a000002 	beq	0x80004ae4
80004ad8:	e55b3005 	ldrb	r3, [fp, #-5]
80004adc:	e3530020 	cmp	r3, #32
80004ae0:	1afffff3 	bne	0x80004ab4
80004ae4:	e55b3005 	ldrb	r3, [fp, #-5]
80004ae8:	e353000a 	cmp	r3, #10
80004aec:	0a000002 	beq	0x80004afc
80004af0:	e55b3005 	ldrb	r3, [fp, #-5]
80004af4:	e353000d 	cmp	r3, #13
80004af8:	1a000004 	bne	0x80004b10
80004afc:	e3a0000d 	mov	r0, #13
80004b00:	ebfffde6 	bl	0x800042a0
80004b04:	e3a0000a 	mov	r0, #10
80004b08:	ebfffde4 	bl	0x800042a0
80004b0c:	ea000002 	b	0x80004b1c
80004b10:	e55b3005 	ldrb	r3, [fp, #-5]
80004b14:	e1a00003 	mov	r0, r3
80004b18:	ebfffde0 	bl	0x800042a0
80004b1c:	ea0001a9 	b	0x800051c8
80004b20:	e51b307c 	ldr	r3, [fp, #-124]	; 0xffffff84
80004b24:	e2832004 	add	r2, r3, #4
80004b28:	e50b207c 	str	r2, [fp, #-124]	; 0xffffff84
80004b2c:	e5933000 	ldr	r3, [r3]
80004b30:	e50b3020 	str	r3, [fp, #-32]	; 0xffffffe0
80004b34:	e51b3020 	ldr	r3, [fp, #-32]	; 0xffffffe0
80004b38:	e3a02000 	mov	r2, #0
80004b3c:	e5832000 	str	r2, [r3]
80004b40:	e51b3018 	ldr	r3, [fp, #-24]	; 0xffffffe8
80004b44:	e2833001 	add	r3, r3, #1
80004b48:	e50b3018 	str	r3, [fp, #-24]	; 0xffffffe8
80004b4c:	ebfffdde 	bl	0x800042cc
80004b50:	e1a03000 	mov	r3, r0
80004b54:	e54b3005 	strb	r3, [fp, #-5]
80004b58:	ea000005 	b	0x80004b74
80004b5c:	e55b3005 	ldrb	r3, [fp, #-5]
80004b60:	e1a00003 	mov	r0, r3
80004b64:	ebfffdcd 	bl	0x800042a0
80004b68:	ebfffdd7 	bl	0x800042cc
80004b6c:	e1a03000 	mov	r3, r0
80004b70:	e54b3005 	strb	r3, [fp, #-5]
80004b74:	e55b3005 	ldrb	r3, [fp, #-5]
80004b78:	e353000d 	cmp	r3, #13
80004b7c:	0afffff6 	beq	0x80004b5c
80004b80:	e55b3005 	ldrb	r3, [fp, #-5]
80004b84:	e3530020 	cmp	r3, #32
80004b88:	0afffff3 	beq	0x80004b5c
80004b8c:	e55b3005 	ldrb	r3, [fp, #-5]
80004b90:	e3530009 	cmp	r3, #9
80004b94:	0afffff0 	beq	0x80004b5c
80004b98:	e55b3005 	ldrb	r3, [fp, #-5]
80004b9c:	e3530008 	cmp	r3, #8
80004ba0:	0affffed 	beq	0x80004b5c
80004ba4:	e55b2005 	ldrb	r2, [fp, #-5]
80004ba8:	e24b3074 	sub	r3, fp, #116	; 0x74
80004bac:	e1a01002 	mov	r1, r2
80004bb0:	e1a00003 	mov	r0, r3
80004bb4:	ebfffba1 	bl	0x80003a40
80004bb8:	e24b2074 	sub	r2, fp, #116	; 0x74
80004bbc:	e51b3010 	ldr	r3, [fp, #-16]
80004bc0:	e0823003 	add	r3, r2, r3
80004bc4:	e5d33000 	ldrb	r3, [r3]
80004bc8:	e54b3005 	strb	r3, [fp, #-5]
80004bcc:	e55b3005 	ldrb	r3, [fp, #-5]
80004bd0:	e353002d 	cmp	r3, #45	; 0x2d
80004bd4:	1a000028 	bne	0x80004c7c
80004bd8:	e3e03000 	mvn	r3, #0
80004bdc:	e50b3014 	str	r3, [fp, #-20]	; 0xffffffec
80004be0:	e51b3010 	ldr	r3, [fp, #-16]
80004be4:	e2833001 	add	r3, r3, #1
80004be8:	e50b3010 	str	r3, [fp, #-16]
80004bec:	e24b2074 	sub	r2, fp, #116	; 0x74
80004bf0:	e51b3010 	ldr	r3, [fp, #-16]
80004bf4:	e0823003 	add	r3, r2, r3
80004bf8:	e5d33000 	ldrb	r3, [r3]
80004bfc:	e54b3005 	strb	r3, [fp, #-5]
80004c00:	ea00001d 	b	0x80004c7c
80004c04:	e55b3005 	ldrb	r3, [fp, #-5]
80004c08:	e3a0100a 	mov	r1, #10
80004c0c:	e1a00003 	mov	r0, r3
80004c10:	ebffed43 	bl	0x80000124
80004c14:	e1a03000 	mov	r3, r0
80004c18:	e54b3005 	strb	r3, [fp, #-5]
80004c1c:	e55b3005 	ldrb	r3, [fp, #-5]
80004c20:	e35300ff 	cmp	r3, #255	; 0xff
80004c24:	1a000002 	bne	0x80004c34
80004c28:	e3e03000 	mvn	r3, #0
80004c2c:	e50b3018 	str	r3, [fp, #-24]	; 0xffffffe8
80004c30:	ea00001a 	b	0x80004ca0
80004c34:	e51b3020 	ldr	r3, [fp, #-32]	; 0xffffffe0
80004c38:	e5933000 	ldr	r3, [r3]
80004c3c:	e1a02003 	mov	r2, r3
80004c40:	e3a0300a 	mov	r3, #10
80004c44:	e0020293 	mul	r2, r3, r2
80004c48:	e55b3005 	ldrb	r3, [fp, #-5]
80004c4c:	e0823003 	add	r3, r2, r3
80004c50:	e1a02003 	mov	r2, r3
80004c54:	e51b3020 	ldr	r3, [fp, #-32]	; 0xffffffe0
80004c58:	e5832000 	str	r2, [r3]
80004c5c:	e51b3010 	ldr	r3, [fp, #-16]
80004c60:	e2833001 	add	r3, r3, #1
80004c64:	e50b3010 	str	r3, [fp, #-16]
80004c68:	e24b2074 	sub	r2, fp, #116	; 0x74
80004c6c:	e51b3010 	ldr	r3, [fp, #-16]
80004c70:	e0823003 	add	r3, r2, r3
80004c74:	e5d33000 	ldrb	r3, [r3]
80004c78:	e54b3005 	strb	r3, [fp, #-5]
80004c7c:	e55b3005 	ldrb	r3, [fp, #-5]
80004c80:	e353000a 	cmp	r3, #10
80004c84:	0a000005 	beq	0x80004ca0
80004c88:	e55b3005 	ldrb	r3, [fp, #-5]
80004c8c:	e353000d 	cmp	r3, #13
80004c90:	0a000002 	beq	0x80004ca0
80004c94:	e55b3005 	ldrb	r3, [fp, #-5]
80004c98:	e3530020 	cmp	r3, #32
80004c9c:	1affffd8 	bne	0x80004c04
80004ca0:	e51b3020 	ldr	r3, [fp, #-32]	; 0xffffffe0
80004ca4:	e5933000 	ldr	r3, [r3]
80004ca8:	e51b2014 	ldr	r2, [fp, #-20]	; 0xffffffec
80004cac:	e0020392 	mul	r2, r2, r3
80004cb0:	e51b3020 	ldr	r3, [fp, #-32]	; 0xffffffe0
80004cb4:	e5832000 	str	r2, [r3]
80004cb8:	e3a03000 	mov	r3, #0
80004cbc:	e50b3010 	str	r3, [fp, #-16]
80004cc0:	e55b3005 	ldrb	r3, [fp, #-5]
80004cc4:	e353000a 	cmp	r3, #10
80004cc8:	0a000002 	beq	0x80004cd8
80004ccc:	e55b3005 	ldrb	r3, [fp, #-5]
80004cd0:	e353000d 	cmp	r3, #13
80004cd4:	1a000004 	bne	0x80004cec
80004cd8:	e3a0000d 	mov	r0, #13
80004cdc:	ebfffd6f 	bl	0x800042a0
80004ce0:	e3a0000a 	mov	r0, #10
80004ce4:	ebfffd6d 	bl	0x800042a0
80004ce8:	ea000002 	b	0x80004cf8
80004cec:	e55b3005 	ldrb	r3, [fp, #-5]
80004cf0:	e1a00003 	mov	r0, r3
80004cf4:	ebfffd69 	bl	0x800042a0
80004cf8:	ea000132 	b	0x800051c8
80004cfc:	e51b307c 	ldr	r3, [fp, #-124]	; 0xffffff84
80004d00:	e2832004 	add	r2, r3, #4
80004d04:	e50b207c 	str	r2, [fp, #-124]	; 0xffffff84
80004d08:	e5933000 	ldr	r3, [r3]
80004d0c:	e50b3024 	str	r3, [fp, #-36]	; 0xffffffdc
80004d10:	e51b3024 	ldr	r3, [fp, #-36]	; 0xffffffdc
80004d14:	e3a02000 	mov	r2, #0
80004d18:	e5832000 	str	r2, [r3]
80004d1c:	e51b3018 	ldr	r3, [fp, #-24]	; 0xffffffe8
80004d20:	e2833001 	add	r3, r3, #1
80004d24:	e50b3018 	str	r3, [fp, #-24]	; 0xffffffe8
80004d28:	ebfffd67 	bl	0x800042cc
80004d2c:	e1a03000 	mov	r3, r0
80004d30:	e54b3005 	strb	r3, [fp, #-5]
80004d34:	ea000005 	b	0x80004d50
80004d38:	e55b3005 	ldrb	r3, [fp, #-5]
80004d3c:	e1a00003 	mov	r0, r3
80004d40:	ebfffd56 	bl	0x800042a0
80004d44:	ebfffd60 	bl	0x800042cc
80004d48:	e1a03000 	mov	r3, r0
80004d4c:	e54b3005 	strb	r3, [fp, #-5]
80004d50:	e55b3005 	ldrb	r3, [fp, #-5]
80004d54:	e353000d 	cmp	r3, #13
80004d58:	0afffff6 	beq	0x80004d38
80004d5c:	e55b3005 	ldrb	r3, [fp, #-5]
80004d60:	e3530020 	cmp	r3, #32
80004d64:	0afffff3 	beq	0x80004d38
80004d68:	e55b3005 	ldrb	r3, [fp, #-5]
80004d6c:	e3530009 	cmp	r3, #9
80004d70:	0afffff0 	beq	0x80004d38
80004d74:	e55b3005 	ldrb	r3, [fp, #-5]
80004d78:	e3530008 	cmp	r3, #8
80004d7c:	0affffed 	beq	0x80004d38
80004d80:	e55b2005 	ldrb	r2, [fp, #-5]
80004d84:	e24b3074 	sub	r3, fp, #116	; 0x74
80004d88:	e1a01002 	mov	r1, r2
80004d8c:	e1a00003 	mov	r0, r3
80004d90:	ebfffb2a 	bl	0x80003a40
80004d94:	e24b2074 	sub	r2, fp, #116	; 0x74
80004d98:	e51b3010 	ldr	r3, [fp, #-16]
80004d9c:	e0823003 	add	r3, r2, r3
80004da0:	e5d33000 	ldrb	r3, [r3]
80004da4:	e54b3005 	strb	r3, [fp, #-5]
80004da8:	ea00002f 	b	0x80004e6c
80004dac:	e51b3010 	ldr	r3, [fp, #-16]
80004db0:	e3530001 	cmp	r3, #1
80004db4:	8a000011 	bhi	0x80004e00
80004db8:	e55b3005 	ldrb	r3, [fp, #-5]
80004dbc:	e3530030 	cmp	r3, #48	; 0x30
80004dc0:	0a000005 	beq	0x80004ddc
80004dc4:	e55b3005 	ldrb	r3, [fp, #-5]
80004dc8:	e3530078 	cmp	r3, #120	; 0x78
80004dcc:	0a000002 	beq	0x80004ddc
80004dd0:	e55b3005 	ldrb	r3, [fp, #-5]
80004dd4:	e3530058 	cmp	r3, #88	; 0x58
80004dd8:	1a000008 	bne	0x80004e00
80004ddc:	e51b3010 	ldr	r3, [fp, #-16]
80004de0:	e2833001 	add	r3, r3, #1
80004de4:	e50b3010 	str	r3, [fp, #-16]
80004de8:	e24b2074 	sub	r2, fp, #116	; 0x74
80004dec:	e51b3010 	ldr	r3, [fp, #-16]
80004df0:	e0823003 	add	r3, r2, r3
80004df4:	e5d33000 	ldrb	r3, [r3]
80004df8:	e54b3005 	strb	r3, [fp, #-5]
80004dfc:	ea00001a 	b	0x80004e6c
80004e00:	e55b3005 	ldrb	r3, [fp, #-5]
80004e04:	e3a01010 	mov	r1, #16
80004e08:	e1a00003 	mov	r0, r3
80004e0c:	ebffecc4 	bl	0x80000124
80004e10:	e1a03000 	mov	r3, r0
80004e14:	e54b3005 	strb	r3, [fp, #-5]
80004e18:	e55b3005 	ldrb	r3, [fp, #-5]
80004e1c:	e35300ff 	cmp	r3, #255	; 0xff
80004e20:	1a000002 	bne	0x80004e30
80004e24:	e3e03000 	mvn	r3, #0
80004e28:	e50b3018 	str	r3, [fp, #-24]	; 0xffffffe8
80004e2c:	ea000017 	b	0x80004e90
80004e30:	e51b3024 	ldr	r3, [fp, #-36]	; 0xffffffdc
80004e34:	e5933000 	ldr	r3, [r3]
80004e38:	e1a02203 	lsl	r2, r3, #4
80004e3c:	e55b3005 	ldrb	r3, [fp, #-5]
80004e40:	e0822003 	add	r2, r2, r3
80004e44:	e51b3024 	ldr	r3, [fp, #-36]	; 0xffffffdc
80004e48:	e5832000 	str	r2, [r3]
80004e4c:	e51b3010 	ldr	r3, [fp, #-16]
80004e50:	e2833001 	add	r3, r3, #1
80004e54:	e50b3010 	str	r3, [fp, #-16]
80004e58:	e24b2074 	sub	r2, fp, #116	; 0x74
80004e5c:	e51b3010 	ldr	r3, [fp, #-16]
80004e60:	e0823003 	add	r3, r2, r3
80004e64:	e5d33000 	ldrb	r3, [r3]
80004e68:	e54b3005 	strb	r3, [fp, #-5]
80004e6c:	e55b3005 	ldrb	r3, [fp, #-5]
80004e70:	e353000a 	cmp	r3, #10
80004e74:	0a000005 	beq	0x80004e90
80004e78:	e55b3005 	ldrb	r3, [fp, #-5]
80004e7c:	e353000d 	cmp	r3, #13
80004e80:	0a000002 	beq	0x80004e90
80004e84:	e55b3005 	ldrb	r3, [fp, #-5]
80004e88:	e3530020 	cmp	r3, #32
80004e8c:	1affffc6 	bne	0x80004dac
80004e90:	e3a03000 	mov	r3, #0
80004e94:	e50b3010 	str	r3, [fp, #-16]
80004e98:	e55b3005 	ldrb	r3, [fp, #-5]
80004e9c:	e353000a 	cmp	r3, #10
80004ea0:	0a000002 	beq	0x80004eb0
80004ea4:	e55b3005 	ldrb	r3, [fp, #-5]
80004ea8:	e353000d 	cmp	r3, #13
80004eac:	1a000004 	bne	0x80004ec4
80004eb0:	e3a0000d 	mov	r0, #13
80004eb4:	ebfffcf9 	bl	0x800042a0
80004eb8:	e3a0000a 	mov	r0, #10
80004ebc:	ebfffcf7 	bl	0x800042a0
80004ec0:	ea000002 	b	0x80004ed0
80004ec4:	e55b3005 	ldrb	r3, [fp, #-5]
80004ec8:	e1a00003 	mov	r0, r3
80004ecc:	ebfffcf3 	bl	0x800042a0
80004ed0:	ea0000bc 	b	0x800051c8
80004ed4:	e51b307c 	ldr	r3, [fp, #-124]	; 0xffffff84
80004ed8:	e2832004 	add	r2, r3, #4
80004edc:	e50b207c 	str	r2, [fp, #-124]	; 0xffffff84
80004ee0:	e5933000 	ldr	r3, [r3]
80004ee4:	e50b301c 	str	r3, [fp, #-28]	; 0xffffffe4
80004ee8:	e51b3018 	ldr	r3, [fp, #-24]	; 0xffffffe8
80004eec:	e2833001 	add	r3, r3, #1
80004ef0:	e50b3018 	str	r3, [fp, #-24]	; 0xffffffe8
80004ef4:	ebfffcf4 	bl	0x800042cc
80004ef8:	e1a03000 	mov	r3, r0
80004efc:	e54b3005 	strb	r3, [fp, #-5]
80004f00:	ea000005 	b	0x80004f1c
80004f04:	e55b3005 	ldrb	r3, [fp, #-5]
80004f08:	e1a00003 	mov	r0, r3
80004f0c:	ebfffce3 	bl	0x800042a0
80004f10:	ebfffced 	bl	0x800042cc
80004f14:	e1a03000 	mov	r3, r0
80004f18:	e54b3005 	strb	r3, [fp, #-5]
80004f1c:	e55b3005 	ldrb	r3, [fp, #-5]
80004f20:	e353000d 	cmp	r3, #13
80004f24:	0afffff6 	beq	0x80004f04
80004f28:	e55b3005 	ldrb	r3, [fp, #-5]
80004f2c:	e3530020 	cmp	r3, #32
80004f30:	0afffff3 	beq	0x80004f04
80004f34:	e55b3005 	ldrb	r3, [fp, #-5]
80004f38:	e3530009 	cmp	r3, #9
80004f3c:	0afffff0 	beq	0x80004f04
80004f40:	e55b3005 	ldrb	r3, [fp, #-5]
80004f44:	e3530008 	cmp	r3, #8
80004f48:	0affffed 	beq	0x80004f04
80004f4c:	ea000014 	b	0x80004fa4
80004f50:	e55b3005 	ldrb	r3, [fp, #-5]
80004f54:	e1a00003 	mov	r0, r3
80004f58:	ebfffcd0 	bl	0x800042a0
80004f5c:	e55b3005 	ldrb	r3, [fp, #-5]
80004f60:	e3530008 	cmp	r3, #8
80004f64:	1a000006 	bne	0x80004f84
80004f68:	e51b301c 	ldr	r3, [fp, #-28]	; 0xffffffe4
80004f6c:	e2433001 	sub	r3, r3, #1
80004f70:	e50b301c 	str	r3, [fp, #-28]	; 0xffffffe4
80004f74:	e51b300c 	ldr	r3, [fp, #-12]
80004f78:	e2833001 	add	r3, r3, #1
80004f7c:	e50b300c 	str	r3, [fp, #-12]
80004f80:	ea000004 	b	0x80004f98
80004f84:	e51b301c 	ldr	r3, [fp, #-28]	; 0xffffffe4
80004f88:	e2832001 	add	r2, r3, #1
80004f8c:	e50b201c 	str	r2, [fp, #-28]	; 0xffffffe4
80004f90:	e55b2005 	ldrb	r2, [fp, #-5]
80004f94:	e5c32000 	strb	r2, [r3]
80004f98:	ebfffccb 	bl	0x800042cc
80004f9c:	e1a03000 	mov	r3, r0
80004fa0:	e54b3005 	strb	r3, [fp, #-5]
80004fa4:	e55b3005 	ldrb	r3, [fp, #-5]
80004fa8:	e353000a 	cmp	r3, #10
80004fac:	0a00000a 	beq	0x80004fdc
80004fb0:	e55b3005 	ldrb	r3, [fp, #-5]
80004fb4:	e353000d 	cmp	r3, #13
80004fb8:	0a000007 	beq	0x80004fdc
80004fbc:	e55b3005 	ldrb	r3, [fp, #-5]
80004fc0:	e3530020 	cmp	r3, #32
80004fc4:	0a000004 	beq	0x80004fdc
80004fc8:	e51b300c 	ldr	r3, [fp, #-12]
80004fcc:	e2432001 	sub	r2, r3, #1
80004fd0:	e50b200c 	str	r2, [fp, #-12]
80004fd4:	e3530000 	cmp	r3, #0
80004fd8:	1affffdc 	bne	0x80004f50
80004fdc:	e51b301c 	ldr	r3, [fp, #-28]	; 0xffffffe4
80004fe0:	e3a02000 	mov	r2, #0
80004fe4:	e5c32000 	strb	r2, [r3]
80004fe8:	e55b3005 	ldrb	r3, [fp, #-5]
80004fec:	e353000a 	cmp	r3, #10
80004ff0:	0a000002 	beq	0x80005000
80004ff4:	e55b3005 	ldrb	r3, [fp, #-5]
80004ff8:	e353000d 	cmp	r3, #13
80004ffc:	1a000004 	bne	0x80005014
80005000:	e3a0000d 	mov	r0, #13
80005004:	ebfffca5 	bl	0x800042a0
80005008:	e3a0000a 	mov	r0, #10
8000500c:	ebfffca3 	bl	0x800042a0
80005010:	ea000002 	b	0x80005020
80005014:	e55b3005 	ldrb	r3, [fp, #-5]
80005018:	e1a00003 	mov	r0, r3
8000501c:	ebfffc9f 	bl	0x800042a0
80005020:	ea000068 	b	0x800051c8
80005024:	e51b307c 	ldr	r3, [fp, #-124]	; 0xffffff84
80005028:	e2832004 	add	r2, r3, #4
8000502c:	e50b207c 	str	r2, [fp, #-124]	; 0xffffff84
80005030:	e5933000 	ldr	r3, [r3]
80005034:	e50b3024 	str	r3, [fp, #-36]	; 0xffffffdc
80005038:	e51b3024 	ldr	r3, [fp, #-36]	; 0xffffffdc
8000503c:	e3a02000 	mov	r2, #0
80005040:	e5832000 	str	r2, [r3]
80005044:	e51b3018 	ldr	r3, [fp, #-24]	; 0xffffffe8
80005048:	e2833001 	add	r3, r3, #1
8000504c:	e50b3018 	str	r3, [fp, #-24]	; 0xffffffe8
80005050:	ebfffc9d 	bl	0x800042cc
80005054:	e1a03000 	mov	r3, r0
80005058:	e54b3005 	strb	r3, [fp, #-5]
8000505c:	ea000005 	b	0x80005078
80005060:	e55b3005 	ldrb	r3, [fp, #-5]
80005064:	e1a00003 	mov	r0, r3
80005068:	ebfffc8c 	bl	0x800042a0
8000506c:	ebfffc96 	bl	0x800042cc
80005070:	e1a03000 	mov	r3, r0
80005074:	e54b3005 	strb	r3, [fp, #-5]
80005078:	e55b3005 	ldrb	r3, [fp, #-5]
8000507c:	e353000d 	cmp	r3, #13
80005080:	0afffff6 	beq	0x80005060
80005084:	e55b3005 	ldrb	r3, [fp, #-5]
80005088:	e3530020 	cmp	r3, #32
8000508c:	0afffff3 	beq	0x80005060
80005090:	e55b3005 	ldrb	r3, [fp, #-5]
80005094:	e3530009 	cmp	r3, #9
80005098:	0afffff0 	beq	0x80005060
8000509c:	e55b3005 	ldrb	r3, [fp, #-5]
800050a0:	e3530008 	cmp	r3, #8
800050a4:	0affffed 	beq	0x80005060
800050a8:	e55b2005 	ldrb	r2, [fp, #-5]
800050ac:	e24b3074 	sub	r3, fp, #116	; 0x74
800050b0:	e1a01002 	mov	r1, r2
800050b4:	e1a00003 	mov	r0, r3
800050b8:	ebfffa60 	bl	0x80003a40
800050bc:	e24b2074 	sub	r2, fp, #116	; 0x74
800050c0:	e51b3010 	ldr	r3, [fp, #-16]
800050c4:	e0823003 	add	r3, r2, r3
800050c8:	e5d33000 	ldrb	r3, [r3]
800050cc:	e54b3005 	strb	r3, [fp, #-5]
800050d0:	ea00001b 	b	0x80005144
800050d4:	e55b3005 	ldrb	r3, [fp, #-5]
800050d8:	e3a0100a 	mov	r1, #10
800050dc:	e1a00003 	mov	r0, r3
800050e0:	ebffec0f 	bl	0x80000124
800050e4:	e1a03000 	mov	r3, r0
800050e8:	e54b3005 	strb	r3, [fp, #-5]
800050ec:	e55b3005 	ldrb	r3, [fp, #-5]
800050f0:	e35300ff 	cmp	r3, #255	; 0xff
800050f4:	1a000002 	bne	0x80005104
800050f8:	e3e03000 	mvn	r3, #0
800050fc:	e50b3018 	str	r3, [fp, #-24]	; 0xffffffe8
80005100:	ea000018 	b	0x80005168
80005104:	e51b3024 	ldr	r3, [fp, #-36]	; 0xffffffdc
80005108:	e5933000 	ldr	r3, [r3]
8000510c:	e3a0200a 	mov	r2, #10
80005110:	e0020392 	mul	r2, r2, r3
80005114:	e55b3005 	ldrb	r3, [fp, #-5]
80005118:	e0822003 	add	r2, r2, r3
8000511c:	e51b3024 	ldr	r3, [fp, #-36]	; 0xffffffdc
80005120:	e5832000 	str	r2, [r3]
80005124:	e51b3010 	ldr	r3, [fp, #-16]
80005128:	e2833001 	add	r3, r3, #1
8000512c:	e50b3010 	str	r3, [fp, #-16]
80005130:	e24b2074 	sub	r2, fp, #116	; 0x74
80005134:	e51b3010 	ldr	r3, [fp, #-16]
80005138:	e0823003 	add	r3, r2, r3
8000513c:	e5d33000 	ldrb	r3, [r3]
80005140:	e54b3005 	strb	r3, [fp, #-5]
80005144:	e55b3005 	ldrb	r3, [fp, #-5]
80005148:	e353000a 	cmp	r3, #10
8000514c:	0a000005 	beq	0x80005168
80005150:	e55b3005 	ldrb	r3, [fp, #-5]
80005154:	e353000d 	cmp	r3, #13
80005158:	0a000002 	beq	0x80005168
8000515c:	e55b3005 	ldrb	r3, [fp, #-5]
80005160:	e3530020 	cmp	r3, #32
80005164:	1affffda 	bne	0x800050d4
80005168:	e3a03000 	mov	r3, #0
8000516c:	e50b3010 	str	r3, [fp, #-16]
80005170:	e55b3005 	ldrb	r3, [fp, #-5]
80005174:	e353000a 	cmp	r3, #10
80005178:	0a000002 	beq	0x80005188
8000517c:	e55b3005 	ldrb	r3, [fp, #-5]
80005180:	e353000d 	cmp	r3, #13
80005184:	1a000004 	bne	0x8000519c
80005188:	e3a0000d 	mov	r0, #13
8000518c:	ebfffc43 	bl	0x800042a0
80005190:	e3a0000a 	mov	r0, #10
80005194:	ebfffc41 	bl	0x800042a0
80005198:	ea000002 	b	0x800051a8
8000519c:	e55b3005 	ldrb	r3, [fp, #-5]
800051a0:	e1a00003 	mov	r0, r3
800051a4:	ebfffc3d 	bl	0x800042a0
800051a8:	ea000006 	b	0x800051c8
800051ac:	e3e01000 	mvn	r1, #0
800051b0:	e3060054 	movw	r0, #24660	; 0x6054
800051b4:	e3480000 	movt	r0, #32768	; 0x8000
800051b8:	ebfffa50 	bl	0x80003b00
800051bc:	e3e03000 	mvn	r3, #0
800051c0:	e50b3018 	str	r3, [fp, #-24]	; 0xffffffe8
800051c4:	e320f000 	nop	{0}
800051c8:	e51b3078 	ldr	r3, [fp, #-120]	; 0xffffff88
800051cc:	e5d33000 	ldrb	r3, [r3]
800051d0:	e3530000 	cmp	r3, #0
800051d4:	1afffdf2 	bne	0x800049a4
800051d8:	e51b3018 	ldr	r3, [fp, #-24]	; 0xffffffe8
800051dc:	e3530000 	cmp	r3, #0
800051e0:	1a000005 	bne	0x800051fc
800051e4:	e3e01000 	mvn	r1, #0
800051e8:	e3060078 	movw	r0, #24696	; 0x6078
800051ec:	e3480000 	movt	r0, #32768	; 0x8000
800051f0:	ebfffa42 	bl	0x80003b00
800051f4:	e3e03000 	mvn	r3, #0
800051f8:	e50b3018 	str	r3, [fp, #-24]	; 0xffffffe8
800051fc:	e51b3018 	ldr	r3, [fp, #-24]	; 0xffffffe8
80005200:	e1a00003 	mov	r0, r3
80005204:	e24bd004 	sub	sp, fp, #4
80005208:	e8bd8800 	pop	{fp, pc}
8000520c:	e92d4830 	push	{r4, r5, fp, lr}
80005210:	e28db00c 	add	fp, sp, #12
80005214:	e24dd038 	sub	sp, sp, #56	; 0x38
80005218:	e50b0040 	str	r0, [fp, #-64]	; 0xffffffc0
8000521c:	e50b1044 	str	r1, [fp, #-68]	; 0xffffffbc
80005220:	ea000170 	b	0x800057e8
80005224:	e3a03000 	mov	r3, #0
80005228:	e50b3010 	str	r3, [fp, #-16]
8000522c:	ea000002 	b	0x8000523c
80005230:	e51b3010 	ldr	r3, [fp, #-16]
80005234:	e2833001 	add	r3, r3, #1
80005238:	e50b3010 	str	r3, [fp, #-16]
8000523c:	e51b2040 	ldr	r2, [fp, #-64]	; 0xffffffc0
80005240:	e51b3010 	ldr	r3, [fp, #-16]
80005244:	e0823003 	add	r3, r2, r3
80005248:	e5d33000 	ldrb	r3, [r3]
8000524c:	e3530025 	cmp	r3, #37	; 0x25
80005250:	0a000005 	beq	0x8000526c
80005254:	e51b2040 	ldr	r2, [fp, #-64]	; 0xffffffc0
80005258:	e51b3010 	ldr	r3, [fp, #-16]
8000525c:	e0823003 	add	r3, r2, r3
80005260:	e5d33000 	ldrb	r3, [r3]
80005264:	e3530000 	cmp	r3, #0
80005268:	1afffff0 	bne	0x80005230
8000526c:	e51b1010 	ldr	r1, [fp, #-16]
80005270:	e51b0040 	ldr	r0, [fp, #-64]	; 0xffffffc0
80005274:	ebfffc1a 	bl	0x800042e4
80005278:	e51b2040 	ldr	r2, [fp, #-64]	; 0xffffffc0
8000527c:	e51b3010 	ldr	r3, [fp, #-16]
80005280:	e0823003 	add	r3, r2, r3
80005284:	e50b3040 	str	r3, [fp, #-64]	; 0xffffffc0
80005288:	e51b3040 	ldr	r3, [fp, #-64]	; 0xffffffc0
8000528c:	e5d33000 	ldrb	r3, [r3]
80005290:	e3530025 	cmp	r3, #37	; 0x25
80005294:	1a000153 	bne	0x800057e8
80005298:	e51b3040 	ldr	r3, [fp, #-64]	; 0xffffffc0
8000529c:	e2833001 	add	r3, r3, #1
800052a0:	e50b3040 	str	r3, [fp, #-64]	; 0xffffffc0
800052a4:	e3a03000 	mov	r3, #0
800052a8:	e50b3018 	str	r3, [fp, #-24]	; 0xffffffe8
800052ac:	e3a03020 	mov	r3, #32
800052b0:	e54b3021 	strb	r3, [fp, #-33]	; 0xffffffdf
800052b4:	e51b3040 	ldr	r3, [fp, #-64]	; 0xffffffc0
800052b8:	e2832001 	add	r2, r3, #1
800052bc:	e50b2040 	str	r2, [fp, #-64]	; 0xffffffc0
800052c0:	e5d33000 	ldrb	r3, [r3]
800052c4:	e2433025 	sub	r3, r3, #37	; 0x25
800052c8:	e3530053 	cmp	r3, #83	; 0x53
800052cc:	979ff103 	ldrls	pc, [pc, r3, lsl #2]
800052d0:	ea00013f 	b	0x800057d4
800052d4:	800057bc 			; <UNDEFINED> instruction: 0x800057bc
800052d8:	800057d4 	ldrdhi	r5, [r0], -r4
800052dc:	800057d4 	ldrdhi	r5, [r0], -r4
800052e0:	800057d4 	ldrdhi	r5, [r0], -r4
800052e4:	800057d4 	ldrdhi	r5, [r0], -r4
800052e8:	800057d4 	ldrdhi	r5, [r0], -r4
800052ec:	800057d4 	ldrdhi	r5, [r0], -r4
800052f0:	800057d4 	ldrdhi	r5, [r0], -r4
800052f4:	800057d4 	ldrdhi	r5, [r0], -r4
800052f8:	800057d4 	ldrdhi	r5, [r0], -r4
800052fc:	800057d4 	ldrdhi	r5, [r0], -r4
80005300:	80005424 	andhi	r5, r0, r4, lsr #8
80005304:	80005424 	andhi	r5, r0, r4, lsr #8
80005308:	80005424 	andhi	r5, r0, r4, lsr #8
8000530c:	80005424 	andhi	r5, r0, r4, lsr #8
80005310:	80005424 	andhi	r5, r0, r4, lsr #8
80005314:	80005424 	andhi	r5, r0, r4, lsr #8
80005318:	80005424 	andhi	r5, r0, r4, lsr #8
8000531c:	80005424 	andhi	r5, r0, r4, lsr #8
80005320:	80005424 	andhi	r5, r0, r4, lsr #8
80005324:	80005424 	andhi	r5, r0, r4, lsr #8
80005328:	800057d4 	ldrdhi	r5, [r0], -r4
8000532c:	800057d4 	ldrdhi	r5, [r0], -r4
80005330:	800057d4 	ldrdhi	r5, [r0], -r4
80005334:	800057d4 	ldrdhi	r5, [r0], -r4
80005338:	800057d4 	ldrdhi	r5, [r0], -r4
8000533c:	800057d4 	ldrdhi	r5, [r0], -r4
80005340:	800057d4 	ldrdhi	r5, [r0], -r4
80005344:	800057d4 	ldrdhi	r5, [r0], -r4
80005348:	800057d4 	ldrdhi	r5, [r0], -r4
8000534c:	800057d4 	ldrdhi	r5, [r0], -r4
80005350:	800057d4 	ldrdhi	r5, [r0], -r4
80005354:	800057d4 	ldrdhi	r5, [r0], -r4
80005358:	800057d4 	ldrdhi	r5, [r0], -r4
8000535c:	800057d4 	ldrdhi	r5, [r0], -r4
80005360:	800057d4 	ldrdhi	r5, [r0], -r4
80005364:	800057d4 	ldrdhi	r5, [r0], -r4
80005368:	800057d4 	ldrdhi	r5, [r0], -r4
8000536c:	800057d4 	ldrdhi	r5, [r0], -r4
80005370:	800057d4 	ldrdhi	r5, [r0], -r4
80005374:	800057d4 	ldrdhi	r5, [r0], -r4
80005378:	800057d4 	ldrdhi	r5, [r0], -r4
8000537c:	800057d4 	ldrdhi	r5, [r0], -r4
80005380:	800057d4 	ldrdhi	r5, [r0], -r4
80005384:	800057d4 	ldrdhi	r5, [r0], -r4
80005388:	800057d4 	ldrdhi	r5, [r0], -r4
8000538c:	800057d4 	ldrdhi	r5, [r0], -r4
80005390:	800057d4 	ldrdhi	r5, [r0], -r4
80005394:	800057d4 	ldrdhi	r5, [r0], -r4
80005398:	800057d4 	ldrdhi	r5, [r0], -r4
8000539c:	800057d4 	ldrdhi	r5, [r0], -r4
800053a0:	800055c8 	andhi	r5, r0, r8, asr #11
800053a4:	800057d4 	ldrdhi	r5, [r0], -r4
800053a8:	800057d4 	ldrdhi	r5, [r0], -r4
800053ac:	800057d4 	ldrdhi	r5, [r0], -r4
800053b0:	800057d4 	ldrdhi	r5, [r0], -r4
800053b4:	800057d4 	ldrdhi	r5, [r0], -r4
800053b8:	800057d4 	ldrdhi	r5, [r0], -r4
800053bc:	800057d4 	ldrdhi	r5, [r0], -r4
800053c0:	800057d4 	ldrdhi	r5, [r0], -r4
800053c4:	800057d4 	ldrdhi	r5, [r0], -r4
800053c8:	800057d4 	ldrdhi	r5, [r0], -r4
800053cc:	80005480 	andhi	r5, r0, r0, lsl #9
800053d0:	800054a8 	andhi	r5, r0, r8, lsr #9
800053d4:	800057d4 	ldrdhi	r5, [r0], -r4
800053d8:	800057d4 	ldrdhi	r5, [r0], -r4
800053dc:	800057d4 	ldrdhi	r5, [r0], -r4
800053e0:	800057d4 	ldrdhi	r5, [r0], -r4
800053e4:	800057d4 	ldrdhi	r5, [r0], -r4
800053e8:	800057d4 	ldrdhi	r5, [r0], -r4
800053ec:	800057d4 	ldrdhi	r5, [r0], -r4
800053f0:	800057d4 	ldrdhi	r5, [r0], -r4
800053f4:	800057d4 	ldrdhi	r5, [r0], -r4
800053f8:	800057d4 	ldrdhi	r5, [r0], -r4
800053fc:	800057d4 	ldrdhi	r5, [r0], -r4
80005400:	800055c8 	andhi	r5, r0, r8, asr #11
80005404:	800057d4 	ldrdhi	r5, [r0], -r4
80005408:	800057d4 	ldrdhi	r5, [r0], -r4
8000540c:	800054fc 	strdhi	r5, [r0], -ip
80005410:	800057d4 	ldrdhi	r5, [r0], -r4
80005414:	80005598 	mulhi	r0, r8, r5
80005418:	800057d4 	ldrdhi	r5, [r0], -r4
8000541c:	800057d4 	ldrdhi	r5, [r0], -r4
80005420:	800055c8 	andhi	r5, r0, r8, asr #11
80005424:	e51b3040 	ldr	r3, [fp, #-64]	; 0xffffffc0
80005428:	e2433001 	sub	r3, r3, #1
8000542c:	e5d33000 	ldrb	r3, [r3]
80005430:	e3530030 	cmp	r3, #48	; 0x30
80005434:	1a000004 	bne	0x8000544c
80005438:	e51b3018 	ldr	r3, [fp, #-24]	; 0xffffffe8
8000543c:	e3530000 	cmp	r3, #0
80005440:	1a000001 	bne	0x8000544c
80005444:	e3a03030 	mov	r3, #48	; 0x30
80005448:	e54b3021 	strb	r3, [fp, #-33]	; 0xffffffdf
8000544c:	e51b3018 	ldr	r3, [fp, #-24]	; 0xffffffe8
80005450:	e3a0200a 	mov	r2, #10
80005454:	e0030392 	mul	r3, r2, r3
80005458:	e50b3018 	str	r3, [fp, #-24]	; 0xffffffe8
8000545c:	e51b3040 	ldr	r3, [fp, #-64]	; 0xffffffc0
80005460:	e2433001 	sub	r3, r3, #1
80005464:	e5d33000 	ldrb	r3, [r3]
80005468:	e1a02003 	mov	r2, r3
8000546c:	e51b3018 	ldr	r3, [fp, #-24]	; 0xffffffe8
80005470:	e0823003 	add	r3, r2, r3
80005474:	e2433030 	sub	r3, r3, #48	; 0x30
80005478:	e50b3018 	str	r3, [fp, #-24]	; 0xffffffe8
8000547c:	eaffff8c 	b	0x800052b4
80005480:	e51b3044 	ldr	r3, [fp, #-68]	; 0xffffffbc
80005484:	e2832004 	add	r2, r3, #4
80005488:	e50b2044 	str	r2, [fp, #-68]	; 0xffffffbc
8000548c:	e5933000 	ldr	r3, [r3]
80005490:	e50b303c 	str	r3, [fp, #-60]	; 0xffffffc4
80005494:	e24b303c 	sub	r3, fp, #60	; 0x3c
80005498:	e3a01001 	mov	r1, #1
8000549c:	e1a00003 	mov	r0, r3
800054a0:	ebfffb8f 	bl	0x800042e4
800054a4:	ea0000cf 	b	0x800057e8
800054a8:	e51b3044 	ldr	r3, [fp, #-68]	; 0xffffffbc
800054ac:	e2832004 	add	r2, r3, #4
800054b0:	e50b2044 	str	r2, [fp, #-68]	; 0xffffffbc
800054b4:	e5933000 	ldr	r3, [r3]
800054b8:	e50b303c 	str	r3, [fp, #-60]	; 0xffffffc4
800054bc:	e3a03000 	mov	r3, #0
800054c0:	e50b3014 	str	r3, [fp, #-20]	; 0xffffffec
800054c4:	e51b303c 	ldr	r3, [fp, #-60]	; 0xffffffc4
800054c8:	e3530000 	cmp	r3, #0
800054cc:	aa000005 	bge	0x800054e8
800054d0:	e51b303c 	ldr	r3, [fp, #-60]	; 0xffffffc4
800054d4:	e2633000 	rsb	r3, r3, #0
800054d8:	e50b303c 	str	r3, [fp, #-60]	; 0xffffffc4
800054dc:	e3a03001 	mov	r3, #1
800054e0:	e50b3020 	str	r3, [fp, #-32]	; 0xffffffe0
800054e4:	ea000001 	b	0x800054f0
800054e8:	e3a03000 	mov	r3, #0
800054ec:	e50b3020 	str	r3, [fp, #-32]	; 0xffffffe0
800054f0:	e3a0300a 	mov	r3, #10
800054f4:	e50b301c 	str	r3, [fp, #-28]	; 0xffffffe4
800054f8:	ea00003d 	b	0x800055f4
800054fc:	e51b3044 	ldr	r3, [fp, #-68]	; 0xffffffbc
80005500:	e2832004 	add	r2, r3, #4
80005504:	e50b2044 	str	r2, [fp, #-68]	; 0xffffffbc
80005508:	e5933000 	ldr	r3, [r3]
8000550c:	e50b3028 	str	r3, [fp, #-40]	; 0xffffffd8
80005510:	e3a03000 	mov	r3, #0
80005514:	e50b3010 	str	r3, [fp, #-16]
80005518:	ea000002 	b	0x80005528
8000551c:	e51b3010 	ldr	r3, [fp, #-16]
80005520:	e2833001 	add	r3, r3, #1
80005524:	e50b3010 	str	r3, [fp, #-16]
80005528:	e51b2028 	ldr	r2, [fp, #-40]	; 0xffffffd8
8000552c:	e51b3010 	ldr	r3, [fp, #-16]
80005530:	e0823003 	add	r3, r2, r3
80005534:	e5d33000 	ldrb	r3, [r3]
80005538:	e3530000 	cmp	r3, #0
8000553c:	1afffff6 	bne	0x8000551c
80005540:	e51b1010 	ldr	r1, [fp, #-16]
80005544:	e51b0028 	ldr	r0, [fp, #-40]	; 0xffffffd8
80005548:	ebfffb65 	bl	0x800042e4
8000554c:	e51b2018 	ldr	r2, [fp, #-24]	; 0xffffffe8
80005550:	e51b3010 	ldr	r3, [fp, #-16]
80005554:	e1520003 	cmp	r2, r3
80005558:	9a0000a2 	bls	0x800057e8
8000555c:	e51b2018 	ldr	r2, [fp, #-24]	; 0xffffffe8
80005560:	e51b3010 	ldr	r3, [fp, #-16]
80005564:	e0423003 	sub	r3, r2, r3
80005568:	e50b3018 	str	r3, [fp, #-24]	; 0xffffffe8
8000556c:	ea000003 	b	0x80005580
80005570:	e3a01001 	mov	r1, #1
80005574:	e3060048 	movw	r0, #24648	; 0x6048
80005578:	e3480000 	movt	r0, #32768	; 0x8000
8000557c:	ebfffb58 	bl	0x800042e4
80005580:	e51b3018 	ldr	r3, [fp, #-24]	; 0xffffffe8
80005584:	e2432001 	sub	r2, r3, #1
80005588:	e50b2018 	str	r2, [fp, #-24]	; 0xffffffe8
8000558c:	e3530000 	cmp	r3, #0
80005590:	1afffff6 	bne	0x80005570
80005594:	ea000093 	b	0x800057e8
80005598:	e51b3044 	ldr	r3, [fp, #-68]	; 0xffffffbc
8000559c:	e2832004 	add	r2, r3, #4
800055a0:	e50b2044 	str	r2, [fp, #-68]	; 0xffffffbc
800055a4:	e5933000 	ldr	r3, [r3]
800055a8:	e50b303c 	str	r3, [fp, #-60]	; 0xffffffc4
800055ac:	e3a03000 	mov	r3, #0
800055b0:	e50b3014 	str	r3, [fp, #-20]	; 0xffffffec
800055b4:	e3a0300a 	mov	r3, #10
800055b8:	e50b301c 	str	r3, [fp, #-28]	; 0xffffffe4
800055bc:	e3a03000 	mov	r3, #0
800055c0:	e50b3020 	str	r3, [fp, #-32]	; 0xffffffe0
800055c4:	ea00000a 	b	0x800055f4
800055c8:	e51b3044 	ldr	r3, [fp, #-68]	; 0xffffffbc
800055cc:	e2832004 	add	r2, r3, #4
800055d0:	e50b2044 	str	r2, [fp, #-68]	; 0xffffffbc
800055d4:	e5933000 	ldr	r3, [r3]
800055d8:	e50b303c 	str	r3, [fp, #-60]	; 0xffffffc4
800055dc:	e3a03000 	mov	r3, #0
800055e0:	e50b3014 	str	r3, [fp, #-20]	; 0xffffffec
800055e4:	e3a03010 	mov	r3, #16
800055e8:	e50b301c 	str	r3, [fp, #-28]	; 0xffffffe4
800055ec:	e3a03000 	mov	r3, #0
800055f0:	e50b3020 	str	r3, [fp, #-32]	; 0xffffffe0
800055f4:	e3a03001 	mov	r3, #1
800055f8:	e50b3010 	str	r3, [fp, #-16]
800055fc:	ea000006 	b	0x8000561c
80005600:	e51b3010 	ldr	r3, [fp, #-16]
80005604:	e51b201c 	ldr	r2, [fp, #-28]	; 0xffffffe4
80005608:	e0030392 	mul	r3, r2, r3
8000560c:	e50b3010 	str	r3, [fp, #-16]
80005610:	e51b3018 	ldr	r3, [fp, #-24]	; 0xffffffe8
80005614:	e2433001 	sub	r3, r3, #1
80005618:	e50b3018 	str	r3, [fp, #-24]	; 0xffffffe8
8000561c:	e51b3010 	ldr	r3, [fp, #-16]
80005620:	e51b201c 	ldr	r2, [fp, #-28]	; 0xffffffe4
80005624:	e0030392 	mul	r3, r2, r3
80005628:	e51b203c 	ldr	r2, [fp, #-60]	; 0xffffffc4
8000562c:	e1530002 	cmp	r3, r2
80005630:	8a00000a 	bhi	0x80005660
80005634:	e51b3010 	ldr	r3, [fp, #-16]
80005638:	e51b201c 	ldr	r2, [fp, #-28]	; 0xffffffe4
8000563c:	e0030392 	mul	r3, r2, r3
80005640:	e51b101c 	ldr	r1, [fp, #-28]	; 0xffffffe4
80005644:	e1a00003 	mov	r0, r3
80005648:	eb00006d 	bl	0x80005804
8000564c:	e1a03000 	mov	r3, r0
80005650:	e1a02003 	mov	r2, r3
80005654:	e51b3010 	ldr	r3, [fp, #-16]
80005658:	e1520003 	cmp	r2, r3
8000565c:	0affffe7 	beq	0x80005600
80005660:	e51b3020 	ldr	r3, [fp, #-32]	; 0xffffffe0
80005664:	e3530000 	cmp	r3, #0
80005668:	0a000002 	beq	0x80005678
8000566c:	e51b3018 	ldr	r3, [fp, #-24]	; 0xffffffe8
80005670:	e2433001 	sub	r3, r3, #1
80005674:	e50b3018 	str	r3, [fp, #-24]	; 0xffffffe8
80005678:	e51b3020 	ldr	r3, [fp, #-32]	; 0xffffffe0
8000567c:	e3530000 	cmp	r3, #0
80005680:	0a00000b 	beq	0x800056b4
80005684:	e55b3021 	ldrb	r3, [fp, #-33]	; 0xffffffdf
80005688:	e3530030 	cmp	r3, #48	; 0x30
8000568c:	1a000008 	bne	0x800056b4
80005690:	e51b3014 	ldr	r3, [fp, #-20]	; 0xffffffec
80005694:	e2832001 	add	r2, r3, #1
80005698:	e50b2014 	str	r2, [fp, #-20]	; 0xffffffec
8000569c:	e24b200c 	sub	r2, fp, #12
800056a0:	e0823003 	add	r3, r2, r3
800056a4:	e3a0202d 	mov	r2, #45	; 0x2d
800056a8:	e543202c 	strb	r2, [r3, #-44]	; 0xffffffd4
800056ac:	e3a03000 	mov	r3, #0
800056b0:	e50b3020 	str	r3, [fp, #-32]	; 0xffffffe0
800056b4:	e51b3018 	ldr	r3, [fp, #-24]	; 0xffffffe8
800056b8:	e3530001 	cmp	r3, #1
800056bc:	9a000013 	bls	0x80005710
800056c0:	e51b3018 	ldr	r3, [fp, #-24]	; 0xffffffe8
800056c4:	e353000f 	cmp	r3, #15
800056c8:	8a000010 	bhi	0x80005710
800056cc:	e51b3018 	ldr	r3, [fp, #-24]	; 0xffffffe8
800056d0:	e2433001 	sub	r3, r3, #1
800056d4:	e50b3018 	str	r3, [fp, #-24]	; 0xffffffe8
800056d8:	ea000009 	b	0x80005704
800056dc:	e51b3014 	ldr	r3, [fp, #-20]	; 0xffffffec
800056e0:	e2832001 	add	r2, r3, #1
800056e4:	e50b2014 	str	r2, [fp, #-20]	; 0xffffffec
800056e8:	e24b200c 	sub	r2, fp, #12
800056ec:	e0823003 	add	r3, r2, r3
800056f0:	e55b2021 	ldrb	r2, [fp, #-33]	; 0xffffffdf
800056f4:	e543202c 	strb	r2, [r3, #-44]	; 0xffffffd4
800056f8:	e51b3018 	ldr	r3, [fp, #-24]	; 0xffffffe8
800056fc:	e2433001 	sub	r3, r3, #1
80005700:	e50b3018 	str	r3, [fp, #-24]	; 0xffffffe8
80005704:	e51b3018 	ldr	r3, [fp, #-24]	; 0xffffffe8
80005708:	e3530000 	cmp	r3, #0
8000570c:	1afffff2 	bne	0x800056dc
80005710:	e51b3020 	ldr	r3, [fp, #-32]	; 0xffffffe0
80005714:	e3530000 	cmp	r3, #0
80005718:	0a00001f 	beq	0x8000579c
8000571c:	e51b3014 	ldr	r3, [fp, #-20]	; 0xffffffec
80005720:	e2832001 	add	r2, r3, #1
80005724:	e50b2014 	str	r2, [fp, #-20]	; 0xffffffec
80005728:	e24b200c 	sub	r2, fp, #12
8000572c:	e0823003 	add	r3, r2, r3
80005730:	e3a0202d 	mov	r2, #45	; 0x2d
80005734:	e543202c 	strb	r2, [r3, #-44]	; 0xffffffd4
80005738:	ea000017 	b	0x8000579c
8000573c:	e51b5014 	ldr	r5, [fp, #-20]	; 0xffffffec
80005740:	e2853001 	add	r3, r5, #1
80005744:	e50b3014 	str	r3, [fp, #-20]	; 0xffffffec
80005748:	e3064030 	movw	r4, #24624	; 0x6030
8000574c:	e3484000 	movt	r4, #32768	; 0x8000
80005750:	e51b303c 	ldr	r3, [fp, #-60]	; 0xffffffc4
80005754:	e51b1010 	ldr	r1, [fp, #-16]
80005758:	e1a00003 	mov	r0, r3
8000575c:	eb000028 	bl	0x80005804
80005760:	e1a03000 	mov	r3, r0
80005764:	e51b101c 	ldr	r1, [fp, #-28]	; 0xffffffe4
80005768:	e1a00003 	mov	r0, r3
8000576c:	eb000061 	bl	0x800058f8
80005770:	e1a03001 	mov	r3, r1
80005774:	e0843003 	add	r3, r4, r3
80005778:	e5d32000 	ldrb	r2, [r3]
8000577c:	e24b300c 	sub	r3, fp, #12
80005780:	e0833005 	add	r3, r3, r5
80005784:	e543202c 	strb	r2, [r3, #-44]	; 0xffffffd4
80005788:	e51b101c 	ldr	r1, [fp, #-28]	; 0xffffffe4
8000578c:	e51b0010 	ldr	r0, [fp, #-16]
80005790:	eb00001b 	bl	0x80005804
80005794:	e1a03000 	mov	r3, r0
80005798:	e50b3010 	str	r3, [fp, #-16]
8000579c:	e51b3010 	ldr	r3, [fp, #-16]
800057a0:	e3530000 	cmp	r3, #0
800057a4:	1affffe4 	bne	0x8000573c
800057a8:	e24b3038 	sub	r3, fp, #56	; 0x38
800057ac:	e51b1014 	ldr	r1, [fp, #-20]	; 0xffffffec
800057b0:	e1a00003 	mov	r0, r3
800057b4:	ebfffaca 	bl	0x800042e4
800057b8:	ea00000a 	b	0x800057e8
800057bc:	e51b3040 	ldr	r3, [fp, #-64]	; 0xffffffc0
800057c0:	e2433001 	sub	r3, r3, #1
800057c4:	e3a01001 	mov	r1, #1
800057c8:	e1a00003 	mov	r0, r3
800057cc:	ebfffac4 	bl	0x800042e4
800057d0:	ea000004 	b	0x800057e8
800057d4:	e3a01005 	mov	r1, #5
800057d8:	e306004c 	movw	r0, #24652	; 0x604c
800057dc:	e3480000 	movt	r0, #32768	; 0x8000
800057e0:	ebfffabf 	bl	0x800042e4
800057e4:	e320f000 	nop	{0}
800057e8:	e51b3040 	ldr	r3, [fp, #-64]	; 0xffffffc0
800057ec:	e5d33000 	ldrb	r3, [r3]
800057f0:	e3530000 	cmp	r3, #0
800057f4:	1afffe8a 	bne	0x80005224
800057f8:	e320f000 	nop	{0}
800057fc:	e24bd00c 	sub	sp, fp, #12
80005800:	e8bd8830 	pop	{r4, r5, fp, pc}
80005804:	e2512001 	subs	r2, r1, #1
80005808:	012fff1e 	bxeq	lr
8000580c:	3a000036 	bcc	0x800058ec
80005810:	e1500001 	cmp	r0, r1
80005814:	9a000022 	bls	0x800058a4
80005818:	e1110002 	tst	r1, r2
8000581c:	0a000023 	beq	0x800058b0
80005820:	e311020e 	tst	r1, #-536870912	; 0xe0000000
80005824:	01a01181 	lsleq	r1, r1, #3
80005828:	03a03008 	moveq	r3, #8
8000582c:	13a03001 	movne	r3, #1
80005830:	e3510201 	cmp	r1, #268435456	; 0x10000000
80005834:	31510000 	cmpcc	r1, r0
80005838:	31a01201 	lslcc	r1, r1, #4
8000583c:	31a03203 	lslcc	r3, r3, #4
80005840:	3afffffa 	bcc	0x80005830
80005844:	e3510102 	cmp	r1, #-2147483648	; 0x80000000
80005848:	31510000 	cmpcc	r1, r0
8000584c:	31a01081 	lslcc	r1, r1, #1
80005850:	31a03083 	lslcc	r3, r3, #1
80005854:	3afffffa 	bcc	0x80005844
80005858:	e3a02000 	mov	r2, #0
8000585c:	e1500001 	cmp	r0, r1
80005860:	20400001 	subcs	r0, r0, r1
80005864:	21822003 	orrcs	r2, r2, r3
80005868:	e15000a1 	cmp	r0, r1, lsr #1
8000586c:	204000a1 	subcs	r0, r0, r1, lsr #1
80005870:	218220a3 	orrcs	r2, r2, r3, lsr #1
80005874:	e1500121 	cmp	r0, r1, lsr #2
80005878:	20400121 	subcs	r0, r0, r1, lsr #2
8000587c:	21822123 	orrcs	r2, r2, r3, lsr #2
80005880:	e15001a1 	cmp	r0, r1, lsr #3
80005884:	204001a1 	subcs	r0, r0, r1, lsr #3
80005888:	218221a3 	orrcs	r2, r2, r3, lsr #3
8000588c:	e3500000 	cmp	r0, #0
80005890:	11b03223 	lsrsne	r3, r3, #4
80005894:	11a01221 	lsrne	r1, r1, #4
80005898:	1affffef 	bne	0x8000585c
8000589c:	e1a00002 	mov	r0, r2
800058a0:	e12fff1e 	bx	lr
800058a4:	03a00001 	moveq	r0, #1
800058a8:	13a00000 	movne	r0, #0
800058ac:	e12fff1e 	bx	lr
800058b0:	e3510801 	cmp	r1, #65536	; 0x10000
800058b4:	21a01821 	lsrcs	r1, r1, #16
800058b8:	23a02010 	movcs	r2, #16
800058bc:	33a02000 	movcc	r2, #0
800058c0:	e3510c01 	cmp	r1, #256	; 0x100
800058c4:	21a01421 	lsrcs	r1, r1, #8
800058c8:	22822008 	addcs	r2, r2, #8
800058cc:	e3510010 	cmp	r1, #16
800058d0:	21a01221 	lsrcs	r1, r1, #4
800058d4:	22822004 	addcs	r2, r2, #4
800058d8:	e3510004 	cmp	r1, #4
800058dc:	82822003 	addhi	r2, r2, #3
800058e0:	908220a1 	addls	r2, r2, r1, lsr #1
800058e4:	e1a00230 	lsr	r0, r0, r2
800058e8:	e12fff1e 	bx	lr
800058ec:	e3500000 	cmp	r0, #0
800058f0:	13e00000 	mvnne	r0, #0
800058f4:	ea000007 	b	0x80005918
800058f8:	e3510000 	cmp	r1, #0
800058fc:	0afffffa 	beq	0x800058ec
80005900:	e92d4003 	push	{r0, r1, lr}
80005904:	ebffffbe 	bl	0x80005804
80005908:	e8bd4006 	pop	{r1, r2, lr}
8000590c:	e0030092 	mul	r3, r2, r0
80005910:	e0411003 	sub	r1, r1, r3
80005914:	e12fff1e 	bx	lr
80005918:	e12fff1e 	bx	lr
8000591c:	e52db004 	push	{fp}		; (str fp, [sp, #-4]!)
80005920:	e28db000 	add	fp, sp, #0
80005924:	e24dd014 	sub	sp, sp, #20
80005928:	e50b0010 	str	r0, [fp, #-16]
8000592c:	e51b3010 	ldr	r3, [fp, #-16]
80005930:	e5933000 	ldr	r3, [r3]
80005934:	e50b3008 	str	r3, [fp, #-8]
80005938:	e51b3008 	ldr	r3, [fp, #-8]
8000593c:	e1a00003 	mov	r0, r3
80005940:	e28bd000 	add	sp, fp, #0
80005944:	e49db004 	pop	{fp}		; (ldr fp, [sp], #4)
80005948:	e12fff1e 	bx	lr
8000594c:	e52db004 	push	{fp}		; (str fp, [sp, #-4]!)
80005950:	e28db000 	add	fp, sp, #0
80005954:	e24dd00c 	sub	sp, sp, #12
80005958:	e50b0008 	str	r0, [fp, #-8]
8000595c:	e50b100c 	str	r1, [fp, #-12]
80005960:	e51b3008 	ldr	r3, [fp, #-8]
80005964:	e51b200c 	ldr	r2, [fp, #-12]
80005968:	e5832000 	str	r2, [r3]
8000596c:	e320f000 	nop	{0}
80005970:	e28bd000 	add	sp, fp, #0
80005974:	e49db004 	pop	{fp}		; (ldr fp, [sp], #4)
80005978:	e12fff1e 	bx	lr
8000597c:	e52db004 	push	{fp}		; (str fp, [sp, #-4]!)
80005980:	e28db000 	add	fp, sp, #0
80005984:	e24dd014 	sub	sp, sp, #20
80005988:	e50b0010 	str	r0, [fp, #-16]
8000598c:	e30634b4 	movw	r3, #25780	; 0x64b4
80005990:	e3483000 	movt	r3, #32768	; 0x8000
80005994:	e5933000 	ldr	r3, [r3]
80005998:	e3530000 	cmp	r3, #0
8000599c:	1a000025 	bne	0x80005a38
800059a0:	e3a03010 	mov	r3, #16
800059a4:	e3443820 	movt	r3, #18464	; 0x4820
800059a8:	e3a02002 	mov	r2, #2
800059ac:	e5832000 	str	r2, [r3]
800059b0:	e320f000 	nop	{0}
800059b4:	e3a03014 	mov	r3, #20
800059b8:	e3443820 	movt	r3, #18464	; 0x4820
800059bc:	e5933000 	ldr	r3, [r3]
800059c0:	e2033001 	and	r3, r3, #1
800059c4:	e3530001 	cmp	r3, #1
800059c8:	1afffff9 	bne	0x800059b4
800059cc:	e3a03068 	mov	r3, #104	; 0x68
800059d0:	e3443820 	movt	r3, #18464	; 0x4820
800059d4:	e3a020ff 	mov	r2, #255	; 0xff
800059d8:	e5832000 	str	r2, [r3]
800059dc:	e3a03000 	mov	r3, #0
800059e0:	e50b3008 	str	r3, [fp, #-8]
800059e4:	ea000008 	b	0x80005a0c
800059e8:	e30630b0 	movw	r3, #24752	; 0x60b0
800059ec:	e3483000 	movt	r3, #32768	; 0x8000
800059f0:	e51b1008 	ldr	r1, [fp, #-8]
800059f4:	e3052e8c 	movw	r2, #24204	; 0x5e8c
800059f8:	e3482000 	movt	r2, #32768	; 0x8000
800059fc:	e7832101 	str	r2, [r3, r1, lsl #2]
80005a00:	e51b3008 	ldr	r3, [fp, #-8]
80005a04:	e2833001 	add	r3, r3, #1
80005a08:	e50b3008 	str	r3, [fp, #-8]
80005a0c:	e51b3008 	ldr	r3, [fp, #-8]
80005a10:	e353007f 	cmp	r3, #127	; 0x7f
80005a14:	9afffff3 	bls	0x800059e8
80005a18:	e3a0304c 	mov	r3, #76	; 0x4c
80005a1c:	e3443820 	movt	r3, #18464	; 0x4820
80005a20:	e3a02001 	mov	r2, #1
80005a24:	e5832000 	str	r2, [r3]
80005a28:	e30634b4 	movw	r3, #25780	; 0x64b4
80005a2c:	e3483000 	movt	r3, #32768	; 0x8000
80005a30:	e3a02001 	mov	r2, #1
80005a34:	e5832000 	str	r2, [r3]
80005a38:	e3a03000 	mov	r3, #0
80005a3c:	e1a00003 	mov	r0, r3
80005a40:	e28bd000 	add	sp, fp, #0
80005a44:	e49db004 	pop	{fp}		; (ldr fp, [sp], #4)
80005a48:	e12fff1e 	bx	lr
80005a4c:	e92d4800 	push	{fp, lr}
80005a50:	e28db004 	add	fp, sp, #4
80005a54:	e24dd018 	sub	sp, sp, #24
80005a58:	e50b0010 	str	r0, [fp, #-16]
80005a5c:	e50b1014 	str	r1, [fp, #-20]	; 0xffffffec
80005a60:	e50b2018 	str	r2, [fp, #-24]	; 0xffffffe8
80005a64:	e3a03000 	mov	r3, #0
80005a68:	e50b3008 	str	r3, [fp, #-8]
80005a6c:	e51b3018 	ldr	r3, [fp, #-24]	; 0xffffffe8
80005a70:	e3530001 	cmp	r3, #1
80005a74:	0a000006 	beq	0x80005a94
80005a78:	e51b3014 	ldr	r3, [fp, #-20]	; 0xffffffec
80005a7c:	e5933010 	ldr	r3, [r3, #16]
80005a80:	e3530001 	cmp	r3, #1
80005a84:	1a000002 	bne	0x80005a94
80005a88:	e3e03000 	mvn	r3, #0
80005a8c:	e50b3008 	str	r3, [fp, #-8]
80005a90:	ea00002d 	b	0x80005b4c
80005a94:	e51b3014 	ldr	r3, [fp, #-20]	; 0xffffffec
80005a98:	e5931008 	ldr	r1, [r3, #8]
80005a9c:	e30630b0 	movw	r3, #24752	; 0x60b0
80005aa0:	e3483000 	movt	r3, #32768	; 0x8000
80005aa4:	e51b2010 	ldr	r2, [fp, #-16]
80005aa8:	e7831102 	str	r1, [r3, r2, lsl #2]
80005aac:	e51b3014 	ldr	r3, [fp, #-20]	; 0xffffffec
80005ab0:	e593100c 	ldr	r1, [r3, #12]
80005ab4:	e30632b0 	movw	r3, #25264	; 0x62b0
80005ab8:	e3483000 	movt	r3, #32768	; 0x8000
80005abc:	e51b2010 	ldr	r2, [fp, #-16]
80005ac0:	e7831102 	str	r1, [r3, r2, lsl #2]
80005ac4:	e51b2010 	ldr	r2, [fp, #-16]
80005ac8:	e3a03040 	mov	r3, #64	; 0x40
80005acc:	e3413208 	movt	r3, #4616	; 0x1208
80005ad0:	e0823003 	add	r3, r2, r3
80005ad4:	e1a03103 	lsl	r3, r3, #2
80005ad8:	e1a01003 	mov	r1, r3
80005adc:	e51b3014 	ldr	r3, [fp, #-20]	; 0xffffffec
80005ae0:	e5933004 	ldr	r3, [r3, #4]
80005ae4:	e1a03103 	lsl	r3, r3, #2
80005ae8:	e2032f7f 	and	r2, r3, #508	; 0x1fc
80005aec:	e51b3014 	ldr	r3, [fp, #-20]	; 0xffffffec
80005af0:	e5933010 	ldr	r3, [r3, #16]
80005af4:	e1823003 	orr	r3, r2, r3
80005af8:	e5813000 	str	r3, [r1]
80005afc:	e51b3010 	ldr	r3, [fp, #-16]
80005b00:	e1a032a3 	lsr	r3, r3, #5
80005b04:	e1a02283 	lsl	r2, r3, #5
80005b08:	e3a03088 	mov	r3, #136	; 0x88
80005b0c:	e3443820 	movt	r3, #18464	; 0x4820
80005b10:	e0823003 	add	r3, r2, r3
80005b14:	e1a01003 	mov	r1, r3
80005b18:	e51b3010 	ldr	r3, [fp, #-16]
80005b1c:	e203301f 	and	r3, r3, #31
80005b20:	e3a02001 	mov	r2, #1
80005b24:	e1a03312 	lsl	r3, r2, r3
80005b28:	e5813000 	str	r3, [r1]
80005b2c:	e51b3018 	ldr	r3, [fp, #-24]	; 0xffffffe8
80005b30:	e3530001 	cmp	r3, #1
80005b34:	1a000002 	bne	0x80005b44
80005b38:	e3a000c0 	mov	r0, #192	; 0xc0
80005b3c:	eb000114 	bl	0x80005f94
80005b40:	ea000001 	b	0x80005b4c
80005b44:	e3a00080 	mov	r0, #128	; 0x80
80005b48:	eb000111 	bl	0x80005f94
80005b4c:	e51b3008 	ldr	r3, [fp, #-8]
80005b50:	e1a00003 	mov	r0, r3
80005b54:	e24bd004 	sub	sp, fp, #4
80005b58:	e8bd8800 	pop	{fp, pc}
80005b5c:	e52db004 	push	{fp}		; (str fp, [sp, #-4]!)
80005b60:	e28db000 	add	fp, sp, #0
80005b64:	e24dd014 	sub	sp, sp, #20
80005b68:	e50b0010 	str	r0, [fp, #-16]
80005b6c:	e3a03000 	mov	r3, #0
80005b70:	e50b3008 	str	r3, [fp, #-8]
80005b74:	e51b3010 	ldr	r3, [fp, #-16]
80005b78:	e353007f 	cmp	r3, #127	; 0x7f
80005b7c:	8a00000d 	bhi	0x80005bb8
80005b80:	f57ff04f 	dsb	sy
80005b84:	e51b3010 	ldr	r3, [fp, #-16]
80005b88:	e1a032a3 	lsr	r3, r3, #5
80005b8c:	e1a02283 	lsl	r2, r3, #5
80005b90:	e3a03088 	mov	r3, #136	; 0x88
80005b94:	e3443820 	movt	r3, #18464	; 0x4820
80005b98:	e0823003 	add	r3, r2, r3
80005b9c:	e1a01003 	mov	r1, r3
80005ba0:	e51b3010 	ldr	r3, [fp, #-16]
80005ba4:	e203301f 	and	r3, r3, #31
80005ba8:	e3a02001 	mov	r2, #1
80005bac:	e1a03312 	lsl	r3, r2, r3
80005bb0:	e5813000 	str	r3, [r1]
80005bb4:	ea000001 	b	0x80005bc0
80005bb8:	e3e03004 	mvn	r3, #4
80005bbc:	e50b3008 	str	r3, [fp, #-8]
80005bc0:	e51b3008 	ldr	r3, [fp, #-8]
80005bc4:	e1a00003 	mov	r0, r3
80005bc8:	e28bd000 	add	sp, fp, #0
80005bcc:	e49db004 	pop	{fp}		; (ldr fp, [sp], #4)
80005bd0:	e12fff1e 	bx	lr
80005bd4:	e52db004 	push	{fp}		; (str fp, [sp, #-4]!)
80005bd8:	e28db000 	add	fp, sp, #0
80005bdc:	e24dd014 	sub	sp, sp, #20
80005be0:	e50b0010 	str	r0, [fp, #-16]
80005be4:	e3a03000 	mov	r3, #0
80005be8:	e50b3008 	str	r3, [fp, #-8]
80005bec:	e51b3010 	ldr	r3, [fp, #-16]
80005bf0:	e353007f 	cmp	r3, #127	; 0x7f
80005bf4:	8a00000d 	bhi	0x80005c30
80005bf8:	f57ff04f 	dsb	sy
80005bfc:	e51b3010 	ldr	r3, [fp, #-16]
80005c00:	e1a032a3 	lsr	r3, r3, #5
80005c04:	e1a02283 	lsl	r2, r3, #5
80005c08:	e3a0308c 	mov	r3, #140	; 0x8c
80005c0c:	e3443820 	movt	r3, #18464	; 0x4820
80005c10:	e0823003 	add	r3, r2, r3
80005c14:	e1a01003 	mov	r1, r3
80005c18:	e51b3010 	ldr	r3, [fp, #-16]
80005c1c:	e203301f 	and	r3, r3, #31
80005c20:	e3a02001 	mov	r2, #1
80005c24:	e1a03312 	lsl	r3, r2, r3
80005c28:	e5813000 	str	r3, [r1]
80005c2c:	ea000001 	b	0x80005c38
80005c30:	e3e03004 	mvn	r3, #4
80005c34:	e50b3008 	str	r3, [fp, #-8]
80005c38:	e51b3008 	ldr	r3, [fp, #-8]
80005c3c:	e1a00003 	mov	r0, r3
80005c40:	e28bd000 	add	sp, fp, #0
80005c44:	e49db004 	pop	{fp}		; (ldr fp, [sp], #4)
80005c48:	e12fff1e 	bx	lr
80005c4c:	e92d4800 	push	{fp, lr}
80005c50:	e28db004 	add	fp, sp, #4
80005c54:	e24dd010 	sub	sp, sp, #16
80005c58:	e50b0010 	str	r0, [fp, #-16]
80005c5c:	e3a03000 	mov	r3, #0
80005c60:	e50b3008 	str	r3, [fp, #-8]
80005c64:	e51b3010 	ldr	r3, [fp, #-16]
80005c68:	e3530080 	cmp	r3, #128	; 0x80
80005c6c:	0a000005 	beq	0x80005c88
80005c70:	e51b3010 	ldr	r3, [fp, #-16]
80005c74:	e3530040 	cmp	r3, #64	; 0x40
80005c78:	0a000002 	beq	0x80005c88
80005c7c:	e51b3010 	ldr	r3, [fp, #-16]
80005c80:	e35300c0 	cmp	r3, #192	; 0xc0
80005c84:	1a000002 	bne	0x80005c94
80005c88:	e51b0010 	ldr	r0, [fp, #-16]
80005c8c:	eb0000c0 	bl	0x80005f94
80005c90:	ea000001 	b	0x80005c9c
80005c94:	e3e03001 	mvn	r3, #1
80005c98:	e50b3008 	str	r3, [fp, #-8]
80005c9c:	e51b3008 	ldr	r3, [fp, #-8]
80005ca0:	e1a00003 	mov	r0, r3
80005ca4:	e24bd004 	sub	sp, fp, #4
80005ca8:	e8bd8800 	pop	{fp, pc}
80005cac:	e92d4800 	push	{fp, lr}
80005cb0:	e28db004 	add	fp, sp, #4
80005cb4:	eb0000a4 	bl	0x80005f4c
80005cb8:	e1a03000 	mov	r3, r0
80005cbc:	e1a00003 	mov	r0, r3
80005cc0:	e8bd8800 	pop	{fp, pc}
80005cc4:	e52db004 	push	{fp}		; (str fp, [sp, #-4]!)
80005cc8:	e28db000 	add	fp, sp, #0
80005ccc:	e24dd014 	sub	sp, sp, #20
80005cd0:	e50b0010 	str	r0, [fp, #-16]
80005cd4:	e3a03000 	mov	r3, #0
80005cd8:	e50b3008 	str	r3, [fp, #-8]
80005cdc:	e51b3010 	ldr	r3, [fp, #-16]
80005ce0:	e353007f 	cmp	r3, #127	; 0x7f
80005ce4:	8a00000c 	bhi	0x80005d1c
80005ce8:	e51b3010 	ldr	r3, [fp, #-16]
80005cec:	e1a022a3 	lsr	r2, r3, #5
80005cf0:	e3a03004 	mov	r3, #4
80005cf4:	e3403241 	movt	r3, #577	; 0x241
80005cf8:	e0823003 	add	r3, r2, r3
80005cfc:	e1a03283 	lsl	r3, r3, #5
80005d00:	e1a01003 	mov	r1, r3
80005d04:	e51b3010 	ldr	r3, [fp, #-16]
80005d08:	e203301f 	and	r3, r3, #31
80005d0c:	e3a02001 	mov	r2, #1
80005d10:	e1a03312 	lsl	r3, r2, r3
80005d14:	e5813000 	str	r3, [r1]
80005d18:	ea000001 	b	0x80005d24
80005d1c:	e3e03004 	mvn	r3, #4
80005d20:	e50b3008 	str	r3, [fp, #-8]
80005d24:	e51b3008 	ldr	r3, [fp, #-8]
80005d28:	e1a00003 	mov	r0, r3
80005d2c:	e28bd000 	add	sp, fp, #0
80005d30:	e49db004 	pop	{fp}		; (ldr fp, [sp], #4)
80005d34:	e12fff1e 	bx	lr
80005d38:	e52db004 	push	{fp}		; (str fp, [sp, #-4]!)
80005d3c:	e28db000 	add	fp, sp, #0
80005d40:	e24dd014 	sub	sp, sp, #20
80005d44:	e50b0010 	str	r0, [fp, #-16]
80005d48:	e3a03000 	mov	r3, #0
80005d4c:	e50b3008 	str	r3, [fp, #-8]
80005d50:	e51b3010 	ldr	r3, [fp, #-16]
80005d54:	e353007f 	cmp	r3, #127	; 0x7f
80005d58:	8a00000c 	bhi	0x80005d90
80005d5c:	e51b3010 	ldr	r3, [fp, #-16]
80005d60:	e1a032a3 	lsr	r3, r3, #5
80005d64:	e1a02283 	lsl	r2, r3, #5
80005d68:	e3a03090 	mov	r3, #144	; 0x90
80005d6c:	e3443820 	movt	r3, #18464	; 0x4820
80005d70:	e0823003 	add	r3, r2, r3
80005d74:	e1a01003 	mov	r1, r3
80005d78:	e51b3010 	ldr	r3, [fp, #-16]
80005d7c:	e203301f 	and	r3, r3, #31
80005d80:	e3a02001 	mov	r2, #1
80005d84:	e1a03312 	lsl	r3, r2, r3
80005d88:	e5813000 	str	r3, [r1]
80005d8c:	ea000001 	b	0x80005d98
80005d90:	e3e03004 	mvn	r3, #4
80005d94:	e50b3008 	str	r3, [fp, #-8]
80005d98:	e51b3008 	ldr	r3, [fp, #-8]
80005d9c:	e1a00003 	mov	r0, r3
80005da0:	e28bd000 	add	sp, fp, #0
80005da4:	e49db004 	pop	{fp}		; (ldr fp, [sp], #4)
80005da8:	e12fff1e 	bx	lr
80005dac:	e92d4810 	push	{r4, fp, lr}
80005db0:	e28db008 	add	fp, sp, #8
80005db4:	e24dd014 	sub	sp, sp, #20
80005db8:	e3a00040 	mov	r0, #64	; 0x40
80005dbc:	e3440820 	movt	r0, #18464	; 0x4820
80005dc0:	ebfffed5 	bl	0x8000591c
80005dc4:	e50b0010 	str	r0, [fp, #-16]
80005dc8:	e51b3010 	ldr	r3, [fp, #-16]
80005dcc:	e203307f 	and	r3, r3, #127	; 0x7f
80005dd0:	e50b3014 	str	r3, [fp, #-20]	; 0xffffffec
80005dd4:	e3a03000 	mov	r3, #0
80005dd8:	e50b3018 	str	r3, [fp, #-24]	; 0xffffffe8
80005ddc:	e3a00068 	mov	r0, #104	; 0x68
80005de0:	e3440820 	movt	r0, #18464	; 0x4820
80005de4:	ebfffecc 	bl	0x8000591c
80005de8:	e50b001c 	str	r0, [fp, #-28]	; 0xffffffe4
80005dec:	e3a00060 	mov	r0, #96	; 0x60
80005df0:	e3440820 	movt	r0, #18464	; 0x4820
80005df4:	ebfffec8 	bl	0x8000591c
80005df8:	e1a03000 	mov	r3, r0
80005dfc:	e1a01003 	mov	r1, r3
80005e00:	e3a00068 	mov	r0, #104	; 0x68
80005e04:	e3440820 	movt	r0, #18464	; 0x4820
80005e08:	ebfffecf 	bl	0x8000594c
80005e0c:	e3a01001 	mov	r1, #1
80005e10:	e3a00048 	mov	r0, #72	; 0x48
80005e14:	e3440820 	movt	r0, #18464	; 0x4820
80005e18:	ebfffecb 	bl	0x8000594c
80005e1c:	e52d7004 	push	{r7}		; (str r7, [sp, #-4]!)
80005e20:	e10f7000 	mrs	r7, CPSR
80005e24:	e387701f 	orr	r7, r7, #31
80005e28:	e3c77080 	bic	r7, r7, #128	; 0x80
80005e2c:	e129f007 	msr	CPSR_fc, r7
80005e30:	e92d4000 	stmfd	sp!, {lr}
80005e34:	e30630b0 	movw	r3, #24752	; 0x60b0
80005e38:	e3483000 	movt	r3, #32768	; 0x8000
80005e3c:	e51b2014 	ldr	r2, [fp, #-20]	; 0xffffffec
80005e40:	e7934102 	ldr	r4, [r3, r2, lsl #2]
80005e44:	e30632b0 	movw	r3, #25264	; 0x62b0
80005e48:	e3483000 	movt	r3, #32768	; 0x8000
80005e4c:	e51b2014 	ldr	r2, [fp, #-20]	; 0xffffffec
80005e50:	e7933102 	ldr	r3, [r3, r2, lsl #2]
80005e54:	e1a02003 	mov	r2, r3
80005e58:	e51b1018 	ldr	r1, [fp, #-24]	; 0xffffffe8
80005e5c:	e51b0014 	ldr	r0, [fp, #-20]	; 0xffffffec
80005e60:	e12fff34 	blx	r4
80005e64:	e8bd4000 	ldmfd	sp!, {lr}
80005e68:	f10e0092 	cpsid	i,#18
80005e6c:	e49d7004 	pop	{r7}		; (ldr r7, [sp], #4)
80005e70:	e51b101c 	ldr	r1, [fp, #-28]	; 0xffffffe4
80005e74:	e3a00068 	mov	r0, #104	; 0x68
80005e78:	e3440820 	movt	r0, #18464	; 0x4820
80005e7c:	ebfffeb2 	bl	0x8000594c
80005e80:	e320f000 	nop	{0}
80005e84:	e24bd008 	sub	sp, fp, #8
80005e88:	e8bd8810 	pop	{r4, fp, pc}
80005e8c:	e52db004 	push	{fp}		; (str fp, [sp, #-4]!)
80005e90:	e28db000 	add	fp, sp, #0
80005e94:	e24dd014 	sub	sp, sp, #20
80005e98:	e50b0008 	str	r0, [fp, #-8]
80005e9c:	e50b100c 	str	r1, [fp, #-12]
80005ea0:	e50b2010 	str	r2, [fp, #-16]
80005ea4:	e30634b0 	movw	r3, #25776	; 0x64b0
80005ea8:	e3483000 	movt	r3, #32768	; 0x8000
80005eac:	e5933000 	ldr	r3, [r3]
80005eb0:	e2832001 	add	r2, r3, #1
80005eb4:	e30634b0 	movw	r3, #25776	; 0x64b0
80005eb8:	e3483000 	movt	r3, #32768	; 0x8000
80005ebc:	e5832000 	str	r2, [r3]
80005ec0:	e320f000 	nop	{0}
80005ec4:	e28bd000 	add	sp, fp, #0
80005ec8:	e49db004 	pop	{fp}		; (ldr fp, [sp], #4)
80005ecc:	e12fff1e 	bx	lr
80005ed0:	e52db004 	push	{fp}		; (str fp, [sp, #-4]!)
80005ed4:	e28db000 	add	fp, sp, #0
80005ed8:	ef000001 	svc	0x00000001
80005edc:	e320f000 	nop	{0}
80005ee0:	e28bd000 	add	sp, fp, #0
80005ee4:	e49db004 	pop	{fp}		; (ldr fp, [sp], #4)
80005ee8:	e12fff1e 	bx	lr
80005eec:	e52db004 	push	{fp}		; (str fp, [sp, #-4]!)
80005ef0:	e28db000 	add	fp, sp, #0
80005ef4:	e10f0000 	mrs	r0, CPSR
80005ef8:	e3c0000f 	bic	r0, r0, #15
80005efc:	e3800010 	orr	r0, r0, #16
80005f00:	e129f000 	msr	CPSR_fc, r0
80005f04:	e320f000 	nop	{0}
80005f08:	e28bd000 	add	sp, fp, #0
80005f0c:	e49db004 	pop	{fp}		; (ldr fp, [sp], #4)
80005f10:	e12fff1e 	bx	lr
80005f14:	e52db004 	push	{fp}		; (str fp, [sp, #-4]!)
80005f18:	e28db000 	add	fp, sp, #0
80005f1c:	eafffffe 	b	0x80005f1c
80005f20:	e52db004 	push	{fp}		; (str fp, [sp, #-4]!)
80005f24:	e28db000 	add	fp, sp, #0
80005f28:	e24dd00c 	sub	sp, sp, #12
80005f2c:	e10f0000 	mrs	r0, CPSR
80005f30:	e20030c0 	and	r3, r0, #192	; 0xc0
80005f34:	e50b3008 	str	r3, [fp, #-8]
80005f38:	e51b3008 	ldr	r3, [fp, #-8]
80005f3c:	e1a00003 	mov	r0, r3
80005f40:	e28bd000 	add	sp, fp, #0
80005f44:	e49db004 	pop	{fp}		; (ldr fp, [sp], #4)
80005f48:	e12fff1e 	bx	lr
80005f4c:	e52db004 	push	{fp}		; (str fp, [sp, #-4]!)
80005f50:	e28db000 	add	fp, sp, #0
80005f54:	e24dd00c 	sub	sp, sp, #12
80005f58:	e10f0000 	mrs	r0, CPSR
80005f5c:	e1a01000 	mov	r1, r0
80005f60:	e20030c0 	and	r3, r0, #192	; 0xc0
80005f64:	e50b3008 	str	r3, [fp, #-8]
80005f68:	e38110c0 	orr	r1, r1, #192	; 0xc0
80005f6c:	e129f001 	msr	CPSR_fc, r1
80005f70:	e51b3008 	ldr	r3, [fp, #-8]
80005f74:	e1e03003 	mvn	r3, r3
80005f78:	e20330c0 	and	r3, r3, #192	; 0xc0
80005f7c:	e50b3008 	str	r3, [fp, #-8]
80005f80:	e51b3008 	ldr	r3, [fp, #-8]
80005f84:	e1a00003 	mov	r0, r3
80005f88:	e28bd000 	add	sp, fp, #0
80005f8c:	e49db004 	pop	{fp}		; (ldr fp, [sp], #4)
80005f90:	e12fff1e 	bx	lr
80005f94:	e52db004 	push	{fp}		; (str fp, [sp, #-4]!)
80005f98:	e28db000 	add	fp, sp, #0
80005f9c:	e24dd00c 	sub	sp, sp, #12
80005fa0:	e50b0008 	str	r0, [fp, #-8]
80005fa4:	e51b3008 	ldr	r3, [fp, #-8]
80005fa8:	e20330c0 	and	r3, r3, #192	; 0xc0
80005fac:	e50b3008 	str	r3, [fp, #-8]
80005fb0:	e10f0000 	mrs	r0, CPSR
80005fb4:	e1c00003 	bic	r0, r0, r3
80005fb8:	e50b3008 	str	r3, [fp, #-8]
80005fbc:	e129f000 	msr	CPSR_fc, r0
80005fc0:	e320f000 	nop	{0}
80005fc4:	e28bd000 	add	sp, fp, #0
80005fc8:	e49db004 	pop	{fp}		; (ldr fp, [sp], #4)
80005fcc:	e12fff1e 	bx	lr
80005fd0:	6f727245 	svcvs	0x00727245
80005fd4:	49202172 	stmdbmi	r0!, {r1, r4, r5, r6, r8, sp}
80005fd8:	6c61766e 	stclvs	6, cr7, [r1], #-440	; 0xfffffe48
80005fdc:	43206469 			; <UNDEFINED> instruction: 0x43206469
80005fe0:	6f736e6f 	svcvs	0x00736e6f
80005fe4:	7320656c 			; <UNDEFINED> instruction: 0x7320656c
80005fe8:	63656c65 	cmnvs	r5, #25856	; 0x6500
80005fec:	6e6f6974 			; <UNDEFINED> instruction: 0x6e6f6974
80005ff0:	00000a0d 	andeq	r0, r0, sp, lsl #20
80005ff4:	6f727245 	svcvs	0x00727245
80005ff8:	53202172 			; <UNDEFINED> instruction: 0x53202172
80005ffc:	48696d65 	stmdami	r9!, {r0, r2, r5, r6, r8, sl, fp, sp, lr}^
80006000:	6974736f 	ldmdbvs	r4!, {r0, r1, r2, r3, r5, r6, r8, r9, ip, sp, lr}^
80006004:	5320676e 			; <UNDEFINED> instruction: 0x5320676e
80006008:	6f707075 	svcvs	0x00707075
8000600c:	69207472 	stmdbvs	r0!, {r1, r4, r5, r6, sl, ip, sp, lr}
80006010:	6f6e2073 	svcvs	0x006e2073
80006014:	6e652074 	mcrvs	0, 3, r2, cr5, cr4, {3}
80006018:	656c6261 	strbvs	r6, [ip, #-609]!	; 0xfffffd9f
8000601c:	000a0d64 	andeq	r0, sl, r4, ror #26
80006020:	6c6c6568 	cfstr64vs	mvdx6, [ip], #-416	; 0xfffffe60
80006024:	0000006f 	andeq	r0, r0, pc, rrx
80006028:	75626564 	strbvc	r6, [r2, #-1380]!	; 0xfffffa9c
8000602c:	00000067 	andeq	r0, r0, r7, rrx
80006030:	33323130 	teqcc	r2, #48, 2
80006034:	37363534 			; <UNDEFINED> instruction: 0x37363534
80006038:	62613938 	rsbvs	r3, r1, #56, 18	; 0xe0000
8000603c:	66656463 	strbtvs	r6, [r5], -r3, ror #8
80006040:	00000000 	andeq	r0, r0, r0
80006044:	80006030 	andhi	r6, r0, r0, lsr r0
80006048:	00000020 	andeq	r0, r0, r0, lsr #32
8000604c:	4f525245 	svcmi	0x00525245
80006050:	00000052 	andeq	r0, r0, r2, asr r0
80006054:	6d726f46 	ldclvs	15, cr6, [r2, #-280]!	; 0xfffffee8
80006058:	73207461 			; <UNDEFINED> instruction: 0x73207461
8000605c:	69636570 	stmdbvs	r3!, {r4, r5, r6, r8, sl, sp, lr}^
80006060:	72656966 	rsbvc	r6, r5, #1671168	; 0x198000
80006064:	20736920 	rsbscs	r6, r3, r0, lsr #18
80006068:	20746f6e 	rsbscs	r6, r4, lr, ror #30
8000606c:	70707573 	rsbsvc	r7, r0, r3, ror r5
80006070:	6574726f 	ldrbvs	r7, [r4, #-623]!	; 0xfffffd91
80006074:	000a0d64 	andeq	r0, sl, r4, ror #26
80006078:	61766e49 	cmnvs	r6, r9, asr #28
8000607c:	2064696c 	rsbcs	r6, r4, ip, ror #18
80006080:	6d726f66 	ldclvs	15, cr6, [r2, #-408]!	; 0xfffffe68
80006084:	73207461 			; <UNDEFINED> instruction: 0x73207461
80006088:	69636570 	stmdbvs	r3!, {r4, r5, r6, r8, sl, sp, lr}^
8000608c:	72656966 	rsbvc	r6, r5, #1671168	; 0x198000
80006090:	000a0d73 	andeq	r0, sl, r3, ror sp

Disassembly of section .init:

80006094 <.init>:
80006094:	e24bd028 	sub	sp, fp, #40	; 0x28
80006098:	e89d6ff0 	ldm	sp, {r4, r5, r6, r7, r8, r9, sl, fp, sp, lr}
8000609c:	e12fff1e 	bx	lr

Disassembly of section .fini:

800060a0 <.fini>:
800060a0:	e24bd028 	sub	sp, fp, #40	; 0x28
800060a4:	e89d6ff0 	ldm	sp, {r4, r5, r6, r7, r8, r9, sl, fp, sp, lr}
800060a8:	e12fff1e 	bx	lr

Disassembly of section .bss:

800060ac <.bss>:
	...

Disassembly of section .heap:

800064b8 <.heap>:
	...

Disassembly of section .stack:

80006cb8 <.stack>:
	...

Disassembly of section .comment:

00000000 <.comment>:
   0:	3a434347 	bcc	0x10d0d24
   4:	4e472820 	cdpmi	8, 4, cr2, cr7, cr0, {1}
   8:	6f542055 	svcvs	0x00542055
   c:	20736c6f 	rsbscs	r6, r3, pc, ror #24
  10:	20726f66 	rsbscs	r6, r2, r6, ror #30
  14:	204d5241 	subcs	r5, sp, r1, asr #4
  18:	65626d45 	strbvs	r6, [r2, #-3397]!	; 0xfffff2bb
  1c:	64656464 	strbtvs	r6, [r5], #-1124	; 0xfffffb9c
  20:	6f725020 	svcvs	0x00725020
  24:	73736563 	cmnvc	r3, #415236096	; 0x18c00000
  28:	2073726f 	rsbscs	r7, r3, pc, ror #4
  2c:	30322d36 	eorscc	r2, r2, r6, lsr sp
  30:	712d3731 			; <UNDEFINED> instruction: 0x712d3731
  34:	70752d31 	rsbsvc	r2, r5, r1, lsr sp
  38:	65746164 	ldrbvs	r6, [r4, #-356]!	; 0xfffffe9c
  3c:	2e362029 	cdpcs	0, 3, cr2, cr6, cr9, {1}
  40:	20312e33 	eorscs	r2, r1, r3, lsr lr
  44:	37313032 			; <UNDEFINED> instruction: 0x37313032
  48:	35313230 	ldrcc	r3, [r1, #-560]!	; 0xfffffdd0
  4c:	65722820 	ldrbvs	r2, [r2, #-2080]!	; 0xfffff7e0
  50:	7361656c 	cmnvc	r1, #108, 10	; 0x1b000000
  54:	5b202965 	blpl	0x80a5f0
  58:	2f4d5241 	svccs	0x004d5241
  5c:	65626d65 	strbvs	r6, [r2, #-3429]!	; 0xfffff29b
  60:	64656464 	strbtvs	r6, [r5], #-1124	; 0xfffffb9c
  64:	622d362d 	eorvs	r3, sp, #47185920	; 0x2d00000
  68:	636e6172 	cmnvs	lr, #-2147483620	; 0x8000001c
  6c:	65722068 	ldrbvs	r2, [r2, #-104]!	; 0xffffff98
  70:	69736976 	ldmdbvs	r3!, {r1, r2, r4, r5, r6, r8, fp, sp, lr}^
  74:	32206e6f 	eorcc	r6, r0, #1776	; 0x6f0
  78:	31353534 	teqcc	r5, r4, lsr r5
  7c:	Address 0x0000007c is out of bounds.


Disassembly of section .ARM.attributes:

00000000 <.ARM.attributes>:
   0:	00003841 	andeq	r3, r0, r1, asr #16
   4:	61656100 	cmnvs	r5, r0, lsl #2
   8:	01006962 	tsteq	r0, r2, ror #18
   c:	0000002e 	andeq	r0, r0, lr, lsr #32
  10:	726f4305 	rsbvc	r4, pc, #335544320	; 0x14000000
  14:	2d786574 	cfldr64cs	mvdx6, [r8, #-464]!	; 0xfffffe30
  18:	06003841 	streq	r3, [r0], -r1, asr #16
  1c:	0841070a 	stmdaeq	r1, {r1, r3, r8, r9, sl}^
  20:	0a020901 	beq	0x8242c
  24:	12010c03 	andne	r0, r1, #768	; 0x300
  28:	15011404 	strne	r1, [r1, #-1028]	; 0xfffffbfc
  2c:	18031701 	stmdane	r3, {r0, r8, r9, sl, ip}
  30:	1e011a01 	vmlane.f32	s2, s2, s2
  34:	44012206 	strmi	r2, [r1], #-518	; 0xfffffdfa
  38:	Address 0x00000038 is out of bounds.

